Archive member included to satisfy reference by file (symbol)

../src/config/default/stack/g3/mac/mac_plc/g3_lib_mac_plc.a(MacLow.o)
                              build/default/production/_ext/1570337448/mac_wrapper.o (MAC_PLC_Status)
../src/config/default/stack/g3/mac/mac_plc/g3_lib_mac_plc.a(MacMib.o)
                              ../src/config/default/stack/g3/mac/mac_plc/g3_lib_mac_plc.a(MacLow.o) (MacMibReset)
../src/config/default/stack/g3/mac/mac_plc/g3_lib_mac_plc.a(MacSublayer.o)
                              build/default/production/_ext/1570337448/mac_wrapper.o (MAC_PLC_DataRequest)
../src/config/default/stack/g3/mac/mac_plc/g3_lib_mac_plc.a(MacConstants.o)
                              ../src/config/default/stack/g3/mac/mac_plc/g3_lib_mac_plc.a(MacSublayer.o) (MacConstantsInitialize)
../src/config/default/stack/g3/adaptation/g3_lib_adp.a(Adp.o)
                              build/default/production/_ext/1171490990/initialization.o (ADP_Initialize)
../src/config/default/stack/g3/adaptation/g3_lib_adp.a(AdpCommon.o)
                              ../src/config/default/stack/g3/adaptation/g3_lib_adp.a(Adp.o) (AdpCommon_DataSendEx)
../src/config/default/stack/g3/adaptation/g3_lib_adp.a(AdpData.o)
                              build/default/production/_ext/710515956/drv_mac_g3adp.o (ADP_DataRequest)
../src/config/default/stack/g3/adaptation/g3_lib_adp.a(AdpDiscovery.o)
                              build/default/production/_ext/1360937237/app_g3_management.o (ADP_DiscoveryRequest)
../src/config/default/stack/g3/adaptation/g3_lib_adp.a(AdpGetSet.o)
                              build/default/production/_ext/1534551086/lbp_dev.o (ADP_GetRequestSync)
../src/config/default/stack/g3/adaptation/g3_lib_adp.a(AdpLbp.o)
                              build/default/production/_ext/1534551086/lbp_dev.o (ADP_LbpRequest)
../src/config/default/stack/g3/adaptation/g3_lib_adp.a(AdpMacInterface.o)
                              ../src/config/default/stack/g3/adaptation/g3_lib_adp.a(Adp.o) (AdpMac_Initialize)
../src/config/default/stack/g3/adaptation/g3_lib_adp.a(AdpNetwork.o)
                              ../src/config/default/stack/g3/adaptation/g3_lib_adp.a(Adp.o) (Network_NetworkJoined)
../src/config/default/stack/g3/adaptation/g3_lib_adp.a(AdpReset.o)
                              build/default/production/_ext/1534551086/lbp_dev.o (ADP_ResetRequest)
../src/config/default/stack/g3/adaptation/g3_lib_adp.a(AdpRouteDiscovery.o)
                              build/default/production/_ext/1360937237/app_g3_management.o (ADP_RouteDiscoveryRequest)
../src/config/default/stack/g3/adaptation/g3_lib_adp.a(Proto6Lowpan.o)
                              ../src/config/default/stack/g3/adaptation/g3_lib_adp.a(AdpLbp.o) (LoWPAN_Encode_CMD_Bootstrap)
../src/config/default/stack/g3/adaptation/g3_lib_adp.a(ProtoRFC6282.o)
                              ../src/config/default/stack/g3/adaptation/g3_lib_adp.a(AdpData.o) (IPv6_IsValid)
../src/config/default/driver/lib/lib-ieee802154_phy_pic32cxbz-v1.2.0.a(phy.o)
                              build/default/production/_ext/957911548/phy_task.o (PHY_TaskHandler)
../src/config/default/driver/lib/lib-ieee802154_phy_pic32cxbz-v1.2.0.a(phy_ed.o)
                              ../src/config/default/driver/lib/lib-ieee802154_phy_pic32cxbz-v1.2.0.a(phy.o) (trx_ed_irq_handler_cb)
../src/config/default/driver/lib/lib-ieee802154_phy_pic32cxbz-v1.2.0.a(phy_helper.o)
                              build/default/production/_ext/1278466877/pal_rf.o (PHY_ConfigTxPwr)
../src/config/default/driver/lib/lib-ieee802154_phy_pic32cxbz-v1.2.0.a(phy_init.o)
                              build/default/production/_ext/1171490990/initialization.o (PHY_Init)
../src/config/default/driver/lib/lib-ieee802154_phy_pic32cxbz-v1.2.0.a(phy_irq_handler.o)
                              ../src/config/default/driver/lib/lib-ieee802154_phy_pic32cxbz-v1.2.0.a(phy_init.o) (trx_irq_init)
../src/config/default/driver/lib/lib-ieee802154_phy_pic32cxbz-v1.2.0.a(phy_pib.o)
                              ../src/config/default/driver/lib/lib-ieee802154_phy_pic32cxbz-v1.2.0.a(phy_helper.o) (tx_pwr_table_mpalpa)
../src/config/default/driver/lib/lib-ieee802154_phy_pic32cxbz-v1.2.0.a(phy_pwr_mgmt.o)
                              build/default/production/_ext/1278466877/pal_rf.o (PHY_TrxSleep)
../src/config/default/driver/lib/lib-ieee802154_phy_pic32cxbz-v1.2.0.a(phy_rx.o)
                              ../src/config/default/driver/lib/lib-ieee802154_phy_pic32cxbz-v1.2.0.a(phy_irq_handler.o) (handle_received_frame_irq)
../src/config/default/driver/lib/lib-ieee802154_phy_pic32cxbz-v1.2.0.a(phy_rx_enable.o)
                              build/default/production/_ext/1278466877/pal_rf.o (PHY_RxEnable)
../src/config/default/driver/lib/lib-ieee802154_phy_pic32cxbz-v1.2.0.a(phy_tx.o)
                              build/default/production/_ext/1278466877/pal_rf.o (PHY_TxFrame)
../src/config/default/driver/lib/lib-ieee802154_phy_pic32cxbz-v1.2.0.a(tfa.o)
                              build/default/production/_ext/1278466877/pal_rf.o (PHY_EdSample)
../src/config/default/driver/lib/lib-ieee802154_phy_pic32cxbz-v1.2.0.a(phy_frame_handling.o)
                              ../src/config/default/driver/lib/lib-ieee802154_phy_pic32cxbz-v1.2.0.a(phy_irq_handler.o) (PHY_RxStartCallback)
../src/config/default/stack/g3/adaptation/g3_lib_loadng.a(ProtoLoadNg.o)
                              build/default/production/_ext/1534551086/routing_wrapper.o (LOADNG_Reset)
../src/config/default/stack/g3/adaptation/g3_lib_loadng.a(ProtoLoadNg_GetSet.o)
                              build/default/production/_ext/1534551086/routing_wrapper.o (LOADNG_GetMib)
../src/config/default/stack/g3/adaptation/g3_lib_loadng.a(ProtoLoadNg_RouteCost.o)
                              ../src/config/default/stack/g3/adaptation/g3_lib_loadng.a(ProtoLoadNg.o) (ProtoLoadNg_RouteCost_GetLinkCost)
../src/config/default/stack/g3/adaptation/g3_lib_loadng.a(ProtoLoadNg_RouteCost_CapacityMetric.o)
                              ../src/config/default/stack/g3/adaptation/g3_lib_loadng.a(ProtoLoadNg_RouteCost.o) (ProtoLoadNg_RouteCost_WeakLinkAdjust_CapacityMetric)
../src/config/default/stack/g3/adaptation/g3_lib_loadng.a(ProtoLoadNg_RouteCost_CompositeMetric.o)
                              ../src/config/default/stack/g3/adaptation/g3_lib_loadng.a(ProtoLoadNg_RouteCost.o) (ProtoLoadNg_RouteCost_GetLinkCostUnidirectional_CompositeMetric)
../src/config/default/stack/g3/adaptation/g3_lib_loadng.a(ProtoLoadNg_RouteCost_HopCount.o)
                              ../src/config/default/stack/g3/adaptation/g3_lib_loadng.a(ProtoLoadNg_RouteCost.o) (ProtoLoadNg_RouteCost_GetLinkCost_HopCount)
../src/config/default/stack/g3/mac/mac_rf/g3_lib_mac_rf.a(MacRfLow.o)
                              build/default/production/_ext/1570337448/mac_wrapper.o (MAC_RF_Status)
../src/config/default/stack/g3/mac/mac_rf/g3_lib_mac_rf.a(MacRfMib.o)
                              ../src/config/default/stack/g3/mac/mac_rf/g3_lib_mac_rf.a(MacRfLow.o) (MacMibResetRF)
../src/config/default/stack/g3/mac/mac_rf/g3_lib_mac_rf.a(MacRfSublayer.o)
                              build/default/production/_ext/1570337448/mac_wrapper.o (MAC_RF_DataRequest)
../src/config/default/driver/pds/pds.a(wlPdsDataServer.o)
                              build/default/production/_ext/1360937237/app_storage_wbz451h.o (PDS_RegisterWriteCompleteCallback)
../src/config/default/driver/pds/pds.a(wlPdsInit.o)
                              build/default/production/_ext/1171490990/initialization.o (PDS_Init)
../src/config/default/driver/pds/pds.a(D_Nv.o)
                              ../src/config/default/driver/pds/pds.a(wlPdsInit.o) (D_Nv_Init)
../src/config/default/driver/pds/pds.a(S_Nv-Chimera.o)
                              ../src/config/default/driver/pds/pds.a(wlPdsInit.o) (S_Nv_Init)
../src/config/default/driver/device_support/pic32cx_bz2_device_support.a(info_block.o)
                              build/default/production/_ext/745501718/pal.o (IB_GetAntennaGain)
../src/config/default/driver/device_support/pic32cx_bz2_device_support.a(rf_system.o)
                              build/default/production/_ext/1360937237/app_idle_task.o (RF_NeedCal)
../src/config/default/driver/device_support/pic32cx_bz2_device_support.a(info_block_plat.o)
                              ../src/config/default/driver/device_support/pic32cx_bz2_device_support.a(info_block.o) (IB_PMU_REG_proc)
../src/config/default/driver/device_support/pic32cx_bz2_device_support.a(pmu_dvr.o)
                              ../src/config/default/driver/device_support/pic32cx_bz2_device_support.a(info_block_plat.o) (PMU_Write_Reg)
../src/config/default/driver/device_support/pic32cx_bz2_device_support.a(rf.o)
                              ../src/config/default/driver/device_support/pic32cx_bz2_device_support.a(rf_system.o) (RF_Write_Reg)
c:/program files/microchip/xc32/v4.60/bin/bin/../../lib/gcc/pic32c/8.3.1/../../../../pic32c/lib/thumb/v7e-m+fp/hard\libpic32c.a(data_init.o)
                              build/default/production/_ext/1171490990/startup_xc32.o (__pic32c_data_initialization)
c:/program files/microchip/xc32/v4.60/bin/bin/../../lib/gcc/pic32c/8.3.1/../../../../pic32c/lib/thumb/v7e-m+fp/hard\libc-size-musl.a(memcmp.o)
                              build/default/production/_ext/1033058136/ndp.o (memcmp)
c:/program files/microchip/xc32/v4.60/bin/bin/../../lib/gcc/pic32c/8.3.1/../../../../pic32c/lib/thumb/v7e-m+fp/hard\libc-size-musl.a(memcpy.o)
                              build/default/production/_ext/745501718/pal.o (memcpy)
c:/program files/microchip/xc32/v4.60/bin/bin/../../lib/gcc/pic32c/8.3.1/../../../../pic32c/lib/thumb/v7e-m+fp/hard\libc-size-musl.a(memmove.o)
                              build/default/production/_ext/1534551086/lbp_encode_decode.o (memmove)
c:/program files/microchip/xc32/v4.60/bin/bin/../../lib/gcc/pic32c/8.3.1/../../../../pic32c/lib/thumb/v7e-m+fp/hard\libc-size-musl.a(memset.o)
                              build/default/production/_ext/1014741959/drv_plc_hal.o (memset)
c:/program files/microchip/xc32/v4.60/bin/bin/../../lib/gcc/pic32c/8.3.1/../../../../pic32c/lib/thumb/v7e-m+fp/hard\libc-size-musl.a(strlen.o)
                              build/default/production/_ext/1033058136/helpers.o (strlen)
c:/program files/microchip/xc32/v4.60/bin/bin/../../lib/gcc/pic32c/8.3.1/../../../../pic32c/lib/thumb/v7e-m+fp/hard\libc-size-musl.a(strcmp.o)
                              build/default/production/_ext/1033058136/tcpip_manager.o (strcmp)
c:/program files/microchip/xc32/v4.60/bin/bin/../../lib/gcc/pic32c/8.3.1/../../../../pic32c/lib/thumb/v7e-m+fp/hard\libc-size-musl.a(strncmp.o)
                              build/default/production/_ext/1716827871/ecc.o (strncmp)
c:/program files/microchip/xc32/v4.60/bin/bin/../../lib/gcc/pic32c/8.3.1/../../../../pic32c/lib/thumb/v7e-m+fp/hard\libc-size-musl.a(strncpy.o)
                              build/default/production/_ext/1033058136/helpers.o (strncpy)
c:/program files/microchip/xc32/v4.60/bin/bin/../../lib/gcc/pic32c/8.3.1/../../../../pic32c/lib/thumb/v7e-m+fp/hard\libc-size-musl.a(strrchr.o)
                              build/default/production/_ext/1033058136/tcpip_manager.o (strrchr)
c:/program files/microchip/xc32/v4.60/bin/bin/../../lib/gcc/pic32c/8.3.1/../../../../pic32c/lib/thumb/v7e-m+fp/hard\libc-size-musl.a(memrchr.o)
                              c:/program files/microchip/xc32/v4.60/bin/bin/../../lib/gcc/pic32c/8.3.1/../../../../pic32c/lib/thumb/v7e-m+fp/hard\libc-size-musl.a(strrchr.o) (__memrchr)
c:/program files/microchip/xc32/v4.60/bin/bin/../../lib/gcc/pic32c/8.3.1/../../../../pic32c/lib/thumb/v7e-m+fp/hard\libc-size-musl.a(stpncpy.o)
                              c:/program files/microchip/xc32/v4.60/bin/bin/../../lib/gcc/pic32c/8.3.1/../../../../pic32c/lib/thumb/v7e-m+fp/hard\libc-size-musl.a(strncpy.o) (__stpncpy)
c:/program files/microchip/xc32/v4.60/bin/bin/../../lib/gcc/pic32c/8.3.1/../../../../pic32c/lib/thumb/v7e-m+fp/hard\liblmalloc-musl.a(lite_calloc.o)
                              build/default/production/_ext/1716827871/asn.o (calloc)
c:/program files/microchip/xc32/v4.60/bin/bin/../../lib/gcc/pic32c/8.3.1/../../../../pic32c/lib/thumb/v7e-m+fp/hard\liblmalloc-musl.a(lite_free.o)
                              build/default/production/_ext/1171490990/initialization.o (free)
c:/program files/microchip/xc32/v4.60/bin/bin/../../lib/gcc/pic32c/8.3.1/../../../../pic32c/lib/thumb/v7e-m+fp/hard\liblmalloc-musl.a(lite_malloc.o)
                              c:/program files/microchip/xc32/v4.60/bin/bin/../../lib/gcc/pic32c/8.3.1/../../../../pic32c/lib/thumb/v7e-m+fp/hard\liblmalloc-musl.a(lite_calloc.o) (__simple_malloc)
c:/program files/microchip/xc32/v4.60/bin/bin/../../lib/gcc/pic32c/8.3.1/../../../../pic32c/lib/thumb/v7e-m+fp/hard\libm-fast-emfloat.a(round.o)
                              ../src/config/default/driver/device_support/pic32cx_bz2_device_support.a(rf_system.o) (round)
c:/program files/microchip/xc32/v4.60/bin/bin/../../lib/gcc/pic32c/8.3.1/../../../../pic32c/lib/thumb/v7e-m+fp/hard\libm-fast-emfloat.a(log.o)
                              build/default/production/_ext/1716827871/dh.o (log)
c:/program files/microchip/xc32/v4.60/bin/bin/../../lib/gcc/pic32c/8.3.1/../../../../pic32c/lib/thumb/v7e-m+fp/hard\libm-fast-emfloat.a(pow.o)
                              build/default/production/_ext/1716827871/dh.o (pow)
c:/program files/microchip/xc32/v4.60/bin/bin/../../lib/gcc/pic32c/8.3.1/../../../../pic32c/lib/thumb/v7e-m+fp/hard\libm-fast-emfloat.a(__SEGGER_RTL_float64_Log.o)
                              c:/program files/microchip/xc32/v4.60/bin/bin/../../lib/gcc/pic32c/8.3.1/../../../../pic32c/lib/thumb/v7e-m+fp/hard\libm-fast-emfloat.a(log.o) (__SEGGER_RTL_float64_Log)
c:/program files/microchip/xc32/v4.60/bin/bin/../../lib/gcc/pic32c/8.3.1/../../../../pic32c/lib/thumb/v7e-m+fp/hard\libm-fast-emfloat.a(__aeabi_dadd.o)
                              ../src/config/default/driver/lib/lib-ieee802154_phy_pic32cxbz-v1.2.0.a(phy_helper.o) (__aeabi_dadd)
c:/program files/microchip/xc32/v4.60/bin/bin/../../lib/gcc/pic32c/8.3.1/../../../../pic32c/lib/thumb/v7e-m+fp/hard\libm-fast-emfloat.a(__aeabi_dsub.o)
                              build/default/production/_ext/1716827871/dh.o (__aeabi_dsub)
c:/program files/microchip/xc32/v4.60/bin/bin/../../lib/gcc/pic32c/8.3.1/../../../../pic32c/lib/thumb/v7e-m+fp/hard\libm-fast-emfloat.a(__aeabi_dmul.o)
                              build/default/production/_ext/1716827871/dh.o (__aeabi_dmul)
c:/program files/microchip/xc32/v4.60/bin/bin/../../lib/gcc/pic32c/8.3.1/../../../../pic32c/lib/thumb/v7e-m+fp/hard\libm-fast-emfloat.a(__aeabi_ddiv.o)
                              ../src/config/default/stack/g3/adaptation/g3_lib_loadng.a(ProtoLoadNg_RouteCost_CompositeMetric.o) (__aeabi_ddiv)
c:/program files/microchip/xc32/v4.60/bin/bin/../../lib/gcc/pic32c/8.3.1/../../../../pic32c/lib/thumb/v7e-m+fp/hard\libm-fast-emfloat.a(__aeabi_dcmpeq.o)
                              c:/program files/microchip/xc32/v4.60/bin/bin/../../lib/gcc/pic32c/8.3.1/../../../../pic32c/lib/thumb/v7e-m+fp/hard\libm-fast-emfloat.a(pow.o) (__aeabi_dcmpeq)
c:/program files/microchip/xc32/v4.60/bin/bin/../../lib/gcc/pic32c/8.3.1/../../../../pic32c/lib/thumb/v7e-m+fp/hard\libm-fast-emfloat.a(__aeabi_dcmpgt.o)
                              ../src/config/default/stack/g3/adaptation/g3_lib_loadng.a(ProtoLoadNg_RouteCost_CompositeMetric.o) (__aeabi_dcmpgt)
c:/program files/microchip/xc32/v4.60/bin/bin/../../lib/gcc/pic32c/8.3.1/../../../../pic32c/lib/thumb/v7e-m+fp/hard\libm-fast-emfloat.a(__aeabi_dcmplt.o)
                              ../src/config/default/stack/g3/adaptation/g3_lib_loadng.a(ProtoLoadNg_RouteCost_CompositeMetric.o) (__aeabi_dcmplt)
c:/program files/microchip/xc32/v4.60/bin/bin/../../lib/gcc/pic32c/8.3.1/../../../../pic32c/lib/thumb/v7e-m+fp/hard\libm-fast-emfloat.a(__aeabi_d2iz.o)
                              c:/program files/microchip/xc32/v4.60/bin/bin/../../lib/gcc/pic32c/8.3.1/../../../../pic32c/lib/thumb/v7e-m+fp/hard\libm-fast-emfloat.a(pow.o) (__aeabi_d2iz)
c:/program files/microchip/xc32/v4.60/bin/bin/../../lib/gcc/pic32c/8.3.1/../../../../pic32c/lib/thumb/v7e-m+fp/hard\libm-fast-emfloat.a(__aeabi_d2uiz.o)
                              build/default/production/_ext/1716827871/dh.o (__aeabi_d2uiz)
c:/program files/microchip/xc32/v4.60/bin/bin/../../lib/gcc/pic32c/8.3.1/../../../../pic32c/lib/thumb/v7e-m+fp/hard\libm-fast-emfloat.a(__aeabi_i2d.o)
                              ../src/config/default/driver/lib/lib-ieee802154_phy_pic32cxbz-v1.2.0.a(phy_helper.o) (__aeabi_i2d)
c:/program files/microchip/xc32/v4.60/bin/bin/../../lib/gcc/pic32c/8.3.1/../../../../pic32c/lib/thumb/v7e-m+fp/hard\libm-fast-emfloat.a(__aeabi_ui2d.o)
                              build/default/production/_ext/1716827871/dh.o (__aeabi_ui2d)
c:/program files/microchip/xc32/v4.60/bin/bin/../../lib/gcc/pic32c/8.3.1/../../../../pic32c/lib/thumb/v7e-m+fp/hard\libm-fast-emfloat.a(__aeabi_f2d.o)
                              ../src/config/default/stack/g3/mac/mac_rf/g3_lib_mac_rf.a(MacRfLow.o) (__aeabi_f2d)
c:/program files/microchip/xc32/v4.60/bin/bin/../../lib/gcc/pic32c/8.3.1/../../../../pic32c/lib/thumb/v7e-m+fp/hard\libm-fast-emfloat.a(__aeabi_d2f.o)
                              ../src/config/default/driver/lib/lib-ieee802154_phy_pic32cxbz-v1.2.0.a(phy_helper.o) (__aeabi_d2f)
c:/program files/microchip/xc32/v4.60/bin/bin/../../lib/gcc/pic32c/8.3.1/../../../../pic32c/lib/thumb/v7e-m+fp/hard\libm-fast-emfloat.a(__SEGGER_RTL_float64_PolyEvalP.o)
                              c:/program files/microchip/xc32/v4.60/bin/bin/../../lib/gcc/pic32c/8.3.1/../../../../pic32c/lib/thumb/v7e-m+fp/hard\libm-fast-emfloat.a(log.o) (__SEGGER_RTL_float64_PolyEvalP)
c:/program files/microchip/xc32/v4.60/bin/bin/../../lib/gcc/pic32c/8.3.1/../../../../pic32c/lib/thumb/v7e-m+fp/hard\libm-fast-emfloat.a(__SEGGER_RTL_float64_PolyEvalQ.o)
                              c:/program files/microchip/xc32/v4.60/bin/bin/../../lib/gcc/pic32c/8.3.1/../../../../pic32c/lib/thumb/v7e-m+fp/hard\libm-fast-emfloat.a(log.o) (__SEGGER_RTL_float64_PolyEvalQ)
c:/program files/microchip/xc32/v4.60/bin/bin/../../lib/gcc/pic32c/8.3.1/../../../../pic32c/lib/thumb/v7e-m+fp/hard\libm-fast-emfloat.a(ldexp.o)
                              c:/program files/microchip/xc32/v4.60/bin/bin/../../lib/gcc/pic32c/8.3.1/../../../../pic32c/lib/thumb/v7e-m+fp/hard\libm-fast-emfloat.a(log.o) (ldexp)
c:/program files/microchip/xc32/v4.60/bin/bin/../../lib/gcc/pic32c/8.3.1/../../../../pic32c/lib/thumb/v7e-m+fp/hard\libm-fast-emfloat.a(frexp.o)
                              c:/program files/microchip/xc32/v4.60/bin/bin/../../lib/gcc/pic32c/8.3.1/../../../../pic32c/lib/thumb/v7e-m+fp/hard\libm-fast-emfloat.a(log.o) (frexp)
c:/program files/microchip/xc32/v4.60/bin/bin/../../lib/gcc/pic32c/8.3.1/../../../../pic32c/lib/thumb/v7e-m+fp/hard\libm-fast-emfloat.a(exp.o)
                              c:/program files/microchip/xc32/v4.60/bin/bin/../../lib/gcc/pic32c/8.3.1/../../../../pic32c/lib/thumb/v7e-m+fp/hard\libm-fast-emfloat.a(pow.o) (exp)
c:/program files/microchip/xc32/v4.60/bin/bin/../../lib/gcc/pic32c/8.3.1/../../../../pic32c/lib/thumb/v7e-m+fp/hard\libc-musl.a(isxdigit.o)
                              build/default/production/_ext/1033058136/tcpip_helpers.o (isxdigit)
c:/program files/microchip/xc32/v4.60/bin/bin/../../lib/gcc/pic32c/8.3.1/../../../../pic32c/lib/thumb/v7e-m+fp/hard\libc-musl.a(tolower.o)
                              build/default/production/_ext/1033058136/helpers.o (tolower)
c:/program files/microchip/xc32/v4.60/bin/bin/../../lib/gcc/pic32c/8.3.1/../../../../pic32c/lib/thumb/v7e-m+fp/hard\libc-musl.a(toupper.o)
                              build/default/production/_ext/1033058136/tcpip_helpers.o (toupper)
c:/program files/microchip/xc32/v4.60/bin/bin/../../lib/gcc/pic32c/8.3.1/../../../../pic32c/lib/thumb/v7e-m+fp/hard\libc-musl.a(__libc_start_main.o)
                              build/default/production/_ext/1171490990/startup_xc32.o (__libc_init_array)
c:/program files/microchip/xc32/v4.60/bin/bin/../../lib/gcc/pic32c/8.3.1/../../../../pic32c/lib/thumb/v7e-m+fp/hard\libc-musl.a(__errno_location.o)
                              c:/program files/microchip/xc32/v4.60/bin/bin/../../lib/gcc/pic32c/8.3.1/../../../../pic32c/lib/thumb/v7e-m+fp/hard\liblmalloc-musl.a(lite_malloc.o) (__errno_val)
c:/program files/microchip/xc32/v4.60/bin/bin/../../lib/gcc/pic32c/8.3.1/../../../../pic32c/lib/thumb/v7e-m+fp/hard\libc-musl.a(libc.o)
                              c:/program files/microchip/xc32/v4.60/bin/bin/../../lib/gcc/pic32c/8.3.1/../../../../pic32c/lib/thumb/v7e-m+fp/hard\libc-musl.a(__libc_start_main.o) (__progname_full)
c:/program files/microchip/xc32/v4.60/bin/bin/../../lib/gcc/pic32c/8.3.1/../../../../pic32c/lib/thumb/v7e-m+fp/hard\libc-musl.a(expand_heap.o)
                              c:/program files/microchip/xc32/v4.60/bin/bin/../../lib/gcc/pic32c/8.3.1/../../../../pic32c/lib/thumb/v7e-m+fp/hard\liblmalloc-musl.a(lite_malloc.o) (__expand_heap)
c:/program files/microchip/xc32/v4.60/bin/bin/../../lib/gcc/pic32c/8.3.1/../../../../pic32c/lib/thumb/v7e-m+fp/hard\libc-musl.a(rand.o)
                              build/default/production/_ext/1716827871/random.o (srand)
c:/program files/microchip/xc32/v4.60/bin/bin/../../lib/gcc/pic32c/8.3.1/../../../../pic32c/lib/thumb/v7e-m+fp/hard\libc-musl.a(vsnprintf.o)
                              build/default/production/_ext/1832805299/sys_console.o (vsnprintf)
c:/program files/microchip/xc32/v4.60/bin/bin/../../lib/gcc/pic32c/8.3.1/../../../../pic32c/lib/thumb/v7e-m+fp/hard\libc-musl.a(snprintf.o)
                              (snprintf)
c:/program files/microchip/xc32/v4.60/bin/bin/../../lib/gcc/pic32c/8.3.1/../../../../pic32c/lib/thumb/v7e-m+fp/hard\libc-musl.a(sprintf.o)
                              (sprintf)
c:/program files/microchip/xc32/v4.60/bin/bin/../../lib/gcc/pic32c/8.3.1/../../../../pic32c/lib/thumb/v7e-m+fp/hard\libc-musl.a(vsprintf.o)
                              c:/program files/microchip/xc32/v4.60/bin/bin/../../lib/gcc/pic32c/8.3.1/../../../../pic32c/lib/thumb/v7e-m+fp/hard\libc-musl.a(sprintf.o) (vsprintf)
c:/program files/microchip/xc32/v4.60/bin/bin/../../lib/gcc/pic32c/8.3.1/../../../../pic32c/lib/thumb/v7e-m+fp/hard\libc-musl.a(strtol.o)
                              build/default/production/_ext/1033058136/tcpip_helpers.o (strtol)
c:/program files/microchip/xc32/v4.60/bin/bin/../../lib/gcc/pic32c/8.3.1/../../../../pic32c/lib/thumb/v7e-m+fp/hard\libc-musl.a(gmtime.o)
                              build/default/production/_ext/1716827871/asn.o (gmtime)
c:/program files/microchip/xc32/v4.60/bin/bin/../../lib/gcc/pic32c/8.3.1/../../../../pic32c/lib/thumb/v7e-m+fp/hard\libc-musl.a(gmtime_r.o)
                              c:/program files/microchip/xc32/v4.60/bin/bin/../../lib/gcc/pic32c/8.3.1/../../../../pic32c/lib/thumb/v7e-m+fp/hard\libc-musl.a(gmtime.o) (__gmtime_r)
c:/program files/microchip/xc32/v4.60/bin/bin/../../lib/gcc/pic32c/8.3.1/../../../../pic32c/lib/thumb/v7e-m+fp/hard\libc-musl.a(time.o)
                              build/default/production/_ext/1716827871/asn.o (time)
c:/program files/microchip/xc32/v4.60/bin/bin/../../lib/gcc/pic32c/8.3.1/../../../../pic32c/lib/thumb/v7e-m+fp/hard\libc-musl.a(__environ.o)
                              c:/program files/microchip/xc32/v4.60/bin/bin/../../lib/gcc/pic32c/8.3.1/../../../../pic32c/lib/thumb/v7e-m+fp/hard\libc-musl.a(__libc_start_main.o) (__environ)
c:/program files/microchip/xc32/v4.60/bin/bin/../../lib/gcc/pic32c/8.3.1/../../../../pic32c/lib/thumb/v7e-m+fp/hard\libc-musl.a(intscan.o)
                              c:/program files/microchip/xc32/v4.60/bin/bin/../../lib/gcc/pic32c/8.3.1/../../../../pic32c/lib/thumb/v7e-m+fp/hard\libc-musl.a(strtol.o) (__intscan)
c:/program files/microchip/xc32/v4.60/bin/bin/../../lib/gcc/pic32c/8.3.1/../../../../pic32c/lib/thumb/v7e-m+fp/hard\libc-musl.a(shgetc.o)
                              c:/program files/microchip/xc32/v4.60/bin/bin/../../lib/gcc/pic32c/8.3.1/../../../../pic32c/lib/thumb/v7e-m+fp/hard\libc-musl.a(strtol.o) (__shlim)
c:/program files/microchip/xc32/v4.60/bin/bin/../../lib/gcc/pic32c/8.3.1/../../../../pic32c/lib/thumb/v7e-m+fp/hard\libc-musl.a(__uflow.o)
                              c:/program files/microchip/xc32/v4.60/bin/bin/../../lib/gcc/pic32c/8.3.1/../../../../pic32c/lib/thumb/v7e-m+fp/hard\libc-musl.a(shgetc.o) (__uflow)
c:/program files/microchip/xc32/v4.60/bin/bin/../../lib/gcc/pic32c/8.3.1/../../../../pic32c/lib/thumb/v7e-m+fp/hard\libc-musl.a(vfprintf.o)
                              c:/program files/microchip/xc32/v4.60/bin/bin/../../lib/gcc/pic32c/8.3.1/../../../../pic32c/lib/thumb/v7e-m+fp/hard\libc-musl.a(vsnprintf.o) (vfprintf)
c:/program files/microchip/xc32/v4.60/bin/bin/../../lib/gcc/pic32c/8.3.1/../../../../pic32c/lib/thumb/v7e-m+fp/hard\libc-musl.a(__secs_to_tm.o)
                              c:/program files/microchip/xc32/v4.60/bin/bin/../../lib/gcc/pic32c/8.3.1/../../../../pic32c/lib/thumb/v7e-m+fp/hard\libc-musl.a(gmtime_r.o) (__secs_to_tm)
c:/program files/microchip/xc32/v4.60/bin/bin/../../lib/gcc/pic32c/8.3.1/../../../../pic32c/lib/thumb/v7e-m+fp/hard\libc-musl.a(clock_gettime.o)
                              c:/program files/microchip/xc32/v4.60/bin/bin/../../lib/gcc/pic32c/8.3.1/../../../../pic32c/lib/thumb/v7e-m+fp/hard\libc-musl.a(time.o) (__clock_gettime)
c:/program files/microchip/xc32/v4.60/bin/bin/../../lib/gcc/pic32c/8.3.1/../../../../pic32c/lib/thumb/v7e-m+fp/hard\libc-musl.a(gettimeofday.o)
                              c:/program files/microchip/xc32/v4.60/bin/bin/../../lib/gcc/pic32c/8.3.1/../../../../pic32c/lib/thumb/v7e-m+fp/hard\libc-musl.a(clock_gettime.o) (gettimeofday)
c:/program files/microchip/xc32/v4.60/bin/bin/../../lib/gcc/pic32c/8.3.1/../../../../pic32c/lib/thumb/v7e-m+fp/hard\libc-musl.a(syscall_ret.o)
                              c:/program files/microchip/xc32/v4.60/bin/bin/../../lib/gcc/pic32c/8.3.1/../../../../pic32c/lib/thumb/v7e-m+fp/hard\libc-musl.a(clock_gettime.o) (__syscall_ret)
c:/program files/microchip/xc32/v4.60/bin/bin/../../lib/gcc/pic32c/8.3.1/../../../../pic32c/lib/thumb/v7e-m+fp/hard\libc-musl.a(__toread.o)
                              c:/program files/microchip/xc32/v4.60/bin/bin/../../lib/gcc/pic32c/8.3.1/../../../../pic32c/lib/thumb/v7e-m+fp/hard\libc-musl.a(__uflow.o) (__toread)
c:/program files/microchip/xc32/v4.60/bin/bin/../../lib/gcc/pic32c/8.3.1/../../../../pic32c/lib/thumb/v7e-m+fp/hard\libc-musl.a(__io_fmt_needed.o)
                              c:/program files/microchip/xc32/v4.60/bin/bin/../../lib/gcc/pic32c/8.3.1/../../../../pic32c/lib/thumb/v7e-m+fp/hard\libc-musl.a(vfprintf.o) (__io_fmt_needed)
c:/program files/microchip/xc32/v4.60/bin/bin/../../lib/gcc/pic32c/8.3.1/../../../../pic32c/lib/thumb/v7e-m+fp/hard\libc-musl.a(__pop_float.o)
                              c:/program files/microchip/xc32/v4.60/bin/bin/../../lib/gcc/pic32c/8.3.1/../../../../pic32c/lib/thumb/v7e-m+fp/hard\libc-musl.a(__io_fmt_needed.o) (__pop_float_needed)
c:/program files/microchip/xc32/v4.60/bin/bin/../../lib/gcc/pic32c/8.3.1/../../../../pic32c/lib/thumb/v7e-m+fp/hard\libc-musl.a(__pop_int.o)
                              c:/program files/microchip/xc32/v4.60/bin/bin/../../lib/gcc/pic32c/8.3.1/../../../../pic32c/lib/thumb/v7e-m+fp/hard\libc-musl.a(__io_fmt_needed.o) (__pop_int_needed)
c:/program files/microchip/xc32/v4.60/bin/bin/../../lib/gcc/pic32c/8.3.1/../../../../pic32c/lib/thumb/v7e-m+fp/hard\libc-musl.a(__pop_ptr.o)
                              c:/program files/microchip/xc32/v4.60/bin/bin/../../lib/gcc/pic32c/8.3.1/../../../../pic32c/lib/thumb/v7e-m+fp/hard\libc-musl.a(__io_fmt_needed.o) (__pop_ptr_needed)
c:/program files/microchip/xc32/v4.60/bin/bin/../../lib/gcc/pic32c/8.3.1/../../../../pic32c/lib/thumb/v7e-m+fp/hard\libc-musl.a(__printf_core.o)
                              c:/program files/microchip/xc32/v4.60/bin/bin/../../lib/gcc/pic32c/8.3.1/../../../../pic32c/lib/thumb/v7e-m+fp/hard\libc-musl.a(vfprintf.o) (__printf_core)
c:/program files/microchip/xc32/v4.60/bin/bin/../../lib/gcc/pic32c/8.3.1/../../../../pic32c/lib/thumb/v7e-m+fp/hard\libc-musl.a(__stdio_exit.o)
                              c:/program files/microchip/xc32/v4.60/bin/bin/../../lib/gcc/pic32c/8.3.1/../../../../pic32c/lib/thumb/v7e-m+fp/hard\libc-musl.a(__toread.o) (__stdio_exit_needed)
c:/program files/microchip/xc32/v4.60/bin/bin/../../lib/gcc/pic32c/8.3.1/../../../../pic32c/lib/thumb/v7e-m+fp/hard\libc-musl.a(atoi.o)
                              c:/program files/microchip/xc32/v4.60/bin/bin/../../lib/gcc/pic32c/8.3.1/../../../../pic32c/lib/thumb/v7e-m+fp/hard\libc-musl.a(__printf_core.o) (atoi)
c:/program files/microchip/xc32/v4.60/bin/bin/../../lib/gcc/pic32c/8.3.1/../../../../pic32c/lib/thumb/v7e-m+fp/hard\libc-musl.a(__fmt_a.o)
                              c:/program files/microchip/xc32/v4.60/bin/bin/../../lib/gcc/pic32c/8.3.1/../../../../pic32c/lib/thumb/v7e-m+fp/hard\libc-musl.a(__io_fmt_needed.o) (__fmt_a_needed)
c:/program files/microchip/xc32/v4.60/bin/bin/../../lib/gcc/pic32c/8.3.1/../../../../pic32c/lib/thumb/v7e-m+fp/hard\libc-musl.a(__fmt_d.o)
                              c:/program files/microchip/xc32/v4.60/bin/bin/../../lib/gcc/pic32c/8.3.1/../../../../pic32c/lib/thumb/v7e-m+fp/hard\libc-musl.a(__io_fmt_needed.o) (__fmt_d_needed)
c:/program files/microchip/xc32/v4.60/bin/bin/../../lib/gcc/pic32c/8.3.1/../../../../pic32c/lib/thumb/v7e-m+fp/hard\libc-musl.a(__fmt_fp.o)
                              c:/program files/microchip/xc32/v4.60/bin/bin/../../lib/gcc/pic32c/8.3.1/../../../../pic32c/lib/thumb/v7e-m+fp/hard\libc-musl.a(__io_fmt_needed.o) (__fmt_f_needed)
c:/program files/microchip/xc32/v4.60/bin/bin/../../lib/gcc/pic32c/8.3.1/../../../../pic32c/lib/thumb/v7e-m+fp/hard\libc-musl.a(__fmt_o.o)
                              c:/program files/microchip/xc32/v4.60/bin/bin/../../lib/gcc/pic32c/8.3.1/../../../../pic32c/lib/thumb/v7e-m+fp/hard\libc-musl.a(__io_fmt_needed.o) (__fmt_o_needed)
c:/program files/microchip/xc32/v4.60/bin/bin/../../lib/gcc/pic32c/8.3.1/../../../../pic32c/lib/thumb/v7e-m+fp/hard\libc-musl.a(__fmt_s.o)
                              c:/program files/microchip/xc32/v4.60/bin/bin/../../lib/gcc/pic32c/8.3.1/../../../../pic32c/lib/thumb/v7e-m+fp/hard\libc-musl.a(__io_fmt_needed.o) (__fmt_s_needed)
c:/program files/microchip/xc32/v4.60/bin/bin/../../lib/gcc/pic32c/8.3.1/../../../../pic32c/lib/thumb/v7e-m+fp/hard\libc-musl.a(__fmt_u.o)
                              c:/program files/microchip/xc32/v4.60/bin/bin/../../lib/gcc/pic32c/8.3.1/../../../../pic32c/lib/thumb/v7e-m+fp/hard\libc-musl.a(__io_fmt_needed.o) (__fmt_u_needed)
c:/program files/microchip/xc32/v4.60/bin/bin/../../lib/gcc/pic32c/8.3.1/../../../../pic32c/lib/thumb/v7e-m+fp/hard\libc-musl.a(__fmt_x.o)
                              c:/program files/microchip/xc32/v4.60/bin/bin/../../lib/gcc/pic32c/8.3.1/../../../../pic32c/lib/thumb/v7e-m+fp/hard\libc-musl.a(__io_fmt_needed.o) (__fmt_x_needed)
c:/program files/microchip/xc32/v4.60/bin/bin/../../lib/gcc/pic32c/8.3.1/../../../../pic32c/lib/thumb/v7e-m+fp/hard\libc-musl.a(__cvt_u.o)
                              c:/program files/microchip/xc32/v4.60/bin/bin/../../lib/gcc/pic32c/8.3.1/../../../../pic32c/lib/thumb/v7e-m+fp/hard\libc-musl.a(__fmt_d.o) (__cvt_u)
c:/program files/microchip/xc32/v4.60/bin/bin/../../lib/gcc/pic32c/8.3.1/../../../../pic32c/lib/thumb/v7e-m+fp/hard\libm-fast-emfloat.a(fma.o)
                              c:/program files/microchip/xc32/v4.60/bin/bin/../../lib/gcc/pic32c/8.3.1/../../../../pic32c/lib/thumb/v7e-m+fp/hard\libc-musl.a(__fmt_fp.o) (fma)
c:/program files/microchip/xc32/v4.60/bin/bin/../../lib/gcc/pic32c/8.3.1/../../../../pic32c/lib/thumb/v7e-m+fp/hard\libm-fast-emfloat.a(floor.o)
                              c:/program files/microchip/xc32/v4.60/bin/bin/../../lib/gcc/pic32c/8.3.1/../../../../pic32c/lib/thumb/v7e-m+fp/hard\libc-musl.a(__fmt_a.o) (floor)
c:/program files/microchip/xc32/v4.60/bin/bin/../../lib/gcc/pic32c/8.3.1/../../../../pic32c/lib/thumb/v7e-m+fp/hard\libm-fast-emfloat.a(__aeabi_dcmple.o)
                              c:/program files/microchip/xc32/v4.60/bin/bin/../../lib/gcc/pic32c/8.3.1/../../../../pic32c/lib/thumb/v7e-m+fp/hard\libc-musl.a(__fmt_fp.o) (__aeabi_dcmple)
c:/program files/microchip/xc32/v4.60/bin/bin/../../lib/gcc/pic32c/8.3.1/thumb/v7e-m+fp/hard\libgcc.a(_aeabi_ldivmod.o)
                              build/default/production/_ext/504274921/plib_sercom1_usart.o (__aeabi_ldivmod)
c:/program files/microchip/xc32/v4.60/bin/bin/../../lib/gcc/pic32c/8.3.1/thumb/v7e-m+fp/hard\libgcc.a(_aeabi_uldivmod.o)
                              build/default/production/_ext/1033058136/tcpip_manager.o (__aeabi_uldivmod)
c:/program files/microchip/xc32/v4.60/bin/bin/../../lib/gcc/pic32c/8.3.1/thumb/v7e-m+fp/hard\libgcc.a(_udivmoddi4.o)
                              c:/program files/microchip/xc32/v4.60/bin/bin/../../lib/gcc/pic32c/8.3.1/thumb/v7e-m+fp/hard\libgcc.a(_aeabi_ldivmod.o) (__udivmoddi4)
c:/program files/microchip/xc32/v4.60/bin/bin/../../lib/gcc/pic32c/8.3.1/thumb/v7e-m+fp/hard\libgcc.a(_dvmd_tls.o)
                              c:/program files/microchip/xc32/v4.60/bin/bin/../../lib/gcc/pic32c/8.3.1/thumb/v7e-m+fp/hard\libgcc.a(_aeabi_ldivmod.o) (__aeabi_ldiv0)
c:/program files/microchip/xc32/v4.60/bin/bin/../../lib/gcc/pic32c/8.3.1/../../../../pic32c/lib/thumb/v7e-m+fp/hard\libpic32c.a(sbrk.o)
                              c:/program files/microchip/xc32/v4.60/bin/bin/../../lib/gcc/pic32c/8.3.1/../../../../pic32c/lib/thumb/v7e-m+fp/hard\liblmalloc-musl.a(lite_malloc.o) (_get_heap_left_space)
c:/program files/microchip/xc32/v4.60/bin/bin/../../lib/gcc/pic32c/8.3.1/../../../../pic32c/lib/thumb/v7e-m+fp/hard\libc-size-musl.a(strcpy.o)
                              c:/program files/microchip/xc32/v4.60/bin/bin/../../lib/gcc/pic32c/8.3.1/../../../../pic32c/lib/thumb/v7e-m+fp/hard\libc-musl.a(__fmt_a.o) (strcpy)
c:/program files/microchip/xc32/v4.60/bin/bin/../../lib/gcc/pic32c/8.3.1/../../../../pic32c/lib/thumb/v7e-m+fp/hard\libc-size-musl.a(stpcpy.o)
                              c:/program files/microchip/xc32/v4.60/bin/bin/../../lib/gcc/pic32c/8.3.1/../../../../pic32c/lib/thumb/v7e-m+fp/hard\libc-size-musl.a(strcpy.o) (__stpcpy)

Allocating common symbols
Common symbol       size              file

IPV6_INIT_STATE     0x1               build/default/production/_ext/1033058136/ipv6.o
app_g3_managementData
                    0x2c              build/default/production/_ext/1360937237/app_g3_management.o
app_storage_wbz451hData
                    0x18              build/default/production/_ext/1360937237/app_storage_wbz451h.o
xAPP_TCPIP_MANAGEMENT_Tasks
                    0x4               build/default/production/_ext/1171490990/tasks.o
macMibCommon        0x34              build/default/production/_ext/1632721610/mac_common.o
appStorageSemaphoreID
                    0x4               build/default/production/_ext/1360937237/app_storage_wbz451h.o
g_hpaEnable         0x1               ../src/config/default/driver/device_support/pic32cx_bz2_device_support.a(rf_system.o)
g_validFactoryCalTemp
                    0x1               ../src/config/default/driver/device_support/pic32cx_bz2_device_support.a(rf_system.o)
g_lastTemperatureDegreeC
                    0x2               ../src/config/default/driver/device_support/pic32cx_bz2_device_support.a(rf_system.o)
xPHY_Tasks          0x4               build/default/production/_ext/1171490990/tasks.o
g_vrefComp          0x1               ../src/config/default/driver/device_support/pic32cx_bz2_device_support.a(rf_system.o)
xAPP_UDP_RESPONDER_Tasks
                    0x4               build/default/production/_ext/1171490990/tasks.o
semPhyInternalHandler
                    0x4               build/default/production/_ext/1171490990/initialization.o
DUPLICATE_ADDR_DISCOVERY_STATE
                    0x1               build/default/production/_ext/1033058136/ndp.o
app_udp_responderData
                    0x8               build/default/production/_ext/1360937237/app_udp_responder.o
appData             0x8               build/default/production/_ext/1360937237/app.o
ROUTER_SOLICITATION_STATE
                    0x1               build/default/production/_ext/1033058136/ndp.o
app_tcpip_managementData
                    0x3c              build/default/production/_ext/1360937237/app_tcpip_management.o
sysObj              0x1c              build/default/production/_ext/1171490990/initialization.o
g_ib_RssiOffset     0x1               ../src/config/default/driver/device_support/pic32cx_bz2_device_support.a(info_block.o)
gblErrLvl           0x4               build/default/production/_ext/944882569/sys_debug.o
matrix              0x1800            build/default/production/_ext/1360937237/app_matrix_led.o
xAPP_STORAGE_WBZ451H_Tasks
                    0x4               build/default/production/_ext/1171490990/tasks.o
app_matrix_ledData  0x1c              build/default/production/_ext/1360937237/app_matrix_led.o
xAPP_G3_MANAGEMENT_Tasks
                    0x4               build/default/production/_ext/1171490990/tasks.o
g_nextCalTime       0x4               ../src/config/default/driver/device_support/pic32cx_bz2_device_support.a(rf_system.o)
osalAPIList         0x44              build/default/production/_ext/1171490990/initialization.o
c:/program files/microchip/xc32/v4.60/bin/bin/../../lib/gcc/pic32c/8.3.1/../../../../pic32c/lib/thumb/v7e-m+fp/hard\libpic32c.a(pic32_data_init_clear.o)
                              (__dinit_clear_needed)
c:/program files/microchip/xc32/v4.60/bin/bin/../../lib/gcc/pic32c/8.3.1/../../../../pic32c/lib/thumb/v7e-m+fp/hard\libpic32c.a(pic32_data_init_copy.o)
                              (__dinit_copy_needed)

Microchip PIC32 Memory-Usage Report

ROM Program-Memory Usage
section                    address  length [bytes]      (dec)  Description
-------                 ----------  -------------------------  -----------
.text                    0x1004000           0x30          48  App's exec code 
.ARM.exidx               0x1004030            0x8           8   
.text                    0x1004038           0xc8         200  App's exec code 
.rodata                  0x1004100        0x12300       74496  Read-only const 
.text                    0x1016400         0x3630       13872  App's exec code 
.text                    0x1019a30         0x2d94       11668  App's exec code 
.text                    0x101c7c4         0x2ce8       11496  App's exec code 
.text                    0x101f4ac         0x2320        8992  App's exec code 
.text                    0x10217cc         0x1df0        7664  App's exec code 
.text                    0x10235bc         0x1b24        6948  App's exec code 
.text                    0x10250e0         0x1788        6024  App's exec code 
.text                    0x1026868         0x1544        5444  App's exec code 
.text                    0x1027dac         0x13d8        5080  App's exec code 
.text                    0x1029184         0x1374        4980  App's exec code 
.text                    0x102a4f8         0x12e4        4836  App's exec code 
.text                    0x102b7dc         0x1168        4456  App's exec code 
.text                    0x102c944         0x110c        4364  App's exec code 
.text                    0x102da50         0x1034        4148  App's exec code 
.text                    0x102ea84          0xfcc        4044  App's exec code 
.text                    0x102fa50          0xfa4        4004  App's exec code 
.text                    0x10309f4          0xf30        3888  App's exec code 
.text                    0x1031924          0xe88        3720  App's exec code 
.text                    0x10327ac          0xd90        3472  App's exec code 
.text                    0x103353c          0xccc        3276  App's exec code 
.text                    0x1034208          0xc6c        3180  App's exec code 
.text                    0x1034e74          0xc1c        3100  App's exec code 
.text                    0x1035a90          0xbb0        2992  App's exec code 
.text                    0x1036640          0xb1c        2844  App's exec code 
.text                    0x103715c          0xa70        2672  App's exec code 
.text                    0x1037bcc          0xa44        2628  App's exec code 
.text                    0x1038610          0xa20        2592  App's exec code 
.text                    0x1039030          0xa10        2576  App's exec code 
.text                    0x1039a40          0x9f4        2548  App's exec code 
.text                    0x103a434            0x4           4  App's exec code 
.text                    0x103a438          0x8e4        2276  App's exec code 
.text                    0x103ad1c          0x82c        2092  App's exec code 
.rodata                  0x103b548          0x800        2048  Read-only const 
.rodata.str1.4           0x103bd48          0x7ec        2028   
.text                    0x103c534          0x738        1848  App's exec code 
.dinit                   0x103cc6c          0x6e0        1760   
.text                    0x103d34c          0x66c        1644  App's exec code 
.text                    0x103d9b8          0x664        1636  App's exec code 
.text                    0x103e01c          0x618        1560  App's exec code 
.text                    0x103e634          0x5dc        1500  App's exec code 
.text                    0x103ec10          0x588        1416  App's exec code 
.text                    0x103f198          0x570        1392  App's exec code 
.rodata.str1.4           0x103f708          0x55c        1372   
.text                    0x103fc64          0x548        1352  App's exec code 
.text                    0x10401ac          0x528        1320  App's exec code 
.text                    0x10406d4            0x4           4  App's exec code 
.text.__fmt_fp           0x10406d8          0x4c0        1216   
.text.__fmt_a            0x1040b98          0x4b8        1208   
.text.pow                0x1041050          0x48c        1164   
.text                    0x10414dc          0x45c        1116  App's exec code 
.text                    0x1041938          0x454        1108  App's exec code 
.text                    0x1041d8c          0x444        1092  App's exec code 
.text.__intscan          0x10421d0          0x3f4        1012   
.rodata                  0x10425c4            0x4           4  Read-only const 
.text                    0x10425c8          0x3c0         960  App's exec code 
.text                    0x1042988          0x3b4         948  App's exec code 
.text                    0x1042d3c          0x398         920  App's exec code 
.text                    0x10430d4          0x398         920  App's exec code 
.text                    0x104346c          0x374         884  App's exec code 
.text                    0x10437e0          0x354         852  App's exec code 
.rodata.str1.4           0x1043b34          0x34c         844   
.text                    0x1043e80          0x334         820  App's exec code 
.text.__printf_core      0x10441b4          0x308         776   
.text                    0x10444bc          0x2f8         760  App's exec code 
.text.set_trx_state      0x10447b4          0x2c8         712   
.text                    0x1044a7c          0x2bc         700  App's exec code 
.text                    0x1044d38          0x2a8         680  App's exec code 
.text                    0x1044fe0          0x2a0         672  App's exec code 
.text.PHY_PibSet         0x1045280          0x280         640   
.text                    0x1045500          0x25c         604  App's exec code 
.text                    0x104575c          0x254         596  App's exec code 
.text                    0x10459b0          0x250         592  App's exec code 
.text                    0x1045c00          0x24c         588  App's exec code 
.text                    0x1045e4c          0x244         580  App's exec code 
.text.__aeabi_dadd       0x1046090          0x23e         574   
.text                    0x10462ce            0x2           2  App's exec code 
.rodata                  0x10462d0          0x23c         572  Read-only const 
.rodata                  0x104650c          0x230         560  Read-only const 
.text.z_readReg32        0x104673c            0x4           4   
.text.exp                0x1046740          0x228         552   
.text.handle_received_f  0x1046968          0x218         536   
.text.__aeabi_ddiv       0x1046b80          0x216         534   
.text                    0x1046d96            0x2           2  App's exec code 
.text                    0x1046d98          0x214         532  App's exec code 
.text                    0x1046fac          0x210         528  App's exec code 
.text                    0x10471bc          0x208         520  App's exec code 
.rodata                  0x10473c4          0x200         512  Read-only const 
.text                    0x10475c4          0x1fc         508  App's exec code 
.text                    0x10477c0          0x1f4         500  App's exec code 
.text.z_readReg8         0x10479b4            0x4           4   
.text.log                0x10479b8          0x1f0         496   
.text                    0x1047ba8          0x1e8         488  App's exec code 
.text                    0x1047d90          0x1e4         484  App's exec code 
.text.trx_config         0x1047f74          0x1d0         464   
.text                    0x1048144          0x1cc         460  App's exec code 
.text.PHY_ConfigTxPwr    0x1048310          0x1c4         452   
.text                    0x10484d4          0x1ac         428  App's exec code 
.text                    0x1048680          0x1ac         428  App's exec code 
.text                    0x104882c          0x1a8         424  App's exec code 
.text.apply_channel_pag  0x10489d4          0x1a4         420   
.text                    0x1048b78          0x190         400  App's exec code 
.text                    0x1048d08          0x184         388  App's exec code 
.rodata                  0x1048e8c          0x180         384  Read-only const 
.text                    0x104900c          0x174         372  App's exec code 
.text                    0x1049180          0x174         372  App's exec code 
.rodata                  0x10492f4          0x170         368  Read-only const 
.text.ZB_INT0_Handler    0x1049464          0x170         368   
.text                    0x10495d4          0x15c         348  App's exec code 
.text.phyWriteFrameBuff  0x1049730          0x154         340   
.text.phyWriteFrameBuff  0x1049884          0x154         340   
.text                    0x10499d8          0x148         328  App's exec code 
.text                    0x1049b20          0x148         328  App's exec code 
.text                    0x1049c68          0x144         324  App's exec code 
.text                    0x1049dac          0x138         312  App's exec code 
.text                    0x1049ee4          0x134         308  App's exec code 
.text.parseReceivedFram  0x104a018          0x134         308   
.text.PHY_PibGet         0x104a14c          0x130         304   
.text.__aeabi_dmul       0x104a27c          0x130         304   
.text                    0x104a3ac          0x124         292  App's exec code 
.text.__fmt_x            0x104a4d0          0x124         292   
.text.phyReadSramInline  0x104a5f4          0x122         290   
.text.PHY_RxStartCallba  0x104a716            0x2           2   
.text                    0x104a718          0x120         288  App's exec code 
.text.phyReadFrameBuffe  0x104a838          0x11c         284   
.text.send_frame         0x104a954          0x10c         268   
.rodata                  0x104aa60          0x10a         266  Read-only const 
.text.PHY_GenerateImmAc  0x104ab6a            0x2           2   
.text                    0x104ab6c          0x104         260  App's exec code 
.rodata                  0x104ac70          0x100         256  Read-only const 
.text.PHY_TaskHandler    0x104ad70           0xf4         244   
.rodata.str1.4           0x104ae64           0xe8         232   
.text                    0x104af4c           0xe4         228  App's exec code 
.text                    0x104b030           0xdc         220  App's exec code 
.rodata                  0x104b10c           0xd8         216  Read-only const 
.text                    0x104b1e4           0xd8         216  App's exec code 
.text                    0x104b2bc           0xd0         208  App's exec code 
.text.ARBITER_Handler    0x104b38c           0xd0         208   
.text.z_readReg32        0x104b45c            0x4           4   
.text.floor              0x104b460           0xcc         204   
.text.PHY_GetTrxConfig   0x104b52c           0xc8         200   
.text.PHY_Init           0x104b5f4           0xc0         192   
.text.__SEGGER_RTL_floa  0x104b6b4           0xc0         192   
.rodata.str1.4           0x104b774           0xbc         188   
.text.write_all_tal_pib  0x104b830           0xbc         188   
.rodata.str1.4           0x104b8ec           0xb8         184   
.text.zbArbitrationUsec  0x104b9a4           0xb8         184   
.text                    0x104ba5c           0xb4         180  App's exec code 
.text.limit_tx_pwr       0x104bb10           0xb4         180   
.rodata                  0x104bbc4           0xb4         180  Read-only const 
.text.PHY_TxAckFrame     0x104bc78           0xac         172   
.text.PHY_StartContinuo  0x104bd24           0xac         172   
.text.__pop_int          0x104bdd0           0xac         172   
.text.__fmt_d            0x104be7c           0xa8         168   
.text                    0x104bf24           0xa0         160  App's exec code 
.text                    0x104bfc4           0x9c         156  App's exec code 
.text                    0x104c060           0x9c         156  App's exec code 
.text.tx_done_handling   0x104c0fc           0x98         152   
.text.handle_tx_end_irq  0x104c194           0x98         152   
.text                    0x104c22c           0x94         148  App's exec code 
.text.tx_frame           0x104c2c0           0x94         148   
.text.Reset_Handler      0x104c354           0x88         136   
.text                    0x104c3dc           0x88         136  App's exec code 
.text                    0x104c464           0x88         136  App's exec code 
.text.round              0x104c4ec           0x88         136   
.text                    0x104c574           0x84         132  App's exec code 
.text                    0x104c5f8           0x84         132  App's exec code 
.text.__simple_search_f  0x104c67c           0x84         132   
.text.__SEGGER_RTL_floa  0x104c700           0x84         132   
.text.__pad              0x104c784           0x84         132   
.text.__pop_ptr          0x104c808           0x7c         124   
.rodata                  0x104c884           0x78         120  Read-only const 
.rodata                  0x104c8fc           0x78         120  Read-only const 
.text.tal_trx_wakeup     0x104c974           0x78         120   
.text.__cvt_u            0x104c9ec           0x78         120   
.text                    0x104ca64           0x74         116  App's exec code 
.text.convert_phyTransm  0x104cad8           0x74         116   
.text.process_incoming_  0x104cb4c           0x74         116   
.text.__fmt_o            0x104cbc0           0x72         114   
.text.PHY_GenerateEnhan  0x104cc32            0x2           2   
.text                    0x104cc34           0x70         112  App's exec code 
.text.aclb_spi_read      0x104cca4           0x70         112   
.text.PHY_RxEnable       0x104cd14           0x70         112   
.text.aclb_spi_write     0x104cd84           0x6c         108   
.text                    0x104cdf0           0x68         104  App's exec code 
.text                    0x104ce58           0x68         104  App's exec code 
.text.PHY_Reset          0x104cec0           0x68         104   
.text.PHY_EdSample       0x104cf28           0x64         100   
.text                    0x104cf8c           0x60          96  App's exec code 
.text.ed_scan_done       0x104cfec           0x60          96   
.text.csma_continue      0x104d04c           0x60          96   
.text.cca_done_handling  0x104d0ac           0x60          96   
.text.__simple_malloc    0x104d10c           0x60          96   
.text.vsnprintf          0x104d16c           0x60          96   
.text.start_backoff      0x104d1cc           0x5c          92   
.text.__libc_start_init  0x104d228           0x5c          92   
.rodata                  0x104d284           0x58          88  Read-only const 
.text.switch_pll_on      0x104d2dc           0x58          88   
.text.phySetHpaTxpower   0x104d334           0x58          88   
.text.__shgetc           0x104d38c           0x58          88   
.text.__fmt_s            0x104d3e4           0x58          88   
.text.__fmt_u            0x104d43c           0x56          86   
.text.PHY_Tx2015FrameDo  0x104d492            0x2           2   
.text                    0x104d494           0x54          84  App's exec code 
.text.tal_start_retrans  0x104d4e8           0x54          84   
.text                    0x104d53c           0x54          84  App's exec code 
.text.stpncpy            0x104d590           0x54          84   
.text.ldexp              0x104d5e4           0x54          84   
.text.strtox             0x104d638           0x52          82   
.text.__dummy_init_tls   0x104d68a            0x2           2   
.text.trx_init           0x104d68c           0x50          80   
.text                    0x104d6dc           0x4c          76  App's exec code 
.text                    0x104d728           0x4c          76  App's exec code 
.text.init_tal_pib       0x104d774           0x4c          76   
.text.PHY_TrxSleep       0x104d7c0           0x4c          76   
.text.__aeabi_d2f        0x104d80c           0x4c          76   
.text._sbrk              0x104d858           0x4c          76   
.text.__aeabi_d2iz       0x104d8a4           0x4a          74   
.text.__toread           0x104d8ee           0x4a          74   
.text.tal_trx_sleep      0x104d938           0x48          72   
.text.cca_start          0x104d980           0x48          72   
.text.atoi               0x104d9c8           0x46          70   
.text.__dummy            0x104da0e            0x2           2   
.rodata.str1.4           0x104da10           0x44          68   
.text.handleAutoAck      0x104da54           0x44          68   
.text.PHY_StopContinuou  0x104da98           0x44          68   
.text.memmove            0x104dadc           0x44          68   
.text.__simple_free      0x104db20           0x44          68   
.text                    0x104db64           0x40          64  App's exec code 
.rodata.str1.4           0x104dba4           0x40          64   
.text.zigbeeArbReq       0x104dbe4           0x40          64   
.text.tal_ack_timeout_t  0x104dc24           0x40          64   
.text.frexp              0x104dc64           0x40          64   
.text                    0x104dca4           0x3c          60  App's exec code 
.text                    0x104dce0           0x3c          60  App's exec code 
.rodata.str1.4           0x104dd1c           0x3c          60   
.text.trx_ed_irq_handle  0x104dd58           0x3c          60   
.text.trx_irq_init       0x104dd94           0x3c          60   
.text.tal_trx_deep_slee  0x104ddd0           0x3c          60   
.text.__fmt_state        0x104de0c           0x3c          60   
.text.__aeabi_dcmple     0x104de48           0x3c          60   
.text.PHY_ConfigRxSensi  0x104de84           0x38          56   
.text.normalize_lqi      0x104debc           0x38          56   
.text.PHY_TxFrame        0x104def4           0x38          56   
.text.__pic32c_data_ini  0x104df2c           0x38          56   
.text.__aeabi_dcmpgt     0x104df64           0x38          56   
.text.__aeabi_dcmplt     0x104df9c           0x38          56   
.rodata.str1.4           0x104dfd4           0x34          52   
.text                    0x104e008           0x34          52  App's exec code 
.text.PHY_ConfigRxPromi  0x104e03c           0x34          52   
.text.PHY_ConvertTxPwrR  0x104e070           0x34          52   
.text.__aeabi_f2d        0x104e0a4           0x34          52   
.text.trx_reg_bit_write  0x104e0d8           0x32          50   
.text.trx_reg_bit_write  0x104e10a           0x32          50   
.text.trx_reg_bit_write  0x104e13c           0x32          50   
.text.trx_reg_bit_write  0x104e16e           0x32          50   
.text.trx_reg_bit_write  0x104e1a0           0x32          50   
.text.trx_reg_bit_write  0x104e1d2           0x32          50   
.text.trx_reg_bit_write  0x104e204           0x32          50   
.text.__aeabi_dcmpeq     0x104e236           0x32          50   
.rodata.str1.4           0x104e268           0x30          48   
.text.internal_tal_rese  0x104e298           0x30          48   
.text                    0x104e2c8           0x30          48  App's exec code 
.text._sbrk_init         0x104e2f8           0x30          48   
.rodata                  0x104e328           0x2c          44  Read-only const 
.text                    0x104e354           0x2c          44  App's exec code 
.rodata                  0x104e380           0x2c          44  Read-only const 
.text.PHY_ConfigAutoAck  0x104e3ac           0x2c          44   
.text.tal_timer_init     0x104e3d8           0x2c          44   
.text.z_reg_write8_slic  0x104e404           0x2c          44   
.text.stopAckTimeoutTim  0x104e430           0x2c          44   
.text.retransmissionTim  0x104e45c           0x2c          44   
.text.fma                0x104e488           0x2c          44   
.text.__pop_float        0x104e4b4           0x2a          42   
.text                    0x104e4e0           0x28          40  App's exec code 
.text.trx_reg_bit_read   0x104e508           0x28          40   
.text.trx_reset          0x104e530           0x28          40   
.text.PHY_TrxWakeup      0x104e558           0x28          40   
.text.trx_reg_bit_read   0x104e580           0x28          40   
.rodata.__SEGGER_RTL_fl  0x104e5a8           0x28          40   
.text.__uflow            0x104e5d0           0x28          40   
.text.__string_out       0x104e5f8           0x28          40   
.rodata                  0x104e620           0x24          36  Read-only const 
.text                    0x104e644           0x24          36  App's exec code 
.text.handle_ack_recept  0x104e668           0x24          36   
.text.__aeabi_d2uiz      0x104e68c           0x24          36   
.text.__aeabi_i2d        0x104e6b0           0x22          34   
.rodata.str1.4           0x104e6d4           0x20          32   
.rodata                  0x104e6f4           0x20          32  Read-only const 
.text.tal_timers_stop    0x104e714           0x20          32   
.text.trx_enable_dualmo  0x104e734           0x20          32   
.text._get_heap_left_sp  0x104e754           0x20          32   
.text.__dinit_copy       0x104e774           0x1e          30   
.rodata.str1.4           0x104e794           0x1c          28   
.text.PHY_GetTrxStatus   0x104e7b0           0x1c          28   
.text.tal_enable_zb_sub  0x104e7cc           0x1c          28   
.text.memcmp             0x104e7e8           0x1c          28   
.text.memcpy             0x104e804           0x1c          28   
.text.__memrchr          0x104e820           0x1c          28   
.text.__aeabi_ui2d       0x104e83c           0x1c          28   
.text.isxdigit           0x104e858           0x1c          28   
.text.vfprintf           0x104e874           0x1c          28   
.text.snprintf           0x104e890           0x1a          26   
.text.sprintf            0x104e8aa           0x1a          26   
.rodata.CSWTCH.8         0x104e8c4           0x19          25   
.rodata                  0x104e8e0           0x18          24  Read-only const 
.text                    0x104e8f8           0x18          24  App's exec code 
.text.z_do_bitwr32       0x104e910           0x18          24   
.text.cca_done_irq_hand  0x104e928           0x18          24   
.text.strlen             0x104e940           0x18          24   
.text.strrchr            0x104e958           0x18          24   
.text.__init_search_fl   0x104e970           0x18          24   
.text.rand               0x104e988           0x18          24   
.text.__shlim            0x104e9a0           0x18          24   
.text.strcmp             0x104e9b8           0x16          22   
.text.__expand_heap      0x104e9ce           0x16          22   
.rodata                  0x104e9e4           0x16          22  Read-only const 
.rodata                  0x104e9fc           0x14          20  Read-only const 
.text.trx_irq_flag_clea  0x104ea10           0x14          20   
.text.ackTimeoutTimerCa  0x104ea24           0x14          20   
.rodata                  0x104ea38           0x14          20  Read-only const 
.text.memset             0x104ea4c           0x14          20   
.text.strtol             0x104ea60           0x14          20   
.text.stpcpy             0x104ea74           0x14          20   
.text.__dinit_clear      0x104ea88           0x12          18   
.rodata                  0x104ea9c           0x10          16  Read-only const 
.rodata                  0x104eaac           0x10          16  Read-only const 
.text                    0x104eabc           0x10          16  App's exec code 
.rodata.str1.1           0x104eacc           0x10          16   
.rodata.str1.1           0x104eadc           0x10          16   
.text.trx_delay_micros   0x104eaec            0xe          14   
.text.tolower            0x104eafa            0xe          14   
.text.toupper            0x104eb08            0xe          14   
.text                    0x104eb18            0xc          12  App's exec code 
.rodata.str1.4           0x104eb24            0xc          12   
.text.PHY_GetSWVersion   0x104eb30            0xc          12   
.text.trx_reg_read       0x104eb3c            0xc          12   
.text.trx_reg_read       0x104eb48            0xc          12   
.text                    0x104eb54            0xc          12  App's exec code 
.text.strncpy            0x104eb60            0xc          12   
.text.srand              0x104eb6c            0xc          12   
.text.vsprintf           0x104eb78            0xc          12   
.text.strcpy             0x104eb84            0xc          12   
.text.tal_get_trx_statu  0x104eb90            0xa          10   
.text                    0x104eb9c            0x8           8  App's exec code 
.rodata                  0x104eba4            0x8           8  Read-only const 
.rodata                  0x104ebac            0x8           8  Read-only const 
.rodata.CSWTCH.74        0x104ebb4            0x8           8   
.text.__aeabi_dsub       0x104ebbc            0x8           8   
.rodata.str1.1           0x104ebc4            0x8           8   
.rodata.str1.1           0x104ebcc            0x7           7   
.text.trx_delay_loop     0x104ebd4            0x6           6   
.text.PHY_GetRSSIBaseVa  0x104ebda            0x6           6   
.text.z_reg_write32      0x104ebe0            0x4           4   
.text.z_reg_write32      0x104ebe4            0x4           4   
.text.__dummy_decompres  0x104ebe8            0x4           4   
.text                    0x104ebec            0x4           4  App's exec code 
      Total ROM used  :     0x4abde      306142  29.7% of 0xfc000
        --------------------------------------------------------------------------
         Total Program Memory used  :     0x4abde      306142  29.7% of 0xfc000
        --------------------------------------------------------------------------


RAM Data-Memory Usage
section                    address  length [bytes]      (dec)  Description
-------                 ----------  -------------------------  -----------
.bss                    0x20000000         0x1968        6504  Uninitialized data 
.bss                    0x20001968         0xa01c       40988  Uninitialized data 
.bss                    0x2000b984         0x126c        4716  Uninitialized data 
.bss                    0x2000cbf0          0xe70        3696  Uninitialized data 
.bss                    0x2000da60          0xd30        3376  Uninitialized data 
.bss                    0x2000e790          0xa10        2576  Uninitialized data 
.bss                    0x2000f1a0          0x674        1652  Uninitialized data 
.bss                    0x2000f814            0xc          12  Uninitialized data 
.bss                    0x2000f820          0x650        1616  Uninitialized data 
.bss                    0x2000fe70          0x510        1296  Uninitialized data 
.bss                    0x20010380          0x415        1045  Uninitialized data 
.bss.TAL_T_BOFF         0x20010795            0x1           1   
.bss.rxStart            0x20010796            0x1           1   
.bss.rcvd2015Frame      0x20010797            0x1           1   
.bss                    0x20010798          0x398         920  Uninitialized data 
.bss                    0x20010b30          0x388         904  Uninitialized data 
.bss                    0x20010eb8          0x37d         893  Uninitialized data 
.bss.sendSwAck          0x20011235            0x1           1   
.bss.mod_size.10247     0x20011236            0x1           1   
.bss.total_len.10248    0x20011237            0x1           1   
.bss                    0x20011238          0x37c         892  Uninitialized data 
.bss                    0x200115b4            0x4           4  Uninitialized data 
.bss                    0x200115b8          0x360         864  Uninitialized data 
.bss                    0x20011918          0x2c0         704  Uninitialized data 
.bss                    0x20011bd8          0x290         656  Uninitialized data 
.bss                    0x20011e68          0x238         568  Uninitialized data 
.bss                    0x200120a0          0x214         532  Uninitialized data 
.bss                    0x200122b4          0x208         520  Uninitialized data 
.bss                    0x200124bc            0x4           4  Uninitialized data 
.bss                    0x200124c0          0x1d4         468  Uninitialized data 
.bss                    0x20012694          0x1a4         420  Uninitialized data 
.bss                    0x20012838          0x1a3         419  Uninitialized data 
.bss                    0x200129db            0x1           1  Uninitialized data 
.bss                    0x200129dc          0x195         405  Uninitialized data 
.bss.k.10251            0x20012b71            0x1           1   
.bss.BE                 0x20012b72            0x1           1   
.bss.NB                 0x20012b73            0x1           1   
.bss                    0x20012b74          0x10c         268  Uninitialized data 
.bss                    0x20012c80          0x104         260  Uninitialized data 
.bss                    0x20012d84           0xf0         240  Uninitialized data 
.bss                    0x20012e74           0x8c         140  Uninitialized data 
.bss                    0x20012f00           0x78         120  Uninitialized data 
.bss                    0x20012f78           0x60          96  Uninitialized data 
.bss                    0x20012fd8           0x5c          92  Uninitialized data 
.bss                    0x20013034           0x5c          92  Uninitialized data 
.bss                    0x20013090           0x52          82  Uninitialized data 
.bss                    0x200130e2            0x1           1  Uninitialized data 
.bss.max_ed_level       0x200130e3            0x1           1   
.bss                    0x200130e4           0x50          80  Uninitialized data 
.bss                    0x20013134           0x4c          76  Uninitialized data 
.bss                    0x20013180           0x30          48  Uninitialized data 
.bss.phy_info           0x200131b0           0x24          36   
.bss.tal_pib            0x200131d4           0x1e          30   
.bss.TAL_RETRY_TIMER    0x200131f2            0x1           1   
.bss.TAL_T_ACK_TIMEOUT  0x200131f3            0x1           1   
.bss                    0x200131f4           0x1c          28  Uninitialized data 
.bss                    0x20013210           0x1c          28  Uninitialized data 
.bss                    0x2001322c           0x1c          28  Uninitialized data 
.bss                    0x20013248           0x1c          28  Uninitialized data 
.bss                    0x20013264           0x1c          28  Uninitialized data 
.bss.rec_frame_info     0x20013280           0x10          16   
.bss                    0x20013290            0xc          12  Uninitialized data 
.bss.tal_incoming_frame 0x2001329c            0xc          12   
.bss                    0x200132a8            0xc          12  Uninitialized data 
.bss                    0x200132b4            0x8           8  Uninitialized data 
.bss                    0x200132bc            0x8           8  Uninitialized data 
.bss                    0x200132c4            0x8           8  Uninitialized data 
.bss.enhAckFrame        0x200132cc            0x8           8   
.bss.immAckFrame        0x200132d4            0x8           8   
.bss                    0x200132dc            0x5           5  Uninitialized data 
.bss.tal_sw_retry_count 0x200132e1            0x1           1   
.bss.tal_sw_retry_no_cs 0x200132e2            0x1           1   
.bss.trx_trac_status    0x200132e3            0x1           1   
.bss.mac_frame_ptr      0x200132e4            0x4           4   
.bss.tal_frame_to_tx    0x200132e8            0x4           4   
.bss.tal_rx_buffer      0x200132ec            0x4           4   
.bss.sampler_counter    0x200132f0            0x4           4   
.bss.recEnhAckFrame     0x200132f4            0x4           4   
.bss.address.10250      0x200132f8            0x4           4   
.bss.write_data.10249   0x200132fc            0x4           4   
.bss.address.10204      0x20013300            0x4           4   
.bss.write_data.10203   0x20013304            0x4           4   
.bss                    0x20013308            0x4           4  Uninitialized data 
.bss                    0x2001330c            0x4           4  Uninitialized data 
.bss                    0x20013310            0x4           4  Uninitialized data 
.bss                    0x20013314            0x4           4  Uninitialized data 
.bss                    0x20013318            0x4           4  Uninitialized data 
.bss                    0x2001331c            0x4           4  Uninitialized data 
.bss                    0x20013320            0x4           4  Uninitialized data 
.bss                    0x20013324            0x3           3  Uninitialized data 
.bss.mod_size.10201     0x20013327            0x1           1   
.bss.total_len.10202    0x20013328            0x1           1   
.bss.k.10205            0x20013329            0x1           1   
.data                   0x2001332a            0x2           2  Initialized data 
.data                   0x2001332c           0x8c         140  Initialized data 
.data                   0x200133b8           0x64         100  Initialized data 
.data                   0x2001341c           0x28          40  Initialized data 
.data.phyACLBTxPowerHpa 0x20013444           0x20          32   
.data.phyTxPowerHpa     0x20013464           0x20          32   
.ramfunc.PCHE_Setup     0x20013484           0x20          32   
.data                   0x200134a4           0x10          16  Initialized data 
.data.tx_pwr_table_mpal 0x200134b4           0x10          16   
.data                   0x200134c4            0x6           6  Initialized data 
.data.kFcfAckRequested  0x200134ca            0x1           1   
.data.kFcfFrameVersion2 0x200134cb            0x1           1   
.data                   0x200134cc            0x4           4  Initialized data 
.data                   0x200134d0            0x4           4  Initialized data 
.data                   0x200134d4            0x4           4  Initialized data 
.data                   0x200134d8            0x4           4  Initialized data 
.data.kFcfFrameVersionM 0x200134dc            0x1           1   
.data.kFcfAckRequested  0x200134dd            0x1           1   
         Total RAM used  :     0x134de       79070  60.3% of 0x20000
        --------------------------------------------------------------------------
            Total Data Memory used  :     0x134de       79070  60.3% of 0x20000
        --------------------------------------------------------------------------


Dynamic Data-Memory Reservation
section                    address  length [bytes]      (dec)  Description
-------                 ----------  -------------------------  -----------
heap                    0x200134e0         0x3c00       15360  Reserved for heap 
stack                   0x200170f8         0x8ef8       36600  Reserved for stack 

        --------------------------------------------------------------------------

Microchip PIC32 Memory-Usage Report By Module

        text        data         bss         dec         hex    basename                                   filename
--------------------------------------------------------------------------------
       74496           0           0       74496       12300    drv_g3_macrt_bin.o                     build/default/production/_ext/1089588495/drv_g3_macrt_bin.o
         596           0       40988       41584        a270    heap_4.o                               build/default/production/_ext/1665200909/heap_4.o
       14432           0           0       14432        3860    aes.o                                  build/default/production/_ext/1716827871/aes.o
       11668           0         420       12088        2f38    ProtoLoadNg.o                          g3_lib_loadng.a
       11912           0          92       12004        2ee4    ipv6.o                                 build/default/production/_ext/1033058136/ipv6.o
       10484           4         904       11392        2c80    tcpip_manager.o                        build/default/production/_ext/1033058136/tcpip_manager.o
        7664           0        1652        9316        2464    MacRfLow.o                             g3_lib_mac_rf.a
        2576           0        6172        8748        222c    app_matrix_led.o                       build/default/production/_ext/1360937237/app_matrix_led.o
        3612           0        3696        7308        1c8c    mac_wrapper.o                          build/default/production/_ext/1570337448/mac_wrapper.o
        6984           6          56        7046        1b86    app_g3_management.o                    build/default/production/_ext/1360937237/app_g3_management.o
        7016           0          28        7044        1b84    udp.o                                  build/default/production/_ext/1033058136/udp.o
        6024           4         260        6288        1890    FreeRTOS_tasks.o                       build/default/production/_ext/404212886/FreeRTOS_tasks.o
        5624           0         240        5864        16e8    MacRfMib.o                             g3_lib_mac_rf.a
         824         140        4816        5780        1694    initialization.o                       build/default/production/_ext/1171490990/initialization.o
        2844           0        2576        5420        152c    Adp.o                                  g3_lib_adp.a
        5124           0           0        5124        1404    ProtoRFC6282.o                         g3_lib_adp.a
        5076          40           0        5116        13fc    tcpip_helpers.o                        build/default/production/_ext/1033058136/tcpip_helpers.o
        4532           0          28        4560        11d0    icmpv6.o                               build/default/production/_ext/1033058136/icmpv6.o
        3472           0        1045        4517        11a5    S_Nv-Chimera.o                         pds.a
        4372           0         120        4492        118c    ndp.o                                  build/default/production/_ext/1033058136/ndp.o
        4004          16         419        4439        1157    lbp_dev.o                              build/default/production/_ext/1534551086/lbp_dev.o
        4148           0           1        4149        1035    AdpMacInterface.o                      g3_lib_adp.a
        4044           0           0        4044         fcc    AdpCommon.o                            g3_lib_adp.a
         532           0        3376        3908         f44    routing_wrapper.o                      build/default/production/_ext/1534551086/routing_wrapper.o
        3888           0           0        3888         f30    ProtoLoadNg_GetSet.o                   g3_lib_loadng.a
        3296           0         568        3864         f18    MacLow.o                               g3_lib_mac_plc.a
        3720           0           0        3720         e88    AdpGetSet.o                            g3_lib_adp.a
        3196           0         468        3664         e50    pal_rf.o                               build/default/production/_ext/1278466877/pal_rf.o
        2628           2         864        3494         da6    sys_time.o                             build/default/production/_ext/101884895/sys_time.o
        1848           0        1616        3464         d88    drv_g3_macrt_local_comm.o              build/default/production/_ext/410113559/drv_g3_macrt_local_comm.o
        2992           0           0        2992         bb0    Proto6Lowpan.o                         g3_lib_adp.a
        2932           0           0        2932         b74    random.o                               build/default/production/_ext/1716827871/random.o
        2832           0           0        2832         b10    sha256.o                               build/default/production/_ext/1716827871/sha256.o
        2672           0          82        2754         ac2    MacMib.o                               g3_lib_mac_plc.a
        2592           0           0        2592         a20    queue.o                                build/default/production/_ext/404212886/queue.o
        1092           0        1296        2388         954    drv_plc_hal.o                          build/default/production/_ext/1014741959/drv_plc_hal.o
        2282          80           0        2362         93a    phy_pib.o                              lib-ieee802154_phy_pic32cxbz-v1.2.0.a
        1644           0         704        2348         92c    plib_sercom1_usart.o                   build/default/production/_ext/504274921/plib_sercom1_usart.o
        1416           0         893        2309         905    MacRfSublayer.o                        g3_lib_mac_rf.a
        2276           0          12        2288         8f0    rf_system.o                            pic32cx_bz2_device_support.a
        2236           0           9        2245         8c5    app_udp_responder.o                    build/default/production/_ext/1360937237/app_udp_responder.o
        1352           0         892        2244         8c4    MacSublayer.o                          g3_lib_mac_plc.a
        2092           0           0        2092         82c    eap_psk.o                              build/default/production/_ext/1534551086/eap_psk.o
        1932           3          38        1973         7b5    phy_rx.o                               lib-ieee802154_phy_pic32cxbz-v1.2.0.a
        1660         100         140        1900         76c    drv_mac_g3adp.o                        build/default/production/_ext/710515956/drv_mac_g3adp.o
        1882           1          16        1899         76b    phy_tx.o                               lib-ieee802154_phy_pic32cxbz-v1.2.0.a
        1500           0         268        1768         6e8    pal_plc.o                              build/default/production/_ext/977769160/pal_plc.o
        1760           0           0        1760         6e0    data_init                              data_init
        1636           0          28        1664         680    wlPdsDataServer.o                      pds.a
        1392           0           0        1392         570    srv_pcoup.o                            build/default/production/_ext/2064362748/srv_pcoup.o
        1320           0           6        1326         52e    info_block.o                           pic32cx_bz2_device_support.a
        1278           0           0        1278         4fe    intscan.o                              libc-musl.a
        1179           0          90        1269         4f5    phy.o                                  lib-ieee802154_phy_pic32cxbz-v1.2.0.a
        1232           0           0        1232         4d0    __fmt_fp.o                             libc-musl.a
        1224           0           0        1224         4c8    __fmt_a.o                              libc-musl.a
         260           0         920        1180         49c    bmm.o                                  build/default/production/_ext/1374435801/bmm.o
        1164           0           0        1164         48c    pow.o                                  libm-fast-emfloat.a
        1132           0           0        1132         46c    misc.o                                 build/default/production/_ext/1664057780/misc.o
         584           0         532        1116         45c    sys_console.o                          build/default/production/_ext/1832805299/sys_console.o
        1108           0           0        1108         454    cmac.o                                 build/default/production/_ext/1716827871/cmac.o
        1084           0           3        1087         43f    phy_init.o                             lib-ieee802154_phy_pic32cxbz-v1.2.0.a
        1038           0           0        1038         40e    __printf_core.o                        libc-musl.a
         948           0          76        1024         400    drv_plc_boot.o                         build/default/production/_ext/1014741959/drv_plc_boot.o
         920           0          96        1016         3f8    plib_dmac.o                            build/default/production/_ext/1865161661/plib_dmac.o
         592           0         405         997         3e5    pal.o                                  build/default/production/_ext/745501718/pal.o
         328           0         656         984         3d8    cipher_wrapper.o                       build/default/production/_ext/2135967589/cipher_wrapper.o
         962           0           0         962         3c2    phy_helper.o                           lib-ieee802154_phy_pic32cxbz-v1.2.0.a
         960           0           0         960         3c0    ProtoLoadNg_RouteCost_CompositeMetric.og3_lib_loadng.a
         944           0           1         945         3b1    phy_irq_handler.o                      lib-ieee802154_phy_pic32cxbz-v1.2.0.a
         852           0          80         932         3a4    mac_common.o                           build/default/production/_ext/1632721610/mac_common.o
         920           0           0         920         398    MCHP_Crypto_Aead_Cipher.o              build/default/production/_ext/1726652707/MCHP_Crypto_Aead_Cipher.o
         920           0           0         920         398    tcpip_heap_internal.o                  build/default/production/_ext/1033058136/tcpip_heap_internal.o
         760           0           4         764         2fc    D_Nv.o                                 pds.a
         734           0          11         745         2e9    tfa.o                                  lib-ieee802154_phy_pic32cxbz-v1.2.0.a
         708           0          28         736         2e0    app_storage_wbz451h.o                  build/default/production/_ext/1360937237/app_storage_wbz451h.o
         668           0          60         728         2d8    app_tcpip_management.o                 build/default/production/_ext/1360937237/app_tcpip_management.o
         704           0           4         708         2c4    tcpip_packet.o                         build/default/production/_ext/1033058136/tcpip_packet.o
         708           0           0         708         2c4    _udivmoddi4.o                          libgcc.a
         680           0           8         688         2b0    plib_nvm.o                             build/default/production/_ext/60176403/plib_nvm.o
         616           0          20         636         27c    tasks.o                                build/default/production/_ext/1171490990/tasks.o
         528           0          92         620         26c    drv_g3_macrt.o                         build/default/production/_ext/410113559/drv_g3_macrt.o
         604           0           0         604         25c    srv_queue.o                            build/default/production/_ext/2065812886/srv_queue.o
         588           0           0         588         24c    MCHP_Crypto_Aead_WolfCryptWrapper.o    build/default/production/_ext/1726652707/MCHP_Crypto_Aead_WolfCryptWrapper.o
         574           0           0         574         23e    __aeabi_dadd.o                         libm-fast-emfloat.a
          52           0         520         572         23c    aes_wrapper.o                          build/default/production/_ext/2135967589/aes_wrapper.o
         552           0           0         552         228    exp.o                                  libm-fast-emfloat.a
         534           0           0         534         216    __aeabi_ddiv.o                         libm-fast-emfloat.a
         520           0           0         520         208    plib_sercom2_spi_master.o              build/default/production/_ext/17022449/plib_sercom2_spi_master.o
         508           4           0         512         200    port.o                                 build/default/production/_ext/246609638/port.o
         496           0           0         496         1f0    log.o                                  libm-fast-emfloat.a
         432           0          12         444         1bc    sys_console_uart.o                     build/default/production/_ext/1832805299/sys_console_uart.o
         428           0           0         428         1ac    MCHP_Crypto_Sym_Cipher.o               build/default/production/_ext/1726652707/MCHP_Crypto_Sym_Cipher.o
         424           0           0         424         1a8    lbp_encode_decode.o                    build/default/production/_ext/1534551086/lbp_encode_decode.o
         400           0           0         400         190    AdpData.o                              g3_lib_adp.a
         372           0           0         372         174    ProtoLoadNg_RouteCost_CapacityMetric.o g3_lib_loadng.a
         372           0           0         372         174    osal_freertos.o                        build/default/production/_ext/1529399856/osal_freertos.o
         368           0           0         368         170    phy_pwr_mgmt.o                         lib-ieee802154_phy_pic32cxbz-v1.2.0.a
         348           0           0         348         15c    MCHP_Crypto_Sym_WolfcryptWrapper.o     build/default/production/_ext/1726652707/MCHP_Crypto_Sym_WolfcryptWrapper.o
         328           0           0         328         148    helpers.o                              build/default/production/_ext/1033058136/helpers.o
         324           0           0         324         144    rf.o                                   pic32cx_bz2_device_support.a
         312           0           0         312         138    plib_clk.o                             build/default/production/_ext/60165520/plib_clk.o
         308           0           0         308         134    MCHP_Crypto_Mac_Cipher.o               build/default/production/_ext/1726652707/MCHP_Crypto_Mac_Cipher.o
         304           0           0         304         130    __aeabi_dmul.o                         libm-fast-emfloat.a
         288           0           8         296         128    plib_tc0.o                             build/default/production/_ext/829342655/plib_tc0.o
         292           0           0         292         124    plib_nvic.o                            build/default/production/_ext/1865468468/plib_nvic.o
         292           0           0         292         124    __fmt_x.o                              libc-musl.a
         208           0          48         256         100    plib_eic.o                             build/default/production/_ext/60167341/plib_eic.o
         228           0           0         228          e4    qmm.o                                  build/default/production/_ext/874725666/qmm.o
         224           0           4         228          e4    lite_free.o                            liblmalloc-musl.a
         226           0           0         226          e2    interrupts.o                           build/default/production/_ext/1171490990/interrupts.o
         220           0           0         220          dc    osal_freertos_extend.o                 build/default/production/_ext/1529399856/osal_freertos_extend.o
         216           0           0         216          d8    info_block_plat.o                      pic32cx_bz2_device_support.a
         206           0           5         211          d3    phy_ed.o                               lib-ieee802154_phy_pic32cxbz-v1.2.0.a
         204           0           0         204          cc    floor.o                                libm-fast-emfloat.a
         200           0           0         200          c8    tcpip_notify.o                         build/default/production/_ext/1033058136/tcpip_notify.o
         192           0           0         192          c0    __SEGGER_RTL_float64_PolyEvalP.o       libm-fast-emfloat.a
         180           0           0         180          b4    MCHP_Crypto_Mac_WolfCryptWrapper.o     build/default/production/_ext/1726652707/MCHP_Crypto_Mac_WolfCryptWrapper.o
         172           0           0         172          ac    __pop_int.o                            libc-musl.a
         156           0          12         168          a8    sbrk.o                                 libpic32c.a
         168           0           0         168          a8    __fmt_d.o                              libc-musl.a
         156           0           8         164          a4    sys_time_h2_adapter.o                  build/default/production/_ext/753841488/sys_time_h2_adapter.o
         160           0           0         160          a0    AdpLbp.o                               g3_lib_adp.a
         156           0           0         156          9c    list.o                                 build/default/production/_ext/404212886/list.o
         148           0           0         148          94    srv_random.o                           build/default/production/_ext/373899042/srv_random.o
         136           0           4         140          8c    wlPdsInit.o                            pds.a
         138           0           0         138          8a    startup_xc32.o                         build/default/production/_ext/1171490990/startup_xc32.o
         136           0           0         136          88    round.o                                libm-fast-emfloat.a
         136           0           0         136          88    AdpNetwork.o                           g3_lib_adp.a
         132           0           0         132          84    __SEGGER_RTL_float64_PolyEvalQ.o       libm-fast-emfloat.a
         132           0           0         132          84    ProtoLoadNg_RouteCost.o                g3_lib_loadng.a
         132           0           0         132          84    plib_gpio.o                            build/default/production/_ext/1865254177/plib_gpio.o
         124           0           0         124          7c    __pop_ptr.o                            libc-musl.a
         120           0           0         120          78    __cvt_u.o                              libc-musl.a
         116           0           0         116          74    AdpDiscovery.o                         g3_lib_adp.a
         114           0           0         114          72    __fmt_o.o                              libc-musl.a
         112           0           0         112          70    sys_int.o                              build/default/production/_ext/1881668453/sys_int.o
         112           0           0         112          70    shgetc.o                               libc-musl.a
         112           0           0         112          70    phy_rx_enable.o                        lib-ieee802154_phy_pic32cxbz-v1.2.0.a
          96           0           8         104          68    sys_debug.o                            build/default/production/_ext/944882569/sys_debug.o
         104           0           0         104          68    plib_wdt.o                             build/default/production/_ext/60184501/plib_wdt.o
         104           0           0         104          68    AdpReset.o                             g3_lib_adp.a
         102           0           0         102          66    strtol.o                               libc-musl.a
          72           0          28         100          64    crtbegin.o                             c:/program files/microchip/xc32/v4.60/bin/bin/../../lib/gcc/pic32c/8.3.1/thumb/v7e-m+fp/hard/crtbegin.o
          96           4           0         100          64    lite_malloc.o                          liblmalloc-musl.a
          96           0           0          96          60    vsnprintf.o                            libc-musl.a
          95           0           0          95          5f    __fmt_s.o                              libc-musl.a
          94           0           0          94          5e    __libc_start_main.o                    libc-musl.a
          84           0           3          87          57    MacConstants.o                         g3_lib_mac_plc.a
          82           0           4          86          56    data_init.o                            libpic32c.a
          86           0           0          86          56    __fmt_u.o                              libc-musl.a
          84           0           0          84          54    app_idle_task.o                        build/default/production/_ext/1360937237/app_idle_task.o
          84           0           0          84          54    stpncpy.o                              libc-size-musl.a
          84           0           0          84          54    ldexp.o                                libm-fast-emfloat.a
          84           0           0          84          54    pmu_dvr.o                              pic32cx_bz2_device_support.a
           0           0          80          80          50    libc.o                                 libc-musl.a
          76           0           0          76          4c    __aeabi_d2f.o                          libm-fast-emfloat.a
          76           0           0          76          4c    freertos_hooks.o                       build/default/production/_ext/1171490990/freertos_hooks.o
          74           0           0          74          4a    __toread.o                             libc-musl.a
          74           0           0          74          4a    __aeabi_d2iz.o                         libm-fast-emfloat.a
          70           0           0          70          46    atoi.o                                 libc-musl.a
          68           0           0          68          44    memmove.o                              libc-size-musl.a
          64           0           0          64          40    frexp.o                                libm-fast-emfloat.a
          60           0           0          60          3c    phy_task.o                             build/default/production/_ext/957911548/phy_task.o
          60           0           0          60          3c    __aeabi_dcmple.o                       libm-fast-emfloat.a
          60           0           0          60          3c    sys_dma.o                              build/default/production/_ext/14461671/sys_dma.o
          56           0           0          56          38    __aeabi_dcmplt.o                       libm-fast-emfloat.a
          56           0           0          56          38    __aeabi_dcmpgt.o                       libm-fast-emfloat.a
          52           0           0          52          34    __aeabi_f2d.o                          libm-fast-emfloat.a
          50           0           0          50          32    __aeabi_dcmpeq.o                       libm-fast-emfloat.a
          48           0           0          48          30    _aeabi_uldivmod.o                      libgcc.a
          44           0           0          44          2c    AdpRouteDiscovery.o                    g3_lib_adp.a
          44           0           0          44          2c    fma.o                                  libm-fast-emfloat.a
          42           0           0          42          2a    __pop_float.o                          libc-musl.a
          40           0           0          40          28    __SEGGER_RTL_float64_Log.o             libm-fast-emfloat.a
          40           0           0          40          28    tcpip_heap_alloc.o                     build/default/production/_ext/1033058136/tcpip_heap_alloc.o
          36           0           4          40          28    rand.o                                 libc-musl.a
          40           0           0          40          28    __uflow.o                              libc-musl.a
          36           0           0          36          24    plib_trng.o                            build/default/production/_ext/1865643529/plib_trng.o
          36           0           0          36          24    __aeabi_d2uiz.o                        libm-fast-emfloat.a
          34           0           0          34          22    __aeabi_i2d.o                          libm-fast-emfloat.a
          30           0           0          30          1e    pic32_data_init_copy.o                 libpic32c.a
          28           0           0          28          1c    memcpy.o                               libc-size-musl.a
          28           0           0          28          1c    memcmp.o                               libc-size-musl.a
          28           0           0          28          1c    vfprintf.o                             libc-musl.a
          28           0           0          28          1c    isxdigit.o                             libc-musl.a
          28           0           0          28          1c    __aeabi_ui2d.o                         libm-fast-emfloat.a
          28           0           0          28          1c    memrchr.o                              libc-size-musl.a
          26           0           0          26          1a    sprintf.o                              libc-musl.a
          26           0           0          26          1a    snprintf.o                             libc-musl.a
          24           0           0          24          18    strlen.o                               libc-size-musl.a
          24           0           0          24          18    strrchr.o                              libc-size-musl.a
          24           0           0          24          18    exceptions.o                           build/default/production/_ext/1171490990/exceptions.o
          22           0           0          22          16    strcmp.o                               libc-size-musl.a
          22           0           0          22          16    expand_heap.o                          libc-musl.a
          20           0           0          20          14    memset.o                               libc-size-musl.a
          20           0           0          20          14    stpcpy.o                               libc-size-musl.a
          18           0           0          18          12    pic32_data_init_clear.o                libpic32c.a
          16           0           0          16          10    main.o                                 build/default/production/_ext/1360937237/main.o
          16           0           0          16          10    crtn.o                                 c:/program files/microchip/xc32/v4.60/bin/bin/../../lib/gcc/pic32c/8.3.1/thumb/v7e-m+fp/hard/crtn.o
          14           0           0          14           e    tolower.o                              libc-musl.a
          14           0           0          14           e    toupper.o                              libc-musl.a
          12           0           0          12           c    strncpy.o                              libc-size-musl.a
          12           0           0          12           c    ProtoLoadNg_RouteCost_HopCount.o       g3_lib_loadng.a
          12           0           0          12           c    strcpy.o                               libc-size-musl.a
          12           0           0          12           c    vsprintf.o                             libc-musl.a
          12           0           0          12           c    bsp.o                                  build/default/production/_ext/1434821282/bsp.o
           8           0           0           8           8    __aeabi_dsub.o                         libm-fast-emfloat.a
           8           0           0           8           8    phy_rx_frame_cb.o                      build/default/production/_ext/957911548/phy_rx_frame_cb.o
           8           0           0           8           8    crti.o                                 c:/program files/microchip/xc32/v4.60/bin/bin/../../lib/gcc/pic32c/8.3.1/thumb/v7e-m+fp/hard/crti.o
           8           0           0           8           8    phy_frame_handling.o                   lib-ieee802154_phy_pic32cxbz-v1.2.0.a
           4           0           0           4           4    plib_evsys.o                           build/default/production/_ext/1986646378/plib_evsys.o
           0           0           4           4           4    __errno_location.o                     libc-musl.a
           4           0           0           4           4    phy_ed_end_cb.o                        build/default/production/_ext/957911548/phy_ed_end_cb.o
           0           0           4           4           4    __environ.o                            libc-musl.a
           4           0           0           4           4    _dvmd_tls.o                            libgcc.a
--------------------------------------------------------------------------------
      306426         404       78631      385461       5e1b5    dist/default/production/g3_device_udp_wbz451h_pl460.X.production.elf


Discarded input sections

 .text          0x0000000000000000        0x0 c:/program files/microchip/xc32/v4.60/bin/bin/../../lib/gcc/pic32c/8.3.1/thumb/v7e-m+fp/hard/crti.o
 .data          0x0000000000000000        0x0 c:/program files/microchip/xc32/v4.60/bin/bin/../../lib/gcc/pic32c/8.3.1/thumb/v7e-m+fp/hard/crti.o
 .bss           0x0000000000000000        0x0 c:/program files/microchip/xc32/v4.60/bin/bin/../../lib/gcc/pic32c/8.3.1/thumb/v7e-m+fp/hard/crti.o
 .xc_stack_usage.hdr
                0x0000000000000000        0xe c:/program files/microchip/xc32/v4.60/bin/bin/../../lib/gcc/pic32c/8.3.1/thumb/v7e-m+fp/hard/crti.o
 .xc_stack_usage
                0x0000000000000000       0x26 c:/program files/microchip/xc32/v4.60/bin/bin/../../lib/gcc/pic32c/8.3.1/thumb/v7e-m+fp/hard/crti.o
 .data          0x0000000000000000        0x4 c:/program files/microchip/xc32/v4.60/bin/bin/../../lib/gcc/pic32c/8.3.1/thumb/v7e-m+fp/hard/crtbegin.o
 .xc_stack_usage
                0x0000000000000000       0x3c c:/program files/microchip/xc32/v4.60/bin/bin/../../lib/gcc/pic32c/8.3.1/thumb/v7e-m+fp/hard/crtbegin.o
 .xc_stack_usage.hdr
                0x0000000000000000        0xe c:/program files/microchip/xc32/v4.60/bin/bin/../../lib/gcc/pic32c/8.3.1/thumb/v7e-m+fp/hard/crtbegin.o
 .data          0x0000000000000000        0x0 build/default/production/_ext/1434821282/bsp.o
 .bss           0x0000000000000000        0x0 build/default/production/_ext/1434821282/bsp.o
 .data          0x0000000000000000        0x0 build/default/production/_ext/1726652707/MCHP_Crypto_Aead_WolfCryptWrapper.o
 .bss           0x0000000000000000        0x0 build/default/production/_ext/1726652707/MCHP_Crypto_Aead_WolfCryptWrapper.o
 .text          0x0000000000000000       0x50 build/default/production/_ext/1726652707/MCHP_Crypto_RNG.o
 .data          0x0000000000000000        0x0 build/default/production/_ext/1726652707/MCHP_Crypto_RNG.o
 .bss           0x0000000000000000        0x0 build/default/production/_ext/1726652707/MCHP_Crypto_RNG.o
 .debug_info    0x0000000000000000      0x204 build/default/production/_ext/1726652707/MCHP_Crypto_RNG.o
 .debug_abbrev  0x0000000000000000       0xea build/default/production/_ext/1726652707/MCHP_Crypto_RNG.o
 .debug_loc     0x0000000000000000      0x352 build/default/production/_ext/1726652707/MCHP_Crypto_RNG.o
 .debug_aranges
                0x0000000000000000       0x20 build/default/production/_ext/1726652707/MCHP_Crypto_RNG.o
 .debug_line    0x0000000000000000      0x1a7 build/default/production/_ext/1726652707/MCHP_Crypto_RNG.o
 .debug_str     0x0000000000000000      0x4c9 build/default/production/_ext/1726652707/MCHP_Crypto_RNG.o
 .comment       0x0000000000000000       0x2c build/default/production/_ext/1726652707/MCHP_Crypto_RNG.o
 .debug_frame   0x0000000000000000       0x44 build/default/production/_ext/1726652707/MCHP_Crypto_RNG.o
 .ARM.attributes
                0x0000000000000000       0x34 build/default/production/_ext/1726652707/MCHP_Crypto_RNG.o
 .text          0x0000000000000000        0x0 build/default/production/_ext/1726652707/MCHP_Crypto_Hash_WolfcryptWrapper.o
 .data          0x0000000000000000        0x0 build/default/production/_ext/1726652707/MCHP_Crypto_Hash_WolfcryptWrapper.o
 .bss           0x0000000000000000        0x0 build/default/production/_ext/1726652707/MCHP_Crypto_Hash_WolfcryptWrapper.o
 .debug_info    0x0000000000000000       0x79 build/default/production/_ext/1726652707/MCHP_Crypto_Hash_WolfcryptWrapper.o
 .debug_abbrev  0x0000000000000000       0x26 build/default/production/_ext/1726652707/MCHP_Crypto_Hash_WolfcryptWrapper.o
 .debug_aranges
                0x0000000000000000       0x18 build/default/production/_ext/1726652707/MCHP_Crypto_Hash_WolfcryptWrapper.o
 .debug_line    0x0000000000000000       0x1d build/default/production/_ext/1726652707/MCHP_Crypto_Hash_WolfcryptWrapper.o
 .debug_str     0x0000000000000000      0x2c6 build/default/production/_ext/1726652707/MCHP_Crypto_Hash_WolfcryptWrapper.o
 .comment       0x0000000000000000       0x2c build/default/production/_ext/1726652707/MCHP_Crypto_Hash_WolfcryptWrapper.o
 .ARM.attributes
                0x0000000000000000       0x39 build/default/production/_ext/1726652707/MCHP_Crypto_Hash_WolfcryptWrapper.o
 .text          0x0000000000000000        0x0 build/default/production/_ext/1726652707/MCHP_Crypto_DigSign.o
 .data          0x0000000000000000        0x0 build/default/production/_ext/1726652707/MCHP_Crypto_DigSign.o
 .bss           0x0000000000000000        0x0 build/default/production/_ext/1726652707/MCHP_Crypto_DigSign.o
 .debug_info    0x0000000000000000       0x79 build/default/production/_ext/1726652707/MCHP_Crypto_DigSign.o
 .debug_abbrev  0x0000000000000000       0x26 build/default/production/_ext/1726652707/MCHP_Crypto_DigSign.o
 .debug_aranges
                0x0000000000000000       0x18 build/default/production/_ext/1726652707/MCHP_Crypto_DigSign.o
 .debug_line    0x0000000000000000       0x1d build/default/production/_ext/1726652707/MCHP_Crypto_DigSign.o
 .debug_str     0x0000000000000000      0x2b8 build/default/production/_ext/1726652707/MCHP_Crypto_DigSign.o
 .comment       0x0000000000000000       0x2c build/default/production/_ext/1726652707/MCHP_Crypto_DigSign.o
 .ARM.attributes
                0x0000000000000000       0x39 build/default/production/_ext/1726652707/MCHP_Crypto_DigSign.o
 .text          0x0000000000000000        0x0 build/default/production/_ext/1726652707/MCHP_Crypto_Kas.o
 .data          0x0000000000000000        0x0 build/default/production/_ext/1726652707/MCHP_Crypto_Kas.o
 .bss           0x0000000000000000        0x0 build/default/production/_ext/1726652707/MCHP_Crypto_Kas.o
 .debug_info    0x0000000000000000       0x79 build/default/production/_ext/1726652707/MCHP_Crypto_Kas.o
 .debug_abbrev  0x0000000000000000       0x26 build/default/production/_ext/1726652707/MCHP_Crypto_Kas.o
 .debug_aranges
                0x0000000000000000       0x18 build/default/production/_ext/1726652707/MCHP_Crypto_Kas.o
 .debug_line    0x0000000000000000       0x1d build/default/production/_ext/1726652707/MCHP_Crypto_Kas.o
 .debug_str     0x0000000000000000      0x2b4 build/default/production/_ext/1726652707/MCHP_Crypto_Kas.o
 .comment       0x0000000000000000       0x2c build/default/production/_ext/1726652707/MCHP_Crypto_Kas.o
 .ARM.attributes
                0x0000000000000000       0x39 build/default/production/_ext/1726652707/MCHP_Crypto_Kas.o
 .data          0x0000000000000000        0x0 build/default/production/_ext/1726652707/MCHP_Crypto_Mac_WolfCryptWrapper.o
 .bss           0x0000000000000000        0x0 build/default/production/_ext/1726652707/MCHP_Crypto_Mac_WolfCryptWrapper.o
 .text          0x0000000000000000        0x0 build/default/production/_ext/1726652707/MCHP_Crypto_DigSign_WolfcryptWrapper.o
 .data          0x0000000000000000        0x0 build/default/production/_ext/1726652707/MCHP_Crypto_DigSign_WolfcryptWrapper.o
 .bss           0x0000000000000000        0x0 build/default/production/_ext/1726652707/MCHP_Crypto_DigSign_WolfcryptWrapper.o
 .debug_info    0x0000000000000000       0x79 build/default/production/_ext/1726652707/MCHP_Crypto_DigSign_WolfcryptWrapper.o
 .debug_abbrev  0x0000000000000000       0x26 build/default/production/_ext/1726652707/MCHP_Crypto_DigSign_WolfcryptWrapper.o
 .debug_aranges
                0x0000000000000000       0x18 build/default/production/_ext/1726652707/MCHP_Crypto_DigSign_WolfcryptWrapper.o
 .debug_line    0x0000000000000000       0x1d build/default/production/_ext/1726652707/MCHP_Crypto_DigSign_WolfcryptWrapper.o
 .debug_str     0x0000000000000000      0x2c9 build/default/production/_ext/1726652707/MCHP_Crypto_DigSign_WolfcryptWrapper.o
 .comment       0x0000000000000000       0x2c build/default/production/_ext/1726652707/MCHP_Crypto_DigSign_WolfcryptWrapper.o
 .ARM.attributes
                0x0000000000000000       0x39 build/default/production/_ext/1726652707/MCHP_Crypto_DigSign_WolfcryptWrapper.o
 .text          0x0000000000000000        0x0 build/default/production/_ext/1726652707/MCHP_Crypto_Kas_WolfcryptWrapper.o
 .data          0x0000000000000000        0x0 build/default/production/_ext/1726652707/MCHP_Crypto_Kas_WolfcryptWrapper.o
 .bss           0x0000000000000000        0x0 build/default/production/_ext/1726652707/MCHP_Crypto_Kas_WolfcryptWrapper.o
 .debug_info    0x0000000000000000       0x79 build/default/production/_ext/1726652707/MCHP_Crypto_Kas_WolfcryptWrapper.o
 .debug_abbrev  0x0000000000000000       0x26 build/default/production/_ext/1726652707/MCHP_Crypto_Kas_WolfcryptWrapper.o
 .debug_aranges
                0x0000000000000000       0x18 build/default/production/_ext/1726652707/MCHP_Crypto_Kas_WolfcryptWrapper.o
 .debug_line    0x0000000000000000       0x1d build/default/production/_ext/1726652707/MCHP_Crypto_Kas_WolfcryptWrapper.o
 .debug_str     0x0000000000000000      0x2c5 build/default/production/_ext/1726652707/MCHP_Crypto_Kas_WolfcryptWrapper.o
 .comment       0x0000000000000000       0x2c build/default/production/_ext/1726652707/MCHP_Crypto_Kas_WolfcryptWrapper.o
 .ARM.attributes
                0x0000000000000000       0x39 build/default/production/_ext/1726652707/MCHP_Crypto_Kas_WolfcryptWrapper.o
 .text          0x0000000000000000       0x4c build/default/production/_ext/1726652707/MCHP_Crypto_RNG_WolfcryptWrapper.o
 .data          0x0000000000000000        0x0 build/default/production/_ext/1726652707/MCHP_Crypto_RNG_WolfcryptWrapper.o
 .bss           0x0000000000000000        0x0 build/default/production/_ext/1726652707/MCHP_Crypto_RNG_WolfcryptWrapper.o
 .debug_info    0x0000000000000000      0x805 build/default/production/_ext/1726652707/MCHP_Crypto_RNG_WolfcryptWrapper.o
 .debug_abbrev  0x0000000000000000      0x15a build/default/production/_ext/1726652707/MCHP_Crypto_RNG_WolfcryptWrapper.o
 .debug_loc     0x0000000000000000      0x1a3 build/default/production/_ext/1726652707/MCHP_Crypto_RNG_WolfcryptWrapper.o
 .debug_aranges
                0x0000000000000000       0x20 build/default/production/_ext/1726652707/MCHP_Crypto_RNG_WolfcryptWrapper.o
 .debug_line    0x0000000000000000      0x1be build/default/production/_ext/1726652707/MCHP_Crypto_RNG_WolfcryptWrapper.o
 .debug_str     0x0000000000000000      0xf22 build/default/production/_ext/1726652707/MCHP_Crypto_RNG_WolfcryptWrapper.o
 .comment       0x0000000000000000       0x2c build/default/production/_ext/1726652707/MCHP_Crypto_RNG_WolfcryptWrapper.o
 .debug_frame   0x0000000000000000       0x38 build/default/production/_ext/1726652707/MCHP_Crypto_RNG_WolfcryptWrapper.o
 .ARM.attributes
                0x0000000000000000       0x34 build/default/production/_ext/1726652707/MCHP_Crypto_RNG_WolfcryptWrapper.o
 .data          0x0000000000000000        0x0 build/default/production/_ext/1726652707/MCHP_Crypto_Sym_WolfcryptWrapper.o
 .bss           0x0000000000000000        0x0 build/default/production/_ext/1726652707/MCHP_Crypto_Sym_WolfcryptWrapper.o
 .data          0x0000000000000000        0x0 build/default/production/_ext/1726652707/MCHP_Crypto_Aead_Cipher.o
 .bss           0x0000000000000000        0x0 build/default/production/_ext/1726652707/MCHP_Crypto_Aead_Cipher.o
 .text          0x0000000000000000        0x0 build/default/production/_ext/1726652707/MCHP_Crypto_Hash.o
 .data          0x0000000000000000        0x0 build/default/production/_ext/1726652707/MCHP_Crypto_Hash.o
 .bss           0x0000000000000000        0x0 build/default/production/_ext/1726652707/MCHP_Crypto_Hash.o
 .debug_info    0x0000000000000000       0x79 build/default/production/_ext/1726652707/MCHP_Crypto_Hash.o
 .debug_abbrev  0x0000000000000000       0x26 build/default/production/_ext/1726652707/MCHP_Crypto_Hash.o
 .debug_aranges
                0x0000000000000000       0x18 build/default/production/_ext/1726652707/MCHP_Crypto_Hash.o
 .debug_line    0x0000000000000000       0x1d build/default/production/_ext/1726652707/MCHP_Crypto_Hash.o
 .debug_str     0x0000000000000000      0x2b5 build/default/production/_ext/1726652707/MCHP_Crypto_Hash.o
 .comment       0x0000000000000000       0x2c build/default/production/_ext/1726652707/MCHP_Crypto_Hash.o
 .ARM.attributes
                0x0000000000000000       0x39 build/default/production/_ext/1726652707/MCHP_Crypto_Hash.o
 .data          0x0000000000000000        0x0 build/default/production/_ext/1726652707/MCHP_Crypto_Mac_Cipher.o
 .bss           0x0000000000000000        0x0 build/default/production/_ext/1726652707/MCHP_Crypto_Mac_Cipher.o
 .data          0x0000000000000000        0x0 build/default/production/_ext/1726652707/MCHP_Crypto_Sym_Cipher.o
 .bss           0x0000000000000000        0x0 build/default/production/_ext/1726652707/MCHP_Crypto_Sym_Cipher.o
 .data          0x0000000000000000        0x0 build/default/production/_ext/745501718/pal.o
 .text          0x0000000000000000        0x4 build/default/production/_ext/957911548/phy_tx_frame_done_cb.o
 .data          0x0000000000000000        0x0 build/default/production/_ext/957911548/phy_tx_frame_done_cb.o
 .bss           0x0000000000000000        0x0 build/default/production/_ext/957911548/phy_tx_frame_done_cb.o
 .debug_info    0x0000000000000000      0x1b9 build/default/production/_ext/957911548/phy_tx_frame_done_cb.o
 .debug_abbrev  0x0000000000000000       0xbe build/default/production/_ext/957911548/phy_tx_frame_done_cb.o
 .debug_aranges
                0x0000000000000000       0x20 build/default/production/_ext/957911548/phy_tx_frame_done_cb.o
 .debug_line    0x0000000000000000      0x15c build/default/production/_ext/957911548/phy_tx_frame_done_cb.o
 .debug_str     0x0000000000000000      0x43c build/default/production/_ext/957911548/phy_tx_frame_done_cb.o
 .comment       0x0000000000000000       0x2c build/default/production/_ext/957911548/phy_tx_frame_done_cb.o
 .debug_frame   0x0000000000000000       0x20 build/default/production/_ext/957911548/phy_tx_frame_done_cb.o
 .ARM.attributes
                0x0000000000000000       0x34 build/default/production/_ext/957911548/phy_tx_frame_done_cb.o
 .data          0x0000000000000000        0x0 build/default/production/_ext/957911548/phy_ed_end_cb.o
 .bss           0x0000000000000000        0x0 build/default/production/_ext/957911548/phy_ed_end_cb.o
 .data          0x0000000000000000        0x0 build/default/production/_ext/957911548/phy_task.o
 .bss           0x0000000000000000        0x0 build/default/production/_ext/957911548/phy_task.o
 .data          0x0000000000000000        0x0 build/default/production/_ext/957911548/phy_rx_frame_cb.o
 .bss           0x0000000000000000        0x0 build/default/production/_ext/957911548/phy_rx_frame_cb.o
 .data          0x0000000000000000        0x0 build/default/production/_ext/1374435801/bmm.o
 .data          0x0000000000000000        0x0 build/default/production/_ext/874725666/qmm.o
 .bss           0x0000000000000000        0x0 build/default/production/_ext/874725666/qmm.o
 .data          0x0000000000000000        0x0 build/default/production/_ext/1014741959/drv_plc_boot.o
 .data          0x0000000000000000        0x0 build/default/production/_ext/1014741959/drv_plc_hal.o
 .text          0x0000000000000000        0x0 build/default/production/_ext/1089588495/drv_g3_macrt_bin.o
 .data          0x0000000000000000        0x0 build/default/production/_ext/1089588495/drv_g3_macrt_bin.o
 .bss           0x0000000000000000        0x0 build/default/production/_ext/1089588495/drv_g3_macrt_bin.o
 .data          0x0000000000000000        0x0 build/default/production/_ext/410113559/drv_g3_macrt_local_comm.o
 .data          0x0000000000000000        0x0 build/default/production/_ext/410113559/drv_g3_macrt.o
 .data          0x0000000000000000        0x0 build/default/production/_ext/1033058136/helpers.o
 .bss           0x0000000000000000        0x0 build/default/production/_ext/1033058136/helpers.o
 .data          0x0000000000000000        0x0 build/default/production/_ext/1033058136/tcpip_notify.o
 .bss           0x0000000000000000        0x0 build/default/production/_ext/1033058136/tcpip_notify.o
 .text          0x0000000000000000       0x1c build/default/production/_ext/1033058136/dhcp.o
 .data          0x0000000000000000        0x0 build/default/production/_ext/1033058136/dhcp.o
 .bss           0x0000000000000000        0x0 build/default/production/_ext/1033058136/dhcp.o
 .debug_info    0x0000000000000000      0x3c7 build/default/production/_ext/1033058136/dhcp.o
 .debug_abbrev  0x0000000000000000      0x163 build/default/production/_ext/1033058136/dhcp.o
 .debug_loc     0x0000000000000000       0x6f build/default/production/_ext/1033058136/dhcp.o
 .debug_aranges
                0x0000000000000000       0x20 build/default/production/_ext/1033058136/dhcp.o
 .debug_line    0x0000000000000000      0x117 build/default/production/_ext/1033058136/dhcp.o
 .debug_str     0x0000000000000000      0x590 build/default/production/_ext/1033058136/dhcp.o
 .comment       0x0000000000000000       0x2c build/default/production/_ext/1033058136/dhcp.o
 .debug_frame   0x0000000000000000       0x80 build/default/production/_ext/1033058136/dhcp.o
 .ARM.attributes
                0x0000000000000000       0x34 build/default/production/_ext/1033058136/dhcp.o
 .data          0x0000000000000000        0x0 build/default/production/_ext/1033058136/ndp.o
 COMMON         0x0000000000000000        0x2 build/default/production/_ext/1033058136/ndp.o
 .data          0x0000000000000000        0x0 build/default/production/_ext/1033058136/udp.o
 .data          0x0000000000000000        0x0 build/default/production/_ext/1033058136/tcpip_packet.o
 .data          0x0000000000000000        0x0 build/default/production/_ext/1033058136/ipv6.o
 COMMON         0x0000000000000000        0x1 build/default/production/_ext/1033058136/ipv6.o
 .data          0x0000000000000000        0x0 build/default/production/_ext/1033058136/icmpv6.o
 .text          0x0000000000000000       0x44 build/default/production/_ext/1033058136/dns.o
 .data          0x0000000000000000        0x0 build/default/production/_ext/1033058136/dns.o
 .bss           0x0000000000000000        0x0 build/default/production/_ext/1033058136/dns.o
 .debug_info    0x0000000000000000      0x66b build/default/production/_ext/1033058136/dns.o
 .debug_abbrev  0x0000000000000000      0x197 build/default/production/_ext/1033058136/dns.o
 .debug_loc     0x0000000000000000      0x128 build/default/production/_ext/1033058136/dns.o
 .debug_aranges
                0x0000000000000000       0x20 build/default/production/_ext/1033058136/dns.o
 .debug_line    0x0000000000000000      0x152 build/default/production/_ext/1033058136/dns.o
 .debug_str     0x0000000000000000      0x797 build/default/production/_ext/1033058136/dns.o
 .comment       0x0000000000000000       0x2c build/default/production/_ext/1033058136/dns.o
 .debug_frame   0x0000000000000000       0xb0 build/default/production/_ext/1033058136/dns.o
 .ARM.attributes
                0x0000000000000000       0x34 build/default/production/_ext/1033058136/dns.o
 .text          0x0000000000000000      0x208 build/default/production/_ext/1033058136/oahash.o
 .data          0x0000000000000000        0x0 build/default/production/_ext/1033058136/oahash.o
 .bss           0x0000000000000000        0x0 build/default/production/_ext/1033058136/oahash.o
 .debug_info    0x0000000000000000      0x7d0 build/default/production/_ext/1033058136/oahash.o
 .debug_abbrev  0x0000000000000000      0x2f1 build/default/production/_ext/1033058136/oahash.o
 .debug_loc     0x0000000000000000      0x679 build/default/production/_ext/1033058136/oahash.o
 .debug_aranges
                0x0000000000000000       0x20 build/default/production/_ext/1033058136/oahash.o
 .debug_ranges  0x0000000000000000       0x30 build/default/production/_ext/1033058136/oahash.o
 .debug_line    0x0000000000000000      0x43f build/default/production/_ext/1033058136/oahash.o
 .debug_str     0x0000000000000000      0x4d5 build/default/production/_ext/1033058136/oahash.o
 .comment       0x0000000000000000       0x2c build/default/production/_ext/1033058136/oahash.o
 .debug_frame   0x0000000000000000       0xf0 build/default/production/_ext/1033058136/oahash.o
 .ARM.attributes
                0x0000000000000000       0x34 build/default/production/_ext/1033058136/oahash.o
 .bss           0x0000000000000000        0x0 build/default/production/_ext/1033058136/tcpip_helpers.o
 .data          0x0000000000000000        0x0 build/default/production/_ext/1033058136/tcpip_heap_alloc.o
 .bss           0x0000000000000000        0x0 build/default/production/_ext/1033058136/tcpip_heap_alloc.o
 .data          0x0000000000000000        0x0 build/default/production/_ext/1033058136/tcpip_heap_internal.o
 .bss           0x0000000000000000        0x0 build/default/production/_ext/1033058136/tcpip_heap_internal.o
 .text          0x0000000000000000       0x68 build/default/production/_ext/1033058136/hash_fnv.o
 .data          0x0000000000000000        0x0 build/default/production/_ext/1033058136/hash_fnv.o
 .bss           0x0000000000000000        0x0 build/default/production/_ext/1033058136/hash_fnv.o
 .debug_info    0x0000000000000000      0x1a0 build/default/production/_ext/1033058136/hash_fnv.o
 .debug_abbrev  0x0000000000000000       0xf8 build/default/production/_ext/1033058136/hash_fnv.o
 .debug_loc     0x0000000000000000      0x213 build/default/production/_ext/1033058136/hash_fnv.o
 .debug_aranges
                0x0000000000000000       0x20 build/default/production/_ext/1033058136/hash_fnv.o
 .debug_line    0x0000000000000000      0x134 build/default/production/_ext/1033058136/hash_fnv.o
 .debug_str     0x0000000000000000      0x2d2 build/default/production/_ext/1033058136/hash_fnv.o
 .comment       0x0000000000000000       0x2c build/default/production/_ext/1033058136/hash_fnv.o
 .debug_frame   0x0000000000000000       0x3c build/default/production/_ext/1033058136/hash_fnv.o
 .ARM.attributes
                0x0000000000000000       0x34 build/default/production/_ext/1033058136/hash_fnv.o
 .data          0x0000000000000000        0x0 build/default/production/_ext/1529399856/osal_freertos.o
 .bss           0x0000000000000000        0x0 build/default/production/_ext/1529399856/osal_freertos.o
 .data          0x0000000000000000        0x0 build/default/production/_ext/1529399856/osal_freertos_extend.o
 .bss           0x0000000000000000        0x0 build/default/production/_ext/1529399856/osal_freertos_extend.o
 .data          0x0000000000000000        0x0 build/default/production/_ext/60165520/plib_clk.o
 .bss           0x0000000000000000        0x0 build/default/production/_ext/60165520/plib_clk.o
 .text          0x0000000000000000       0xc4 build/default/production/_ext/1865131932/plib_cmcc.o
 .data          0x0000000000000000        0x0 build/default/production/_ext/1865131932/plib_cmcc.o
 .bss           0x0000000000000000        0x0 build/default/production/_ext/1865131932/plib_cmcc.o
 .debug_info    0x0000000000000000      0x20f build/default/production/_ext/1865131932/plib_cmcc.o
 .debug_abbrev  0x0000000000000000       0xa2 build/default/production/_ext/1865131932/plib_cmcc.o
 .debug_aranges
                0x0000000000000000       0x20 build/default/production/_ext/1865131932/plib_cmcc.o
 .debug_line    0x0000000000000000      0x1cb build/default/production/_ext/1865131932/plib_cmcc.o
 .debug_str     0x0000000000000000      0x39f build/default/production/_ext/1865131932/plib_cmcc.o
 .comment       0x0000000000000000       0x2c build/default/production/_ext/1865131932/plib_cmcc.o
 .debug_frame   0x0000000000000000       0x70 build/default/production/_ext/1865131932/plib_cmcc.o
 .ARM.attributes
                0x0000000000000000       0x34 build/default/production/_ext/1865131932/plib_cmcc.o
 .data          0x0000000000000000        0x0 build/default/production/_ext/1865161661/plib_dmac.o
 .data          0x0000000000000000        0x0 build/default/production/_ext/60167341/plib_eic.o
 .data          0x0000000000000000        0x0 build/default/production/_ext/1986646378/plib_evsys.o
 .bss           0x0000000000000000        0x0 build/default/production/_ext/1986646378/plib_evsys.o
 .data          0x0000000000000000        0x0 build/default/production/_ext/1865254177/plib_gpio.o
 .bss           0x0000000000000000        0x0 build/default/production/_ext/1865254177/plib_gpio.o
 .data          0x0000000000000000        0x0 build/default/production/_ext/1865468468/plib_nvic.o
 .bss           0x0000000000000000        0x0 build/default/production/_ext/1865468468/plib_nvic.o
 .data          0x0000000000000000        0x0 build/default/production/_ext/60176403/plib_nvm.o
 .data          0x0000000000000000        0x0 build/default/production/_ext/17022449/plib_sercom2_spi_master.o
 .bss           0x0000000000000000        0x0 build/default/production/_ext/17022449/plib_sercom2_spi_master.o
 .data          0x0000000000000000        0x0 build/default/production/_ext/504274921/plib_sercom1_usart.o
 .data          0x0000000000000000        0x0 build/default/production/_ext/829342655/plib_tc0.o
 .data          0x0000000000000000        0x0 build/default/production/_ext/1865643529/plib_trng.o
 .bss           0x0000000000000000        0x0 build/default/production/_ext/1865643529/plib_trng.o
 .data          0x0000000000000000        0x0 build/default/production/_ext/60184501/plib_wdt.o
 .bss           0x0000000000000000        0x0 build/default/production/_ext/60184501/plib_wdt.o
 .data          0x0000000000000000        0x0 build/default/production/_ext/2064362748/srv_pcoup.o
 .bss           0x0000000000000000        0x0 build/default/production/_ext/2064362748/srv_pcoup.o
 .text          0x0000000000000000       0x94 build/default/production/_ext/1036423743/srv_pcrc.o
 .data          0x0000000000000000        0x0 build/default/production/_ext/1036423743/srv_pcrc.o
 .bss           0x0000000000000000        0x0 build/default/production/_ext/1036423743/srv_pcrc.o
 .rodata        0x0000000000000000      0x700 build/default/production/_ext/1036423743/srv_pcrc.o
 .debug_info    0x0000000000000000      0x46b build/default/production/_ext/1036423743/srv_pcrc.o
 .debug_abbrev  0x0000000000000000      0x1cd build/default/production/_ext/1036423743/srv_pcrc.o
 .debug_loc     0x0000000000000000      0x4dc build/default/production/_ext/1036423743/srv_pcrc.o
 .debug_aranges
                0x0000000000000000       0x20 build/default/production/_ext/1036423743/srv_pcrc.o
 .debug_ranges  0x0000000000000000       0x18 build/default/production/_ext/1036423743/srv_pcrc.o
 .debug_line    0x0000000000000000      0x19e build/default/production/_ext/1036423743/srv_pcrc.o
 .debug_str     0x0000000000000000      0x40a build/default/production/_ext/1036423743/srv_pcrc.o
 .comment       0x0000000000000000       0x2c build/default/production/_ext/1036423743/srv_pcrc.o
 .debug_frame   0x0000000000000000       0x40 build/default/production/_ext/1036423743/srv_pcrc.o
 .ARM.attributes
                0x0000000000000000       0x34 build/default/production/_ext/1036423743/srv_pcrc.o
 .data          0x0000000000000000        0x0 build/default/production/_ext/2065812886/srv_queue.o
 .bss           0x0000000000000000        0x0 build/default/production/_ext/2065812886/srv_queue.o
 .data          0x0000000000000000        0x0 build/default/production/_ext/373899042/srv_random.o
 .bss           0x0000000000000000        0x0 build/default/production/_ext/373899042/srv_random.o
 .data          0x0000000000000000        0x0 build/default/production/_ext/2135967589/cipher_wrapper.o
 .data          0x0000000000000000        0x0 build/default/production/_ext/2135967589/aes_wrapper.o
 .data          0x0000000000000000        0x0 build/default/production/_ext/1534551086/lbp_encode_decode.o
 .bss           0x0000000000000000        0x0 build/default/production/_ext/1534551086/lbp_encode_decode.o
 .data          0x0000000000000000        0x0 build/default/production/_ext/1534551086/routing_wrapper.o
 .data          0x0000000000000000        0x0 build/default/production/_ext/1534551086/eap_psk.o
 .bss           0x0000000000000000        0x0 build/default/production/_ext/1534551086/eap_psk.o
 .data          0x0000000000000000        0x0 build/default/production/_ext/1632721610/mac_common.o
 .data          0x0000000000000000        0x0 build/default/production/_ext/1570337448/mac_wrapper.o
 .data          0x0000000000000000        0x0 build/default/production/_ext/977769160/pal_plc.o
 .data          0x0000000000000000        0x0 build/default/production/_ext/1278466877/pal_rf.o
 .text          0x0000000000000000       0x10 build/default/production/_ext/163028504/xc32_monitor.o
 .data          0x0000000000000000        0x0 build/default/production/_ext/163028504/xc32_monitor.o
 .bss           0x0000000000000000        0x0 build/default/production/_ext/163028504/xc32_monitor.o
 .debug_info    0x0000000000000000       0xf3 build/default/production/_ext/163028504/xc32_monitor.o
 .debug_abbrev  0x0000000000000000       0xaf build/default/production/_ext/163028504/xc32_monitor.o
 .debug_loc     0x0000000000000000       0x25 build/default/production/_ext/163028504/xc32_monitor.o
 .debug_aranges
                0x0000000000000000       0x20 build/default/production/_ext/163028504/xc32_monitor.o
 .debug_line    0x0000000000000000       0xb1 build/default/production/_ext/163028504/xc32_monitor.o
 .debug_str     0x0000000000000000      0x256 build/default/production/_ext/163028504/xc32_monitor.o
 .comment       0x0000000000000000       0x2c build/default/production/_ext/163028504/xc32_monitor.o
 .debug_frame   0x0000000000000000       0x30 build/default/production/_ext/163028504/xc32_monitor.o
 .ARM.attributes
                0x0000000000000000       0x34 build/default/production/_ext/163028504/xc32_monitor.o
 .text          0x0000000000000000       0x34 build/default/production/_ext/1014039709/sys_cache.o
 .data          0x0000000000000000        0x0 build/default/production/_ext/1014039709/sys_cache.o
 .bss           0x0000000000000000        0x0 build/default/production/_ext/1014039709/sys_cache.o
 .debug_info    0x0000000000000000      0x19b build/default/production/_ext/1014039709/sys_cache.o
 .debug_abbrev  0x0000000000000000       0xc4 build/default/production/_ext/1014039709/sys_cache.o
 .debug_aranges
                0x0000000000000000       0x20 build/default/production/_ext/1014039709/sys_cache.o
 .debug_line    0x0000000000000000       0xb3 build/default/production/_ext/1014039709/sys_cache.o
 .debug_str     0x0000000000000000      0x416 build/default/production/_ext/1014039709/sys_cache.o
 .comment       0x0000000000000000       0x2c build/default/production/_ext/1014039709/sys_cache.o
 .debug_frame   0x0000000000000000       0xe0 build/default/production/_ext/1014039709/sys_cache.o
 .ARM.attributes
                0x0000000000000000       0x34 build/default/production/_ext/1014039709/sys_cache.o
 .data          0x0000000000000000        0x0 build/default/production/_ext/1832805299/sys_console_uart.o
 .data          0x0000000000000000        0x0 build/default/production/_ext/1832805299/sys_console.o
 .data          0x0000000000000000        0x0 build/default/production/_ext/944882569/sys_debug.o
 .data          0x0000000000000000        0x0 build/default/production/_ext/14461671/sys_dma.o
 .bss           0x0000000000000000        0x0 build/default/production/_ext/14461671/sys_dma.o
 .data          0x0000000000000000        0x0 build/default/production/_ext/1881668453/sys_int.o
 .bss           0x0000000000000000        0x0 build/default/production/_ext/1881668453/sys_int.o
 .data          0x0000000000000000        0x0 build/default/production/_ext/753841488/sys_time_h2_adapter.o
 .data          0x0000000000000000        0x0 build/default/production/_ext/1171490990/tasks.o
 .bss           0x0000000000000000        0x0 build/default/production/_ext/1171490990/tasks.o
 .data          0x0000000000000000        0x0 build/default/production/_ext/1171490990/interrupts.o
 .bss           0x0000000000000000        0x0 build/default/production/_ext/1171490990/interrupts.o
 .data          0x0000000000000000        0x0 build/default/production/_ext/1171490990/exceptions.o
 .bss           0x0000000000000000        0x0 build/default/production/_ext/1171490990/exceptions.o
 .text          0x0000000000000000        0x4 build/default/production/_ext/1171490990/libc_syscalls.o
 .data          0x0000000000000000        0x0 build/default/production/_ext/1171490990/libc_syscalls.o
 .bss           0x0000000000000000        0x0 build/default/production/_ext/1171490990/libc_syscalls.o
 .debug_info    0x0000000000000000       0xa6 build/default/production/_ext/1171490990/libc_syscalls.o
 .debug_abbrev  0x0000000000000000       0x5b build/default/production/_ext/1171490990/libc_syscalls.o
 .debug_loc     0x0000000000000000       0x15 build/default/production/_ext/1171490990/libc_syscalls.o
 .debug_aranges
                0x0000000000000000       0x20 build/default/production/_ext/1171490990/libc_syscalls.o
 .debug_line    0x0000000000000000       0x5d build/default/production/_ext/1171490990/libc_syscalls.o
 .debug_str     0x0000000000000000      0x29a build/default/production/_ext/1171490990/libc_syscalls.o
 .comment       0x0000000000000000       0x2c build/default/production/_ext/1171490990/libc_syscalls.o
 .debug_frame   0x0000000000000000       0x20 build/default/production/_ext/1171490990/libc_syscalls.o
 .ARM.attributes
                0x0000000000000000       0x34 build/default/production/_ext/1171490990/libc_syscalls.o
 .data          0x0000000000000000        0x0 build/default/production/_ext/1171490990/startup_xc32.o
 .bss           0x0000000000000000        0x0 build/default/production/_ext/1171490990/startup_xc32.o
 .data          0x0000000000000000        0x0 build/default/production/_ext/1171490990/freertos_hooks.o
 .bss           0x0000000000000000        0x0 build/default/production/_ext/1171490990/freertos_hooks.o
 .bss           0x0000000000000000        0x0 build/default/production/_ext/246609638/port.o
 .data          0x0000000000000000        0x0 build/default/production/_ext/1665200909/heap_4.o
 .data          0x0000000000000000        0x0 build/default/production/_ext/404212886/list.o
 .bss           0x0000000000000000        0x0 build/default/production/_ext/404212886/list.o
 .text          0x0000000000000000      0x674 build/default/production/_ext/404212886/stream_buffer.o
 .data          0x0000000000000000        0x0 build/default/production/_ext/404212886/stream_buffer.o
 .bss           0x0000000000000000        0x0 build/default/production/_ext/404212886/stream_buffer.o
 .debug_info    0x0000000000000000     0x1ac7 build/default/production/_ext/404212886/stream_buffer.o
 .debug_abbrev  0x0000000000000000      0x382 build/default/production/_ext/404212886/stream_buffer.o
 .debug_loc     0x0000000000000000     0x1e02 build/default/production/_ext/404212886/stream_buffer.o
 .debug_aranges
                0x0000000000000000       0x20 build/default/production/_ext/404212886/stream_buffer.o
 .debug_ranges  0x0000000000000000      0x118 build/default/production/_ext/404212886/stream_buffer.o
 .debug_line    0x0000000000000000      0xf9d build/default/production/_ext/404212886/stream_buffer.o
 .debug_str     0x0000000000000000      0xa7e build/default/production/_ext/404212886/stream_buffer.o
 .comment       0x0000000000000000       0x2c build/default/production/_ext/404212886/stream_buffer.o
 .debug_frame   0x0000000000000000      0x2d4 build/default/production/_ext/404212886/stream_buffer.o
 .ARM.attributes
                0x0000000000000000       0x34 build/default/production/_ext/404212886/stream_buffer.o
 .text          0x0000000000000000        0x0 build/default/production/_ext/404212886/croutine.o
 .data          0x0000000000000000        0x0 build/default/production/_ext/404212886/croutine.o
 .bss           0x0000000000000000        0x0 build/default/production/_ext/404212886/croutine.o
 .debug_info    0x0000000000000000       0x79 build/default/production/_ext/404212886/croutine.o
 .debug_abbrev  0x0000000000000000       0x26 build/default/production/_ext/404212886/croutine.o
 .debug_aranges
                0x0000000000000000       0x18 build/default/production/_ext/404212886/croutine.o
 .debug_line    0x0000000000000000       0x1d build/default/production/_ext/404212886/croutine.o
 .debug_str     0x0000000000000000      0x2a6 build/default/production/_ext/404212886/croutine.o
 .comment       0x0000000000000000       0x2c build/default/production/_ext/404212886/croutine.o
 .ARM.attributes
                0x0000000000000000       0x39 build/default/production/_ext/404212886/croutine.o
 .text          0x0000000000000000      0x25c build/default/production/_ext/404212886/event_groups.o
 .data          0x0000000000000000        0x0 build/default/production/_ext/404212886/event_groups.o
 .bss           0x0000000000000000        0x0 build/default/production/_ext/404212886/event_groups.o
 .debug_info    0x0000000000000000      0xb5e build/default/production/_ext/404212886/event_groups.o
 .debug_abbrev  0x0000000000000000      0x322 build/default/production/_ext/404212886/event_groups.o
 .debug_loc     0x0000000000000000      0xb80 build/default/production/_ext/404212886/event_groups.o
 .debug_aranges
                0x0000000000000000       0x20 build/default/production/_ext/404212886/event_groups.o
 .debug_ranges  0x0000000000000000       0x70 build/default/production/_ext/404212886/event_groups.o
 .debug_line    0x0000000000000000      0x66f build/default/production/_ext/404212886/event_groups.o
 .debug_str     0x0000000000000000      0x729 build/default/production/_ext/404212886/event_groups.o
 .comment       0x0000000000000000       0x2c build/default/production/_ext/404212886/event_groups.o
 .debug_frame   0x0000000000000000      0x104 build/default/production/_ext/404212886/event_groups.o
 .ARM.attributes
                0x0000000000000000       0x34 build/default/production/_ext/404212886/event_groups.o
 .text          0x0000000000000000        0x0 build/default/production/_ext/404212886/timers.o
 .data          0x0000000000000000        0x0 build/default/production/_ext/404212886/timers.o
 .bss           0x0000000000000000        0x0 build/default/production/_ext/404212886/timers.o
 .debug_info    0x0000000000000000       0x79 build/default/production/_ext/404212886/timers.o
 .debug_abbrev  0x0000000000000000       0x26 build/default/production/_ext/404212886/timers.o
 .debug_aranges
                0x0000000000000000       0x18 build/default/production/_ext/404212886/timers.o
 .debug_line    0x0000000000000000       0x1d build/default/production/_ext/404212886/timers.o
 .debug_str     0x0000000000000000      0x2a4 build/default/production/_ext/404212886/timers.o
 .comment       0x0000000000000000       0x2c build/default/production/_ext/404212886/timers.o
 .ARM.attributes
                0x0000000000000000       0x39 build/default/production/_ext/404212886/timers.o
 .data          0x0000000000000000        0x0 build/default/production/_ext/404212886/queue.o
 .bss           0x0000000000000000        0x0 build/default/production/_ext/404212886/queue.o
 .text          0x0000000000000000        0x0 build/default/production/_ext/193597431/pic32mz-crypt.o
 .data          0x0000000000000000        0x0 build/default/production/_ext/193597431/pic32mz-crypt.o
 .bss           0x0000000000000000        0x0 build/default/production/_ext/193597431/pic32mz-crypt.o
 .debug_info    0x0000000000000000       0x72 build/default/production/_ext/193597431/pic32mz-crypt.o
 .debug_abbrev  0x0000000000000000       0x26 build/default/production/_ext/193597431/pic32mz-crypt.o
 .debug_aranges
                0x0000000000000000       0x18 build/default/production/_ext/193597431/pic32mz-crypt.o
 .debug_line    0x0000000000000000       0x1d build/default/production/_ext/193597431/pic32mz-crypt.o
 .debug_str     0x0000000000000000      0x2ab build/default/production/_ext/193597431/pic32mz-crypt.o
 .comment       0x0000000000000000       0x2c build/default/production/_ext/193597431/pic32mz-crypt.o
 .ARM.attributes
                0x0000000000000000       0x39 build/default/production/_ext/193597431/pic32mz-crypt.o
 .text          0x0000000000000000        0x0 build/default/production/_ext/1716827871/hpke.o
 .data          0x0000000000000000        0x0 build/default/production/_ext/1716827871/hpke.o
 .bss           0x0000000000000000        0x0 build/default/production/_ext/1716827871/hpke.o
 .debug_info    0x0000000000000000       0x72 build/default/production/_ext/1716827871/hpke.o
 .debug_abbrev  0x0000000000000000       0x26 build/default/production/_ext/1716827871/hpke.o
 .debug_aranges
                0x0000000000000000       0x18 build/default/production/_ext/1716827871/hpke.o
 .debug_line    0x0000000000000000       0x1d build/default/production/_ext/1716827871/hpke.o
 .debug_str     0x0000000000000000      0x297 build/default/production/_ext/1716827871/hpke.o
 .comment       0x0000000000000000       0x2c build/default/production/_ext/1716827871/hpke.o
 .ARM.attributes
                0x0000000000000000       0x39 build/default/production/_ext/1716827871/hpke.o
 .data          0x0000000000000000        0x0 build/default/production/_ext/1716827871/cmac.o
 .bss           0x0000000000000000        0x0 build/default/production/_ext/1716827871/cmac.o
 .text          0x0000000000000000        0x0 build/default/production/_ext/1716827871/ext_xmss.o
 .data          0x0000000000000000        0x0 build/default/production/_ext/1716827871/ext_xmss.o
 .bss           0x0000000000000000        0x0 build/default/production/_ext/1716827871/ext_xmss.o
 .debug_info    0x0000000000000000       0x79 build/default/production/_ext/1716827871/ext_xmss.o
 .debug_abbrev  0x0000000000000000       0x26 build/default/production/_ext/1716827871/ext_xmss.o
 .debug_aranges
                0x0000000000000000       0x18 build/default/production/_ext/1716827871/ext_xmss.o
 .debug_line    0x0000000000000000       0x1d build/default/production/_ext/1716827871/ext_xmss.o
 .debug_str     0x0000000000000000      0x2a7 build/default/production/_ext/1716827871/ext_xmss.o
 .comment       0x0000000000000000       0x2c build/default/production/_ext/1716827871/ext_xmss.o
 .ARM.attributes
                0x0000000000000000       0x39 build/default/production/_ext/1716827871/ext_xmss.o
 .text          0x0000000000000000     0x2074 build/default/production/_ext/1716827871/fe_operations.o
 .data          0x0000000000000000        0x0 build/default/production/_ext/1716827871/fe_operations.o
 .bss           0x0000000000000000        0x0 build/default/production/_ext/1716827871/fe_operations.o
 .rodata        0x0000000000000000       0x20 build/default/production/_ext/1716827871/fe_operations.o
 .debug_info    0x0000000000000000     0x41d1 build/default/production/_ext/1716827871/fe_operations.o
 .debug_abbrev  0x0000000000000000      0x369 build/default/production/_ext/1716827871/fe_operations.o
 .debug_loc     0x0000000000000000     0xa29d build/default/production/_ext/1716827871/fe_operations.o
 .debug_aranges
                0x0000000000000000       0x20 build/default/production/_ext/1716827871/fe_operations.o
 .debug_ranges  0x0000000000000000      0x248 build/default/production/_ext/1716827871/fe_operations.o
 .debug_line    0x0000000000000000     0x2806 build/default/production/_ext/1716827871/fe_operations.o
 .debug_str     0x0000000000000000      0x8b8 build/default/production/_ext/1716827871/fe_operations.o
 .comment       0x0000000000000000       0x2c build/default/production/_ext/1716827871/fe_operations.o
 .debug_frame   0x0000000000000000      0x324 build/default/production/_ext/1716827871/fe_operations.o
 .ARM.attributes
                0x0000000000000000       0x34 build/default/production/_ext/1716827871/fe_operations.o
 .text          0x0000000000000000        0x0 build/default/production/_ext/1716827871/wc_lms.o
 .data          0x0000000000000000        0x0 build/default/production/_ext/1716827871/wc_lms.o
 .bss           0x0000000000000000        0x0 build/default/production/_ext/1716827871/wc_lms.o
 .debug_info    0x0000000000000000       0x72 build/default/production/_ext/1716827871/wc_lms.o
 .debug_abbrev  0x0000000000000000       0x26 build/default/production/_ext/1716827871/wc_lms.o
 .debug_aranges
                0x0000000000000000       0x18 build/default/production/_ext/1716827871/wc_lms.o
 .debug_line    0x0000000000000000       0x1d build/default/production/_ext/1716827871/wc_lms.o
 .debug_str     0x0000000000000000      0x299 build/default/production/_ext/1716827871/wc_lms.o
 .comment       0x0000000000000000       0x2c build/default/production/_ext/1716827871/wc_lms.o
 .ARM.attributes
                0x0000000000000000       0x39 build/default/production/_ext/1716827871/wc_lms.o
 .text          0x0000000000000000        0x0 build/default/production/_ext/1716827871/rc2.o
 .data          0x0000000000000000        0x0 build/default/production/_ext/1716827871/rc2.o
 .bss           0x0000000000000000        0x0 build/default/production/_ext/1716827871/rc2.o
 .debug_info    0x0000000000000000       0x72 build/default/production/_ext/1716827871/rc2.o
 .debug_abbrev  0x0000000000000000       0x26 build/default/production/_ext/1716827871/rc2.o
 .debug_aranges
                0x0000000000000000       0x18 build/default/production/_ext/1716827871/rc2.o
 .debug_line    0x0000000000000000       0x1d build/default/production/_ext/1716827871/rc2.o
 .debug_str     0x0000000000000000      0x296 build/default/production/_ext/1716827871/rc2.o
 .comment       0x0000000000000000       0x2c build/default/production/_ext/1716827871/rc2.o
 .ARM.attributes
                0x0000000000000000       0x39 build/default/production/_ext/1716827871/rc2.o
 .text          0x0000000000000000      0x33c build/default/production/_ext/1716827871/coding.o
 .data          0x0000000000000000        0x0 build/default/production/_ext/1716827871/coding.o
 .bss           0x0000000000000000        0x0 build/default/production/_ext/1716827871/coding.o
 .rodata        0x0000000000000000       0x50 build/default/production/_ext/1716827871/coding.o
 .debug_info    0x0000000000000000      0xd58 build/default/production/_ext/1716827871/coding.o
 .debug_abbrev  0x0000000000000000      0x20e build/default/production/_ext/1716827871/coding.o
 .debug_loc     0x0000000000000000      0xa11 build/default/production/_ext/1716827871/coding.o
 .debug_aranges
                0x0000000000000000       0x20 build/default/production/_ext/1716827871/coding.o
 .debug_ranges  0x0000000000000000       0xf0 build/default/production/_ext/1716827871/coding.o
 .debug_line    0x0000000000000000      0x5a2 build/default/production/_ext/1716827871/coding.o
 .debug_str     0x0000000000000000     0x1632 build/default/production/_ext/1716827871/coding.o
 .comment       0x0000000000000000       0x2c build/default/production/_ext/1716827871/coding.o
 .debug_frame   0x0000000000000000       0x70 build/default/production/_ext/1716827871/coding.o
 .ARM.attributes
                0x0000000000000000       0x34 build/default/production/_ext/1716827871/coding.o
 .data          0x0000000000000000        0x0 build/default/production/_ext/1716827871/sha256.o
 .bss           0x0000000000000000        0x0 build/default/production/_ext/1716827871/sha256.o
 .text          0x0000000000000000        0x0 build/default/production/_ext/1716827871/sp_sm2_c64.o
 .data          0x0000000000000000        0x0 build/default/production/_ext/1716827871/sp_sm2_c64.o
 .bss           0x0000000000000000        0x0 build/default/production/_ext/1716827871/sp_sm2_c64.o
 .debug_info    0x0000000000000000       0x72 build/default/production/_ext/1716827871/sp_sm2_c64.o
 .debug_abbrev  0x0000000000000000       0x26 build/default/production/_ext/1716827871/sp_sm2_c64.o
 .debug_aranges
                0x0000000000000000       0x18 build/default/production/_ext/1716827871/sp_sm2_c64.o
 .debug_line    0x0000000000000000       0x1d build/default/production/_ext/1716827871/sp_sm2_c64.o
 .debug_str     0x0000000000000000      0x29d build/default/production/_ext/1716827871/sp_sm2_c64.o
 .comment       0x0000000000000000       0x2c build/default/production/_ext/1716827871/sp_sm2_c64.o
 .ARM.attributes
                0x0000000000000000       0x39 build/default/production/_ext/1716827871/sp_sm2_c64.o
 .text          0x0000000000000000     0x358c build/default/production/_ext/1716827871/ge_operations.o
 .data          0x0000000000000000        0x0 build/default/production/_ext/1716827871/ge_operations.o
 .bss           0x0000000000000000        0x0 build/default/production/_ext/1716827871/ge_operations.o
 .rodata        0x0000000000000000     0x7c38 build/default/production/_ext/1716827871/ge_operations.o
 .debug_info    0x0000000000000000     0x2af5 build/default/production/_ext/1716827871/ge_operations.o
 .debug_abbrev  0x0000000000000000      0x2ed build/default/production/_ext/1716827871/ge_operations.o
 .debug_loc     0x0000000000000000     0x1725 build/default/production/_ext/1716827871/ge_operations.o
 .debug_aranges
                0x0000000000000000       0x20 build/default/production/_ext/1716827871/ge_operations.o
 .debug_ranges  0x0000000000000000       0x78 build/default/production/_ext/1716827871/ge_operations.o
 .debug_line    0x0000000000000000     0x35ea build/default/production/_ext/1716827871/ge_operations.o
 .debug_str     0x0000000000000000      0x81a build/default/production/_ext/1716827871/ge_operations.o
 .comment       0x0000000000000000       0x2c build/default/production/_ext/1716827871/ge_operations.o
 .debug_frame   0x0000000000000000      0x294 build/default/production/_ext/1716827871/ge_operations.o
 .ARM.attributes
                0x0000000000000000       0x34 build/default/production/_ext/1716827871/ge_operations.o
 .text          0x0000000000000000        0x0 build/default/production/_ext/1716827871/fe_448.o
 .data          0x0000000000000000        0x0 build/default/production/_ext/1716827871/fe_448.o
 .bss           0x0000000000000000        0x0 build/default/production/_ext/1716827871/fe_448.o
 .debug_info    0x0000000000000000       0x72 build/default/production/_ext/1716827871/fe_448.o
 .debug_abbrev  0x0000000000000000       0x26 build/default/production/_ext/1716827871/fe_448.o
 .debug_aranges
                0x0000000000000000       0x18 build/default/production/_ext/1716827871/fe_448.o
 .debug_line    0x0000000000000000       0x1d build/default/production/_ext/1716827871/fe_448.o
 .debug_str     0x0000000000000000      0x299 build/default/production/_ext/1716827871/fe_448.o
 .comment       0x0000000000000000       0x2c build/default/production/_ext/1716827871/fe_448.o
 .ARM.attributes
                0x0000000000000000       0x39 build/default/production/_ext/1716827871/fe_448.o
 .text          0x0000000000000000       0x1c build/default/production/_ext/1716827871/logging.o
 .data          0x0000000000000000        0x0 build/default/production/_ext/1716827871/logging.o
 .bss           0x0000000000000000        0x0 build/default/production/_ext/1716827871/logging.o
 .debug_info    0x0000000000000000      0x69a build/default/production/_ext/1716827871/logging.o
 .debug_abbrev  0x0000000000000000      0x108 build/default/production/_ext/1716827871/logging.o
 .debug_loc     0x0000000000000000       0x25 build/default/production/_ext/1716827871/logging.o
 .debug_aranges
                0x0000000000000000       0x20 build/default/production/_ext/1716827871/logging.o
 .debug_line    0x0000000000000000       0xdd build/default/production/_ext/1716827871/logging.o
 .debug_str     0x0000000000000000      0xdf1 build/default/production/_ext/1716827871/logging.o
 .comment       0x0000000000000000       0x2c build/default/production/_ext/1716827871/logging.o
 .debug_frame   0x0000000000000000       0x60 build/default/production/_ext/1716827871/logging.o
 .ARM.attributes
                0x0000000000000000       0x34 build/default/production/_ext/1716827871/logging.o
 .text          0x0000000000000000        0x0 build/default/production/_ext/1716827871/ecc_fp.o
 .data          0x0000000000000000        0x0 build/default/production/_ext/1716827871/ecc_fp.o
 .bss           0x0000000000000000        0x0 build/default/production/_ext/1716827871/ecc_fp.o
 .debug_line    0x0000000000000000        0x0 build/default/production/_ext/1716827871/ecc_fp.o
 .debug_str     0x0000000000000000      0x209 build/default/production/_ext/1716827871/ecc_fp.o
 .comment       0x0000000000000000       0x2c build/default/production/_ext/1716827871/ecc_fp.o
 .ARM.attributes
                0x0000000000000000       0x39 build/default/production/_ext/1716827871/ecc_fp.o
 .text          0x0000000000000000        0x0 build/default/production/_ext/1716827871/fe_low_mem.o
 .data          0x0000000000000000        0x0 build/default/production/_ext/1716827871/fe_low_mem.o
 .bss           0x0000000000000000        0x0 build/default/production/_ext/1716827871/fe_low_mem.o
 .debug_info    0x0000000000000000       0x72 build/default/production/_ext/1716827871/fe_low_mem.o
 .debug_abbrev  0x0000000000000000       0x26 build/default/production/_ext/1716827871/fe_low_mem.o
 .debug_aranges
                0x0000000000000000       0x18 build/default/production/_ext/1716827871/fe_low_mem.o
 .debug_line    0x0000000000000000       0x1d build/default/production/_ext/1716827871/fe_low_mem.o
 .debug_str     0x0000000000000000      0x29d build/default/production/_ext/1716827871/fe_low_mem.o
 .comment       0x0000000000000000       0x2c build/default/production/_ext/1716827871/fe_low_mem.o
 .ARM.attributes
                0x0000000000000000       0x39 build/default/production/_ext/1716827871/fe_low_mem.o
 .text          0x0000000000000000     0x5494 build/default/production/_ext/1716827871/blake2b.o
 .data          0x0000000000000000        0x0 build/default/production/_ext/1716827871/blake2b.o
 .bss           0x0000000000000000        0x0 build/default/production/_ext/1716827871/blake2b.o
 .rodata        0x0000000000000000       0x40 build/default/production/_ext/1716827871/blake2b.o
 .debug_info    0x0000000000000000     0x5536 build/default/production/_ext/1716827871/blake2b.o
 .debug_abbrev  0x0000000000000000      0x46e build/default/production/_ext/1716827871/blake2b.o
 .debug_loc     0x0000000000000000     0x3061 build/default/production/_ext/1716827871/blake2b.o
 .debug_aranges
                0x0000000000000000       0x20 build/default/production/_ext/1716827871/blake2b.o
 .debug_ranges  0x0000000000000000     0x34f0 build/default/production/_ext/1716827871/blake2b.o
 .debug_line    0x0000000000000000     0x5f98 build/default/production/_ext/1716827871/blake2b.o
 .debug_str     0x0000000000000000     0x1299 build/default/production/_ext/1716827871/blake2b.o
 .comment       0x0000000000000000       0x2c build/default/production/_ext/1716827871/blake2b.o
 .debug_frame   0x0000000000000000      0x19c build/default/production/_ext/1716827871/blake2b.o
 .ARM.attributes
                0x0000000000000000       0x34 build/default/production/_ext/1716827871/blake2b.o
 .text          0x0000000000000000        0x0 build/default/production/_ext/1716827871/sm2.o
 .data          0x0000000000000000        0x0 build/default/production/_ext/1716827871/sm2.o
 .bss           0x0000000000000000        0x0 build/default/production/_ext/1716827871/sm2.o
 .debug_info    0x0000000000000000       0x72 build/default/production/_ext/1716827871/sm2.o
 .debug_abbrev  0x0000000000000000       0x26 build/default/production/_ext/1716827871/sm2.o
 .debug_aranges
                0x0000000000000000       0x18 build/default/production/_ext/1716827871/sm2.o
 .debug_line    0x0000000000000000       0x1d build/default/production/_ext/1716827871/sm2.o
 .debug_str     0x0000000000000000      0x296 build/default/production/_ext/1716827871/sm2.o
 .comment       0x0000000000000000       0x2c build/default/production/_ext/1716827871/sm2.o
 .ARM.attributes
                0x0000000000000000       0x39 build/default/production/_ext/1716827871/sm2.o
 .text          0x0000000000000000     0x1cfc build/default/production/_ext/1716827871/blake2s.o
 .data          0x0000000000000000        0x0 build/default/production/_ext/1716827871/blake2s.o
 .bss           0x0000000000000000        0x0 build/default/production/_ext/1716827871/blake2s.o
 .debug_info    0x0000000000000000     0x505e build/default/production/_ext/1716827871/blake2s.o
 .debug_abbrev  0x0000000000000000      0x405 build/default/production/_ext/1716827871/blake2s.o
 .debug_loc     0x0000000000000000     0x3def build/default/production/_ext/1716827871/blake2s.o
 .debug_aranges
                0x0000000000000000       0x20 build/default/production/_ext/1716827871/blake2s.o
 .debug_ranges  0x0000000000000000     0x1f18 build/default/production/_ext/1716827871/blake2s.o
 .debug_line    0x0000000000000000     0x36e2 build/default/production/_ext/1716827871/blake2s.o
 .debug_str     0x0000000000000000     0x1290 build/default/production/_ext/1716827871/blake2s.o
 .comment       0x0000000000000000       0x2c build/default/production/_ext/1716827871/blake2s.o
 .debug_frame   0x0000000000000000      0x190 build/default/production/_ext/1716827871/blake2s.o
 .ARM.attributes
                0x0000000000000000       0x34 build/default/production/_ext/1716827871/blake2s.o
 .text          0x0000000000000000        0x0 build/default/production/_ext/1716827871/wc_xmss_impl.o
 .data          0x0000000000000000        0x0 build/default/production/_ext/1716827871/wc_xmss_impl.o
 .bss           0x0000000000000000        0x0 build/default/production/_ext/1716827871/wc_xmss_impl.o
 .debug_info    0x0000000000000000       0x72 build/default/production/_ext/1716827871/wc_xmss_impl.o
 .debug_abbrev  0x0000000000000000       0x26 build/default/production/_ext/1716827871/wc_xmss_impl.o
 .debug_aranges
                0x0000000000000000       0x18 build/default/production/_ext/1716827871/wc_xmss_impl.o
 .debug_line    0x0000000000000000       0x1d build/default/production/_ext/1716827871/wc_xmss_impl.o
 .debug_str     0x0000000000000000      0x29f build/default/production/_ext/1716827871/wc_xmss_impl.o
 .comment       0x0000000000000000       0x2c build/default/production/_ext/1716827871/wc_xmss_impl.o
 .ARM.attributes
                0x0000000000000000       0x39 build/default/production/_ext/1716827871/wc_xmss_impl.o
 .text          0x0000000000000000     0x4654 build/default/production/_ext/1716827871/camellia.o
 .data          0x0000000000000000        0x0 build/default/production/_ext/1716827871/camellia.o
 .bss           0x0000000000000000        0x0 build/default/production/_ext/1716827871/camellia.o
 .rodata        0x0000000000000000     0x1000 build/default/production/_ext/1716827871/camellia.o
 .debug_info    0x0000000000000000     0x1476 build/default/production/_ext/1716827871/camellia.o
 .debug_abbrev  0x0000000000000000      0x2d8 build/default/production/_ext/1716827871/camellia.o
 .debug_loc     0x0000000000000000     0xd8fc build/default/production/_ext/1716827871/camellia.o
 .debug_aranges
                0x0000000000000000       0x20 build/default/production/_ext/1716827871/camellia.o
 .debug_line    0x0000000000000000     0x21ec build/default/production/_ext/1716827871/camellia.o
 .debug_str     0x0000000000000000      0xf9b build/default/production/_ext/1716827871/camellia.o
 .comment       0x0000000000000000       0x2c build/default/production/_ext/1716827871/camellia.o
 .debug_frame   0x0000000000000000      0x19c build/default/production/_ext/1716827871/camellia.o
 .ARM.attributes
                0x0000000000000000       0x34 build/default/production/_ext/1716827871/camellia.o
 .text          0x0000000000000000        0x0 build/default/production/_ext/1716827871/wolfevent.o
 .data          0x0000000000000000        0x0 build/default/production/_ext/1716827871/wolfevent.o
 .bss           0x0000000000000000        0x0 build/default/production/_ext/1716827871/wolfevent.o
 .debug_info    0x0000000000000000       0x72 build/default/production/_ext/1716827871/wolfevent.o
 .debug_abbrev  0x0000000000000000       0x26 build/default/production/_ext/1716827871/wolfevent.o
 .debug_aranges
                0x0000000000000000       0x18 build/default/production/_ext/1716827871/wolfevent.o
 .debug_line    0x0000000000000000       0x1d build/default/production/_ext/1716827871/wolfevent.o
 .debug_str     0x0000000000000000      0x29c build/default/production/_ext/1716827871/wolfevent.o
 .comment       0x0000000000000000       0x2c build/default/production/_ext/1716827871/wolfevent.o
 .ARM.attributes
                0x0000000000000000       0x39 build/default/production/_ext/1716827871/wolfevent.o
 .text          0x0000000000000000        0x0 build/default/production/_ext/1716827871/chacha20_poly1305.o
 .data          0x0000000000000000        0x0 build/default/production/_ext/1716827871/chacha20_poly1305.o
 .bss           0x0000000000000000        0x0 build/default/production/_ext/1716827871/chacha20_poly1305.o
 .debug_info    0x0000000000000000       0x72 build/default/production/_ext/1716827871/chacha20_poly1305.o
 .debug_abbrev  0x0000000000000000       0x26 build/default/production/_ext/1716827871/chacha20_poly1305.o
 .debug_aranges
                0x0000000000000000       0x18 build/default/production/_ext/1716827871/chacha20_poly1305.o
 .debug_line    0x0000000000000000       0x1d build/default/production/_ext/1716827871/chacha20_poly1305.o
 .debug_str     0x0000000000000000      0x2a4 build/default/production/_ext/1716827871/chacha20_poly1305.o
 .comment       0x0000000000000000       0x2c build/default/production/_ext/1716827871/chacha20_poly1305.o
 .ARM.attributes
                0x0000000000000000       0x39 build/default/production/_ext/1716827871/chacha20_poly1305.o
 .text          0x0000000000000000        0x0 build/default/production/_ext/1716827871/integer.o
 .data          0x0000000000000000        0x0 build/default/production/_ext/1716827871/integer.o
 .bss           0x0000000000000000        0x0 build/default/production/_ext/1716827871/integer.o
 .debug_info    0x0000000000000000       0x72 build/default/production/_ext/1716827871/integer.o
 .debug_abbrev  0x0000000000000000       0x26 build/default/production/_ext/1716827871/integer.o
 .debug_aranges
                0x0000000000000000       0x18 build/default/production/_ext/1716827871/integer.o
 .debug_line    0x0000000000000000       0x1d build/default/production/_ext/1716827871/integer.o
 .debug_str     0x0000000000000000      0x29a build/default/production/_ext/1716827871/integer.o
 .comment       0x0000000000000000       0x2c build/default/production/_ext/1716827871/integer.o
 .ARM.attributes
                0x0000000000000000       0x39 build/default/production/_ext/1716827871/integer.o
 .text          0x0000000000000000        0x0 build/default/production/_ext/1716827871/wc_kyber_poly.o
 .data          0x0000000000000000        0x0 build/default/production/_ext/1716827871/wc_kyber_poly.o
 .bss           0x0000000000000000        0x0 build/default/production/_ext/1716827871/wc_kyber_poly.o
 .debug_info    0x0000000000000000       0x79 build/default/production/_ext/1716827871/wc_kyber_poly.o
 .debug_abbrev  0x0000000000000000       0x26 build/default/production/_ext/1716827871/wc_kyber_poly.o
 .debug_aranges
                0x0000000000000000       0x18 build/default/production/_ext/1716827871/wc_kyber_poly.o
 .debug_line    0x0000000000000000       0x1d build/default/production/_ext/1716827871/wc_kyber_poly.o
 .debug_str     0x0000000000000000      0x2ac build/default/production/_ext/1716827871/wc_kyber_poly.o
 .comment       0x0000000000000000       0x2c build/default/production/_ext/1716827871/wc_kyber_poly.o
 .ARM.attributes
                0x0000000000000000       0x39 build/default/production/_ext/1716827871/wc_kyber_poly.o
 .text          0x0000000000000000     0x1c20 build/default/production/_ext/1716827871/sha3.o
 .data          0x0000000000000000        0x0 build/default/production/_ext/1716827871/sha3.o
 .bss           0x0000000000000000        0x0 build/default/production/_ext/1716827871/sha3.o
 .rodata        0x0000000000000000       0xc0 build/default/production/_ext/1716827871/sha3.o
 .debug_info    0x0000000000000000     0x2039 build/default/production/_ext/1716827871/sha3.o
 .debug_abbrev  0x0000000000000000      0x3a4 build/default/production/_ext/1716827871/sha3.o
 .debug_loc     0x0000000000000000     0x1fd9 build/default/production/_ext/1716827871/sha3.o
 .debug_aranges
                0x0000000000000000       0x20 build/default/production/_ext/1716827871/sha3.o
 .debug_ranges  0x0000000000000000       0xe0 build/default/production/_ext/1716827871/sha3.o
 .debug_line    0x0000000000000000      0xa1b build/default/production/_ext/1716827871/sha3.o
 .debug_str     0x0000000000000000     0x1721 build/default/production/_ext/1716827871/sha3.o
 .comment       0x0000000000000000       0x2c build/default/production/_ext/1716827871/sha3.o
 .debug_frame   0x0000000000000000      0x434 build/default/production/_ext/1716827871/sha3.o
 .ARM.attributes
                0x0000000000000000       0x34 build/default/production/_ext/1716827871/sha3.o
 .data          0x0000000000000000        0x0 build/default/production/_ext/1716827871/random.o
 .bss           0x0000000000000000        0x0 build/default/production/_ext/1716827871/random.o
 .text          0x0000000000000000        0x0 build/default/production/_ext/1716827871/ext_kyber.o
 .data          0x0000000000000000        0x0 build/default/production/_ext/1716827871/ext_kyber.o
 .bss           0x0000000000000000        0x0 build/default/production/_ext/1716827871/ext_kyber.o
 .debug_info    0x0000000000000000       0x79 build/default/production/_ext/1716827871/ext_kyber.o
 .debug_abbrev  0x0000000000000000       0x26 build/default/production/_ext/1716827871/ext_kyber.o
 .debug_aranges
                0x0000000000000000       0x18 build/default/production/_ext/1716827871/ext_kyber.o
 .debug_line    0x0000000000000000       0x1d build/default/production/_ext/1716827871/ext_kyber.o
 .debug_str     0x0000000000000000      0x2a8 build/default/production/_ext/1716827871/ext_kyber.o
 .comment       0x0000000000000000       0x2c build/default/production/_ext/1716827871/ext_kyber.o
 .ARM.attributes
                0x0000000000000000       0x39 build/default/production/_ext/1716827871/ext_kyber.o
 .text          0x0000000000000000        0x0 build/default/production/_ext/1716827871/ed448.o
 .data          0x0000000000000000        0x0 build/default/production/_ext/1716827871/ed448.o
 .bss           0x0000000000000000        0x0 build/default/production/_ext/1716827871/ed448.o
 .debug_info    0x0000000000000000       0x72 build/default/production/_ext/1716827871/ed448.o
 .debug_abbrev  0x0000000000000000       0x26 build/default/production/_ext/1716827871/ed448.o
 .debug_aranges
                0x0000000000000000       0x18 build/default/production/_ext/1716827871/ed448.o
 .debug_line    0x0000000000000000       0x1d build/default/production/_ext/1716827871/ed448.o
 .debug_str     0x0000000000000000      0x298 build/default/production/_ext/1716827871/ed448.o
 .comment       0x0000000000000000       0x2c build/default/production/_ext/1716827871/ed448.o
 .ARM.attributes
                0x0000000000000000       0x39 build/default/production/_ext/1716827871/ed448.o
 .text          0x0000000000000000     0x10f0 build/default/production/_ext/1716827871/eccsi.o
 .data          0x0000000000000000        0x0 build/default/production/_ext/1716827871/eccsi.o
 .bss           0x0000000000000000        0x0 build/default/production/_ext/1716827871/eccsi.o
 .debug_info    0x0000000000000000     0x4694 build/default/production/_ext/1716827871/eccsi.o
 .debug_abbrev  0x0000000000000000      0x4fd build/default/production/_ext/1716827871/eccsi.o
 .debug_loc     0x0000000000000000     0x507e build/default/production/_ext/1716827871/eccsi.o
 .debug_aranges
                0x0000000000000000       0x20 build/default/production/_ext/1716827871/eccsi.o
 .debug_ranges  0x0000000000000000      0x1c8 build/default/production/_ext/1716827871/eccsi.o
 .debug_line    0x0000000000000000     0x180e build/default/production/_ext/1716827871/eccsi.o
 .debug_str     0x0000000000000000     0x1bec build/default/production/_ext/1716827871/eccsi.o
 .comment       0x0000000000000000       0x2c build/default/production/_ext/1716827871/eccsi.o
 .debug_frame   0x0000000000000000      0x5a4 build/default/production/_ext/1716827871/eccsi.o
 .ARM.attributes
                0x0000000000000000       0x34 build/default/production/_ext/1716827871/eccsi.o
 .text          0x0000000000000000      0x3b8 build/default/production/_ext/1716827871/signature.o
 .data          0x0000000000000000        0x0 build/default/production/_ext/1716827871/signature.o
 .bss           0x0000000000000000        0x0 build/default/production/_ext/1716827871/signature.o
 .debug_info    0x0000000000000000     0x1900 build/default/production/_ext/1716827871/signature.o
 .debug_abbrev  0x0000000000000000      0x3ae build/default/production/_ext/1716827871/signature.o
 .debug_loc     0x0000000000000000     0x11dd build/default/production/_ext/1716827871/signature.o
 .debug_aranges
                0x0000000000000000       0x20 build/default/production/_ext/1716827871/signature.o
 .debug_ranges  0x0000000000000000       0x40 build/default/production/_ext/1716827871/signature.o
 .debug_line    0x0000000000000000      0x4f9 build/default/production/_ext/1716827871/signature.o
 .debug_str     0x0000000000000000     0x15e8 build/default/production/_ext/1716827871/signature.o
 .comment       0x0000000000000000       0x2c build/default/production/_ext/1716827871/signature.o
 .debug_frame   0x0000000000000000      0x174 build/default/production/_ext/1716827871/signature.o
 .ARM.attributes
                0x0000000000000000       0x34 build/default/production/_ext/1716827871/signature.o
 .text          0x0000000000000000        0x0 build/default/production/_ext/1716827871/memory.o
 .data          0x0000000000000000        0x0 build/default/production/_ext/1716827871/memory.o
 .bss           0x0000000000000000        0x0 build/default/production/_ext/1716827871/memory.o
 .debug_info    0x0000000000000000       0x79 build/default/production/_ext/1716827871/memory.o
 .debug_abbrev  0x0000000000000000       0x26 build/default/production/_ext/1716827871/memory.o
 .debug_aranges
                0x0000000000000000       0x18 build/default/production/_ext/1716827871/memory.o
 .debug_line    0x0000000000000000       0x1d build/default/production/_ext/1716827871/memory.o
 .debug_str     0x0000000000000000      0x2a5 build/default/production/_ext/1716827871/memory.o
 .comment       0x0000000000000000       0x2c build/default/production/_ext/1716827871/memory.o
 .ARM.attributes
                0x0000000000000000       0x39 build/default/production/_ext/1716827871/memory.o
 .text          0x0000000000000000      0x4b8 build/default/production/_ext/1716827871/chacha.o
 .data          0x0000000000000000        0x0 build/default/production/_ext/1716827871/chacha.o
 .bss           0x0000000000000000        0x0 build/default/production/_ext/1716827871/chacha.o
 .rodata        0x0000000000000000       0x20 build/default/production/_ext/1716827871/chacha.o
 .debug_info    0x0000000000000000      0xe5e build/default/production/_ext/1716827871/chacha.o
 .debug_abbrev  0x0000000000000000      0x30e build/default/production/_ext/1716827871/chacha.o
 .debug_loc     0x0000000000000000      0x824 build/default/production/_ext/1716827871/chacha.o
 .debug_aranges
                0x0000000000000000       0x20 build/default/production/_ext/1716827871/chacha.o
 .debug_ranges  0x0000000000000000       0x20 build/default/production/_ext/1716827871/chacha.o
 .debug_line    0x0000000000000000      0x4ac build/default/production/_ext/1716827871/chacha.o
 .debug_str     0x0000000000000000      0xfc4 build/default/production/_ext/1716827871/chacha.o
 .comment       0x0000000000000000       0x2c build/default/production/_ext/1716827871/chacha.o
 .debug_frame   0x0000000000000000      0x118 build/default/production/_ext/1716827871/chacha.o
 .ARM.attributes
                0x0000000000000000       0x34 build/default/production/_ext/1716827871/chacha.o
 .text          0x0000000000000000        0x0 build/default/production/_ext/1716827871/sp_arm32.o
 .data          0x0000000000000000        0x0 build/default/production/_ext/1716827871/sp_arm32.o
 .bss           0x0000000000000000        0x0 build/default/production/_ext/1716827871/sp_arm32.o
 .debug_info    0x0000000000000000       0x79 build/default/production/_ext/1716827871/sp_arm32.o
 .debug_abbrev  0x0000000000000000       0x26 build/default/production/_ext/1716827871/sp_arm32.o
 .debug_aranges
                0x0000000000000000       0x18 build/default/production/_ext/1716827871/sp_arm32.o
 .debug_line    0x0000000000000000       0x1d build/default/production/_ext/1716827871/sp_arm32.o
 .debug_str     0x0000000000000000      0x2a7 build/default/production/_ext/1716827871/sp_arm32.o
 .comment       0x0000000000000000       0x2c build/default/production/_ext/1716827871/sp_arm32.o
 .ARM.attributes
                0x0000000000000000       0x39 build/default/production/_ext/1716827871/sp_arm32.o
 .text          0x0000000000000000        0x0 build/default/production/_ext/1716827871/sp_sm2_armthumb.o
 .data          0x0000000000000000        0x0 build/default/production/_ext/1716827871/sp_sm2_armthumb.o
 .bss           0x0000000000000000        0x0 build/default/production/_ext/1716827871/sp_sm2_armthumb.o
 .debug_info    0x0000000000000000       0x72 build/default/production/_ext/1716827871/sp_sm2_armthumb.o
 .debug_abbrev  0x0000000000000000       0x26 build/default/production/_ext/1716827871/sp_sm2_armthumb.o
 .debug_aranges
                0x0000000000000000       0x18 build/default/production/_ext/1716827871/sp_sm2_armthumb.o
 .debug_line    0x0000000000000000       0x1d build/default/production/_ext/1716827871/sp_sm2_armthumb.o
 .debug_str     0x0000000000000000      0x2a2 build/default/production/_ext/1716827871/sp_sm2_armthumb.o
 .comment       0x0000000000000000       0x2c build/default/production/_ext/1716827871/sp_sm2_armthumb.o
 .ARM.attributes
                0x0000000000000000       0x39 build/default/production/_ext/1716827871/sp_sm2_armthumb.o
 .text          0x0000000000000000     0x2d94 build/default/production/_ext/1716827871/sp_int.o
 .data          0x0000000000000000        0x0 build/default/production/_ext/1716827871/sp_int.o
 .bss           0x0000000000000000        0x0 build/default/production/_ext/1716827871/sp_int.o
 .rodata        0x0000000000000000      0x248 build/default/production/_ext/1716827871/sp_int.o
 .debug_info    0x0000000000000000     0x793e build/default/production/_ext/1716827871/sp_int.o
 .debug_abbrev  0x0000000000000000      0x567 build/default/production/_ext/1716827871/sp_int.o
 .debug_loc     0x0000000000000000     0xdc4a build/default/production/_ext/1716827871/sp_int.o
 .debug_aranges
                0x0000000000000000       0x20 build/default/production/_ext/1716827871/sp_int.o
 .debug_ranges  0x0000000000000000     0x11b0 build/default/production/_ext/1716827871/sp_int.o
 .debug_line    0x0000000000000000     0x43bc build/default/production/_ext/1716827871/sp_int.o
 .debug_str     0x0000000000000000      0xdd2 build/default/production/_ext/1716827871/sp_int.o
 .comment       0x0000000000000000       0x2c build/default/production/_ext/1716827871/sp_int.o
 .debug_frame   0x0000000000000000      0xa84 build/default/production/_ext/1716827871/sp_int.o
 .ARM.attributes
                0x0000000000000000       0x34 build/default/production/_ext/1716827871/sp_int.o
 .text          0x0000000000000000        0x0 build/default/production/_ext/1716827871/dsa.o
 .data          0x0000000000000000        0x0 build/default/production/_ext/1716827871/dsa.o
 .bss           0x0000000000000000        0x0 build/default/production/_ext/1716827871/dsa.o
 .debug_info    0x0000000000000000       0x72 build/default/production/_ext/1716827871/dsa.o
 .debug_abbrev  0x0000000000000000       0x26 build/default/production/_ext/1716827871/dsa.o
 .debug_aranges
                0x0000000000000000       0x18 build/default/production/_ext/1716827871/dsa.o
 .debug_line    0x0000000000000000       0x1d build/default/production/_ext/1716827871/dsa.o
 .debug_str     0x0000000000000000      0x296 build/default/production/_ext/1716827871/dsa.o
 .comment       0x0000000000000000       0x2c build/default/production/_ext/1716827871/dsa.o
 .ARM.attributes
                0x0000000000000000       0x39 build/default/production/_ext/1716827871/dsa.o
 .text          0x0000000000000000        0x0 build/default/production/_ext/1716827871/sp_cortexm.o
 .data          0x0000000000000000        0x0 build/default/production/_ext/1716827871/sp_cortexm.o
 .bss           0x0000000000000000        0x0 build/default/production/_ext/1716827871/sp_cortexm.o
 .debug_info    0x0000000000000000       0x79 build/default/production/_ext/1716827871/sp_cortexm.o
 .debug_abbrev  0x0000000000000000       0x26 build/default/production/_ext/1716827871/sp_cortexm.o
 .debug_aranges
                0x0000000000000000       0x18 build/default/production/_ext/1716827871/sp_cortexm.o
 .debug_line    0x0000000000000000       0x1d build/default/production/_ext/1716827871/sp_cortexm.o
 .debug_str     0x0000000000000000      0x2a9 build/default/production/_ext/1716827871/sp_cortexm.o
 .comment       0x0000000000000000       0x2c build/default/production/_ext/1716827871/sp_cortexm.o
 .ARM.attributes
                0x0000000000000000       0x39 build/default/production/_ext/1716827871/sp_cortexm.o
 .text          0x0000000000000000        0x0 build/default/production/_ext/1716827871/cryptocb.o
 .data          0x0000000000000000        0x0 build/default/production/_ext/1716827871/cryptocb.o
 .bss           0x0000000000000000        0x0 build/default/production/_ext/1716827871/cryptocb.o
 .debug_info    0x0000000000000000       0x72 build/default/production/_ext/1716827871/cryptocb.o
 .debug_abbrev  0x0000000000000000       0x26 build/default/production/_ext/1716827871/cryptocb.o
 .debug_aranges
                0x0000000000000000       0x18 build/default/production/_ext/1716827871/cryptocb.o
 .debug_line    0x0000000000000000       0x1d build/default/production/_ext/1716827871/cryptocb.o
 .debug_str     0x0000000000000000      0x29b build/default/production/_ext/1716827871/cryptocb.o
 .comment       0x0000000000000000       0x2c build/default/production/_ext/1716827871/cryptocb.o
 .ARM.attributes
                0x0000000000000000       0x39 build/default/production/_ext/1716827871/cryptocb.o
 .text          0x0000000000000000        0x0 build/default/production/_ext/1716827871/sp_armthumb.o
 .data          0x0000000000000000        0x0 build/default/production/_ext/1716827871/sp_armthumb.o
 .bss           0x0000000000000000        0x0 build/default/production/_ext/1716827871/sp_armthumb.o
 .debug_info    0x0000000000000000       0x79 build/default/production/_ext/1716827871/sp_armthumb.o
 .debug_abbrev  0x0000000000000000       0x26 build/default/production/_ext/1716827871/sp_armthumb.o
 .debug_aranges
                0x0000000000000000       0x18 build/default/production/_ext/1716827871/sp_armthumb.o
 .debug_line    0x0000000000000000       0x1d build/default/production/_ext/1716827871/sp_armthumb.o
 .debug_str     0x0000000000000000      0x2aa build/default/production/_ext/1716827871/sp_armthumb.o
 .comment       0x0000000000000000       0x2c build/default/production/_ext/1716827871/sp_armthumb.o
 .ARM.attributes
                0x0000000000000000       0x39 build/default/production/_ext/1716827871/sp_armthumb.o
 .data          0x0000000000000000        0x0 build/default/production/_ext/1716827871/aes.o
 .bss           0x0000000000000000        0x0 build/default/production/_ext/1716827871/aes.o
 .text          0x0000000000000000        0x0 build/default/production/_ext/1716827871/cpuid.o
 .data          0x0000000000000000        0x0 build/default/production/_ext/1716827871/cpuid.o
 .bss           0x0000000000000000        0x0 build/default/production/_ext/1716827871/cpuid.o
 .debug_info    0x0000000000000000       0x79 build/default/production/_ext/1716827871/cpuid.o
 .debug_abbrev  0x0000000000000000       0x26 build/default/production/_ext/1716827871/cpuid.o
 .debug_aranges
                0x0000000000000000       0x18 build/default/production/_ext/1716827871/cpuid.o
 .debug_line    0x0000000000000000       0x1d build/default/production/_ext/1716827871/cpuid.o
 .debug_str     0x0000000000000000      0x2a4 build/default/production/_ext/1716827871/cpuid.o
 .comment       0x0000000000000000       0x2c build/default/production/_ext/1716827871/cpuid.o
 .ARM.attributes
                0x0000000000000000       0x39 build/default/production/_ext/1716827871/cpuid.o
 .text          0x0000000000000000     0x255c build/default/production/_ext/1716827871/sha512.o
 .data          0x0000000000000000        0x0 build/default/production/_ext/1716827871/sha512.o
 .bss           0x0000000000000000        0x0 build/default/production/_ext/1716827871/sha512.o
 .rodata        0x0000000000000000      0x280 build/default/production/_ext/1716827871/sha512.o
 .debug_info    0x0000000000000000     0x27dd build/default/production/_ext/1716827871/sha512.o
 .debug_abbrev  0x0000000000000000      0x431 build/default/production/_ext/1716827871/sha512.o
 .debug_loc     0x0000000000000000     0x1ad2 build/default/production/_ext/1716827871/sha512.o
 .debug_aranges
                0x0000000000000000       0x20 build/default/production/_ext/1716827871/sha512.o
 .debug_ranges  0x0000000000000000       0xf8 build/default/production/_ext/1716827871/sha512.o
 .debug_line    0x0000000000000000      0xcc3 build/default/production/_ext/1716827871/sha512.o
 .debug_str     0x0000000000000000     0x15e5 build/default/production/_ext/1716827871/sha512.o
 .comment       0x0000000000000000       0x2c build/default/production/_ext/1716827871/sha512.o
 .debug_frame   0x0000000000000000      0x400 build/default/production/_ext/1716827871/sha512.o
 .ARM.attributes
                0x0000000000000000       0x34 build/default/production/_ext/1716827871/sha512.o
 .text          0x0000000000000000        0x0 build/default/production/_ext/1716827871/srp.o
 .data          0x0000000000000000        0x0 build/default/production/_ext/1716827871/srp.o
 .bss           0x0000000000000000        0x0 build/default/production/_ext/1716827871/srp.o
 .debug_info    0x0000000000000000       0x72 build/default/production/_ext/1716827871/srp.o
 .debug_abbrev  0x0000000000000000       0x26 build/default/production/_ext/1716827871/srp.o
 .debug_aranges
                0x0000000000000000       0x18 build/default/production/_ext/1716827871/srp.o
 .debug_line    0x0000000000000000       0x1d build/default/production/_ext/1716827871/srp.o
 .debug_str     0x0000000000000000      0x296 build/default/production/_ext/1716827871/srp.o
 .comment       0x0000000000000000       0x2c build/default/production/_ext/1716827871/srp.o
 .ARM.attributes
                0x0000000000000000       0x39 build/default/production/_ext/1716827871/srp.o
 .text          0x0000000000000000      0x890 build/default/production/_ext/1716827871/dh.o
 .data          0x0000000000000000        0x0 build/default/production/_ext/1716827871/dh.o
 .bss           0x0000000000000000        0x0 build/default/production/_ext/1716827871/dh.o
 .debug_info    0x0000000000000000     0x2563 build/default/production/_ext/1716827871/dh.o
 .debug_abbrev  0x0000000000000000      0x3a5 build/default/production/_ext/1716827871/dh.o
 .debug_loc     0x0000000000000000     0x2288 build/default/production/_ext/1716827871/dh.o
 .debug_aranges
                0x0000000000000000       0x20 build/default/production/_ext/1716827871/dh.o
 .debug_ranges  0x0000000000000000       0xc0 build/default/production/_ext/1716827871/dh.o
 .debug_line    0x0000000000000000      0xaec build/default/production/_ext/1716827871/dh.o
 .debug_str     0x0000000000000000     0x11ec build/default/production/_ext/1716827871/dh.o
 .comment       0x0000000000000000       0x2c build/default/production/_ext/1716827871/dh.o
 .debug_frame   0x0000000000000000      0x31c build/default/production/_ext/1716827871/dh.o
 .ARM.attributes
                0x0000000000000000       0x34 build/default/production/_ext/1716827871/dh.o
 .text          0x0000000000000000        0x0 build/default/production/_ext/1716827871/sp_sm2_arm64.o
 .data          0x0000000000000000        0x0 build/default/production/_ext/1716827871/sp_sm2_arm64.o
 .bss           0x0000000000000000        0x0 build/default/production/_ext/1716827871/sp_sm2_arm64.o
 .debug_info    0x0000000000000000       0x72 build/default/production/_ext/1716827871/sp_sm2_arm64.o
 .debug_abbrev  0x0000000000000000       0x26 build/default/production/_ext/1716827871/sp_sm2_arm64.o
 .debug_aranges
                0x0000000000000000       0x18 build/default/production/_ext/1716827871/sp_sm2_arm64.o
 .debug_line    0x0000000000000000       0x1d build/default/production/_ext/1716827871/sp_sm2_arm64.o
 .debug_str     0x0000000000000000      0x29f build/default/production/_ext/1716827871/sp_sm2_arm64.o
 .comment       0x0000000000000000       0x2c build/default/production/_ext/1716827871/sp_sm2_arm64.o
 .ARM.attributes
                0x0000000000000000       0x39 build/default/production/_ext/1716827871/sp_sm2_arm64.o
 .text          0x0000000000000000        0x0 build/default/production/_ext/1716827871/sp_x86_64.o
 .data          0x0000000000000000        0x0 build/default/production/_ext/1716827871/sp_x86_64.o
 .bss           0x0000000000000000        0x0 build/default/production/_ext/1716827871/sp_x86_64.o
 .debug_info    0x0000000000000000       0x79 build/default/production/_ext/1716827871/sp_x86_64.o
 .debug_abbrev  0x0000000000000000       0x26 build/default/production/_ext/1716827871/sp_x86_64.o
 .debug_aranges
                0x0000000000000000       0x18 build/default/production/_ext/1716827871/sp_x86_64.o
 .debug_line    0x0000000000000000       0x1d build/default/production/_ext/1716827871/sp_x86_64.o
 .debug_str     0x0000000000000000      0x2a8 build/default/production/_ext/1716827871/sp_x86_64.o
 .comment       0x0000000000000000       0x2c build/default/production/_ext/1716827871/sp_x86_64.o
 .ARM.attributes
                0x0000000000000000       0x39 build/default/production/_ext/1716827871/sp_x86_64.o
 .text          0x0000000000000000        0x0 build/default/production/_ext/1716827871/tfm.o
 .data          0x0000000000000000        0x0 build/default/production/_ext/1716827871/tfm.o
 .bss           0x0000000000000000        0x0 build/default/production/_ext/1716827871/tfm.o
 .debug_info    0x0000000000000000       0x72 build/default/production/_ext/1716827871/tfm.o
 .debug_abbrev  0x0000000000000000       0x26 build/default/production/_ext/1716827871/tfm.o
 .debug_aranges
                0x0000000000000000       0x18 build/default/production/_ext/1716827871/tfm.o
 .debug_line    0x0000000000000000       0x1d build/default/production/_ext/1716827871/tfm.o
 .debug_str     0x0000000000000000      0x296 build/default/production/_ext/1716827871/tfm.o
 .comment       0x0000000000000000       0x2c build/default/production/_ext/1716827871/tfm.o
 .ARM.attributes
                0x0000000000000000       0x39 build/default/production/_ext/1716827871/tfm.o
 .text          0x0000000000000000     0x165c build/default/production/_ext/1716827871/sp_c32.o
 .data          0x0000000000000000        0x0 build/default/production/_ext/1716827871/sp_c32.o
 .bss           0x0000000000000000        0x0 build/default/production/_ext/1716827871/sp_c32.o
 .debug_info    0x0000000000000000     0x2f83 build/default/production/_ext/1716827871/sp_c32.o
 .debug_abbrev  0x0000000000000000      0x3b8 build/default/production/_ext/1716827871/sp_c32.o
 .debug_loc     0x0000000000000000     0x4936 build/default/production/_ext/1716827871/sp_c32.o
 .debug_aranges
                0x0000000000000000       0x20 build/default/production/_ext/1716827871/sp_c32.o
 .debug_ranges  0x0000000000000000      0x1b0 build/default/production/_ext/1716827871/sp_c32.o
 .debug_line    0x0000000000000000     0x18b6 build/default/production/_ext/1716827871/sp_c32.o
 .debug_str     0x0000000000000000     0x1203 build/default/production/_ext/1716827871/sp_c32.o
 .comment       0x0000000000000000       0x2c build/default/production/_ext/1716827871/sp_c32.o
 .debug_frame   0x0000000000000000      0x43c build/default/production/_ext/1716827871/sp_c32.o
 .ARM.attributes
                0x0000000000000000       0x34 build/default/production/_ext/1716827871/sp_c32.o
 .text          0x0000000000000000        0x0 build/default/production/_ext/1716827871/wc_xmss.o
 .data          0x0000000000000000        0x0 build/default/production/_ext/1716827871/wc_xmss.o
 .bss           0x0000000000000000        0x0 build/default/production/_ext/1716827871/wc_xmss.o
 .debug_info    0x0000000000000000       0x72 build/default/production/_ext/1716827871/wc_xmss.o
 .debug_abbrev  0x0000000000000000       0x26 build/default/production/_ext/1716827871/wc_xmss.o
 .debug_aranges
                0x0000000000000000       0x18 build/default/production/_ext/1716827871/wc_xmss.o
 .debug_line    0x0000000000000000       0x1d build/default/production/_ext/1716827871/wc_xmss.o
 .debug_str     0x0000000000000000      0x29a build/default/production/_ext/1716827871/wc_xmss.o
 .comment       0x0000000000000000       0x2c build/default/production/_ext/1716827871/wc_xmss.o
 .ARM.attributes
                0x0000000000000000       0x39 build/default/production/_ext/1716827871/wc_xmss.o
 .text          0x0000000000000000        0x0 build/default/production/_ext/1716827871/sakke.o
 .data          0x0000000000000000        0x0 build/default/production/_ext/1716827871/sakke.o
 .bss           0x0000000000000000        0x0 build/default/production/_ext/1716827871/sakke.o
 .debug_info    0x0000000000000000       0x79 build/default/production/_ext/1716827871/sakke.o
 .debug_abbrev  0x0000000000000000       0x26 build/default/production/_ext/1716827871/sakke.o
 .debug_aranges
                0x0000000000000000       0x18 build/default/production/_ext/1716827871/sakke.o
 .debug_line    0x0000000000000000       0x1d build/default/production/_ext/1716827871/sakke.o
 .debug_str     0x0000000000000000      0x2a4 build/default/production/_ext/1716827871/sakke.o
 .comment       0x0000000000000000       0x2c build/default/production/_ext/1716827871/sakke.o
 .ARM.attributes
                0x0000000000000000       0x39 build/default/production/_ext/1716827871/sakke.o
 .text          0x0000000000000000     0x1770 build/default/production/_ext/1716827871/sha.o
 .data          0x0000000000000000        0x0 build/default/production/_ext/1716827871/sha.o
 .bss           0x0000000000000000        0x0 build/default/production/_ext/1716827871/sha.o
 .debug_info    0x0000000000000000     0x27bf build/default/production/_ext/1716827871/sha.o
 .debug_abbrev  0x0000000000000000      0x2d2 build/default/production/_ext/1716827871/sha.o
 .debug_loc     0x0000000000000000     0x2442 build/default/production/_ext/1716827871/sha.o
 .debug_aranges
                0x0000000000000000       0x20 build/default/production/_ext/1716827871/sha.o
 .debug_ranges  0x0000000000000000       0xa0 build/default/production/_ext/1716827871/sha.o
 .debug_line    0x0000000000000000      0xb46 build/default/production/_ext/1716827871/sha.o
 .debug_str     0x0000000000000000      0xed6 build/default/production/_ext/1716827871/sha.o
 .comment       0x0000000000000000       0x2c build/default/production/_ext/1716827871/sha.o
 .debug_frame   0x0000000000000000      0x138 build/default/production/_ext/1716827871/sha.o
 .ARM.attributes
                0x0000000000000000       0x34 build/default/production/_ext/1716827871/sha.o
 .text          0x0000000000000000        0x0 build/default/production/_ext/1716827871/hmac.o
 .data          0x0000000000000000        0x0 build/default/production/_ext/1716827871/hmac.o
 .bss           0x0000000000000000        0x0 build/default/production/_ext/1716827871/hmac.o
 .debug_info    0x0000000000000000       0x79 build/default/production/_ext/1716827871/hmac.o
 .debug_abbrev  0x0000000000000000       0x26 build/default/production/_ext/1716827871/hmac.o
 .debug_aranges
                0x0000000000000000       0x18 build/default/production/_ext/1716827871/hmac.o
 .debug_line    0x0000000000000000       0x1d build/default/production/_ext/1716827871/hmac.o
 .debug_str     0x0000000000000000      0x2a3 build/default/production/_ext/1716827871/hmac.o
 .comment       0x0000000000000000       0x2c build/default/production/_ext/1716827871/hmac.o
 .ARM.attributes
                0x0000000000000000       0x39 build/default/production/_ext/1716827871/hmac.o
 .text          0x0000000000000000        0x0 build/default/production/_ext/1716827871/sp_sm2_arm32.o
 .data          0x0000000000000000        0x0 build/default/production/_ext/1716827871/sp_sm2_arm32.o
 .bss           0x0000000000000000        0x0 build/default/production/_ext/1716827871/sp_sm2_arm32.o
 .debug_info    0x0000000000000000       0x72 build/default/production/_ext/1716827871/sp_sm2_arm32.o
 .debug_abbrev  0x0000000000000000       0x26 build/default/production/_ext/1716827871/sp_sm2_arm32.o
 .debug_aranges
                0x0000000000000000       0x18 build/default/production/_ext/1716827871/sp_sm2_arm32.o
 .debug_line    0x0000000000000000       0x1d build/default/production/_ext/1716827871/sp_sm2_arm32.o
 .debug_str     0x0000000000000000      0x29f build/default/production/_ext/1716827871/sp_sm2_arm32.o
 .comment       0x0000000000000000       0x2c build/default/production/_ext/1716827871/sp_sm2_arm32.o
 .ARM.attributes
                0x0000000000000000       0x39 build/default/production/_ext/1716827871/sp_sm2_arm32.o
 .text          0x0000000000000000        0x0 build/default/production/_ext/1716827871/wc_pkcs11.o
 .data          0x0000000000000000        0x0 build/default/production/_ext/1716827871/wc_pkcs11.o
 .bss           0x0000000000000000        0x0 build/default/production/_ext/1716827871/wc_pkcs11.o
 .debug_info    0x0000000000000000       0x72 build/default/production/_ext/1716827871/wc_pkcs11.o
 .debug_abbrev  0x0000000000000000       0x26 build/default/production/_ext/1716827871/wc_pkcs11.o
 .debug_aranges
                0x0000000000000000       0x18 build/default/production/_ext/1716827871/wc_pkcs11.o
 .debug_line    0x0000000000000000       0x1d build/default/production/_ext/1716827871/wc_pkcs11.o
 .debug_str     0x0000000000000000      0x29c build/default/production/_ext/1716827871/wc_pkcs11.o
 .comment       0x0000000000000000       0x2c build/default/production/_ext/1716827871/wc_pkcs11.o
 .ARM.attributes
                0x0000000000000000       0x39 build/default/production/_ext/1716827871/wc_pkcs11.o
 .text          0x0000000000000000      0x9e0 build/default/production/_ext/1716827871/hash.o
 .data          0x0000000000000000        0x0 build/default/production/_ext/1716827871/hash.o
 .bss           0x0000000000000000        0x0 build/default/production/_ext/1716827871/hash.o
 .rodata        0x0000000000000000       0xd4 build/default/production/_ext/1716827871/hash.o
 .debug_info    0x0000000000000000     0x349e build/default/production/_ext/1716827871/hash.o
 .debug_abbrev  0x0000000000000000      0x3fc build/default/production/_ext/1716827871/hash.o
 .debug_loc     0x0000000000000000     0x4773 build/default/production/_ext/1716827871/hash.o
 .debug_aranges
                0x0000000000000000       0x20 build/default/production/_ext/1716827871/hash.o
 .debug_ranges  0x0000000000000000       0x30 build/default/production/_ext/1716827871/hash.o
 .debug_line    0x0000000000000000      0xd97 build/default/production/_ext/1716827871/hash.o
 .debug_str     0x0000000000000000     0x1b09 build/default/production/_ext/1716827871/hash.o
 .comment       0x0000000000000000       0x2c build/default/production/_ext/1716827871/hash.o
 .debug_frame   0x0000000000000000      0x6fc build/default/production/_ext/1716827871/hash.o
 .ARM.attributes
                0x0000000000000000       0x34 build/default/production/_ext/1716827871/hash.o
 .text          0x0000000000000000        0x0 build/default/production/_ext/1716827871/compress.o
 .data          0x0000000000000000        0x0 build/default/production/_ext/1716827871/compress.o
 .bss           0x0000000000000000        0x0 build/default/production/_ext/1716827871/compress.o
 .debug_info    0x0000000000000000       0x72 build/default/production/_ext/1716827871/compress.o
 .debug_abbrev  0x0000000000000000       0x26 build/default/production/_ext/1716827871/compress.o
 .debug_aranges
                0x0000000000000000       0x18 build/default/production/_ext/1716827871/compress.o
 .debug_line    0x0000000000000000       0x1d build/default/production/_ext/1716827871/compress.o
 .debug_str     0x0000000000000000      0x29b build/default/production/_ext/1716827871/compress.o
 .comment       0x0000000000000000       0x2c build/default/production/_ext/1716827871/compress.o
 .ARM.attributes
                0x0000000000000000       0x39 build/default/production/_ext/1716827871/compress.o
 .text          0x0000000000000000     0x1a8c build/default/production/_ext/1716827871/ripemd.o
 .data          0x0000000000000000        0x0 build/default/production/_ext/1716827871/ripemd.o
 .bss           0x0000000000000000        0x0 build/default/production/_ext/1716827871/ripemd.o
 .debug_info    0x0000000000000000     0x2abb build/default/production/_ext/1716827871/ripemd.o
 .debug_abbrev  0x0000000000000000      0x25d build/default/production/_ext/1716827871/ripemd.o
 .debug_loc     0x0000000000000000     0x427e build/default/production/_ext/1716827871/ripemd.o
 .debug_aranges
                0x0000000000000000       0x20 build/default/production/_ext/1716827871/ripemd.o
 .debug_ranges  0x0000000000000000       0x70 build/default/production/_ext/1716827871/ripemd.o
 .debug_line    0x0000000000000000      0x9be build/default/production/_ext/1716827871/ripemd.o
 .debug_str     0x0000000000000000      0xe6b build/default/production/_ext/1716827871/ripemd.o
 .comment       0x0000000000000000       0x2c build/default/production/_ext/1716827871/ripemd.o
 .debug_frame   0x0000000000000000       0xb8 build/default/production/_ext/1716827871/ripemd.o
 .ARM.attributes
                0x0000000000000000       0x34 build/default/production/_ext/1716827871/ripemd.o
 .text          0x0000000000000000      0x6b4 build/default/production/_ext/1716827871/des3.o
 .data          0x0000000000000000        0x0 build/default/production/_ext/1716827871/des3.o
 .bss           0x0000000000000000        0x0 build/default/production/_ext/1716827871/des3.o
 .rodata        0x0000000000000000      0x898 build/default/production/_ext/1716827871/des3.o
 .debug_info    0x0000000000000000     0x14ba build/default/production/_ext/1716827871/des3.o
 .debug_abbrev  0x0000000000000000      0x305 build/default/production/_ext/1716827871/des3.o
 .debug_loc     0x0000000000000000     0x1189 build/default/production/_ext/1716827871/des3.o
 .debug_aranges
                0x0000000000000000       0x20 build/default/production/_ext/1716827871/des3.o
 .debug_ranges  0x0000000000000000       0x58 build/default/production/_ext/1716827871/des3.o
 .debug_line    0x0000000000000000      0x7aa build/default/production/_ext/1716827871/des3.o
 .debug_str     0x0000000000000000     0x102b build/default/production/_ext/1716827871/des3.o
 .comment       0x0000000000000000       0x2c build/default/production/_ext/1716827871/des3.o
 .debug_frame   0x0000000000000000      0x21c build/default/production/_ext/1716827871/des3.o
 .ARM.attributes
                0x0000000000000000       0x34 build/default/production/_ext/1716827871/des3.o
 .text          0x0000000000000000        0x0 build/default/production/_ext/1716827871/sp_sm2_x86_64.o
 .data          0x0000000000000000        0x0 build/default/production/_ext/1716827871/sp_sm2_x86_64.o
 .bss           0x0000000000000000        0x0 build/default/production/_ext/1716827871/sp_sm2_x86_64.o
 .debug_info    0x0000000000000000       0x72 build/default/production/_ext/1716827871/sp_sm2_x86_64.o
 .debug_abbrev  0x0000000000000000       0x26 build/default/production/_ext/1716827871/sp_sm2_x86_64.o
 .debug_aranges
                0x0000000000000000       0x18 build/default/production/_ext/1716827871/sp_sm2_x86_64.o
 .debug_line    0x0000000000000000       0x1d build/default/production/_ext/1716827871/sp_sm2_x86_64.o
 .debug_str     0x0000000000000000      0x2a0 build/default/production/_ext/1716827871/sp_sm2_x86_64.o
 .comment       0x0000000000000000       0x2c build/default/production/_ext/1716827871/sp_sm2_x86_64.o
 .ARM.attributes
                0x0000000000000000       0x39 build/default/production/_ext/1716827871/sp_sm2_x86_64.o
 .text          0x0000000000000000        0x0 build/default/production/_ext/1716827871/poly1305.o
 .data          0x0000000000000000        0x0 build/default/production/_ext/1716827871/poly1305.o
 .bss           0x0000000000000000        0x0 build/default/production/_ext/1716827871/poly1305.o
 .debug_info    0x0000000000000000       0x72 build/default/production/_ext/1716827871/poly1305.o
 .debug_abbrev  0x0000000000000000       0x26 build/default/production/_ext/1716827871/poly1305.o
 .debug_aranges
                0x0000000000000000       0x18 build/default/production/_ext/1716827871/poly1305.o
 .debug_line    0x0000000000000000       0x1d build/default/production/_ext/1716827871/poly1305.o
 .debug_str     0x0000000000000000      0x29b build/default/production/_ext/1716827871/poly1305.o
 .comment       0x0000000000000000       0x2c build/default/production/_ext/1716827871/poly1305.o
 .ARM.attributes
                0x0000000000000000       0x39 build/default/production/_ext/1716827871/poly1305.o
 .text          0x0000000000000000        0x0 build/default/production/_ext/1716827871/pkcs12.o
 .data          0x0000000000000000        0x0 build/default/production/_ext/1716827871/pkcs12.o
 .bss           0x0000000000000000        0x0 build/default/production/_ext/1716827871/pkcs12.o
 .debug_info    0x0000000000000000       0x72 build/default/production/_ext/1716827871/pkcs12.o
 .debug_abbrev  0x0000000000000000       0x26 build/default/production/_ext/1716827871/pkcs12.o
 .debug_aranges
                0x0000000000000000       0x18 build/default/production/_ext/1716827871/pkcs12.o
 .debug_line    0x0000000000000000       0x1d build/default/production/_ext/1716827871/pkcs12.o
 .debug_str     0x0000000000000000      0x299 build/default/production/_ext/1716827871/pkcs12.o
 .comment       0x0000000000000000       0x2c build/default/production/_ext/1716827871/pkcs12.o
 .ARM.attributes
                0x0000000000000000       0x39 build/default/production/_ext/1716827871/pkcs12.o
 .text          0x0000000000000000        0x0 build/default/production/_ext/1716827871/pkcs7.o
 .data          0x0000000000000000        0x0 build/default/production/_ext/1716827871/pkcs7.o
 .bss           0x0000000000000000        0x0 build/default/production/_ext/1716827871/pkcs7.o
 .debug_info    0x0000000000000000       0x72 build/default/production/_ext/1716827871/pkcs7.o
 .debug_abbrev  0x0000000000000000       0x26 build/default/production/_ext/1716827871/pkcs7.o
 .debug_aranges
                0x0000000000000000       0x18 build/default/production/_ext/1716827871/pkcs7.o
 .debug_line    0x0000000000000000       0x1d build/default/production/_ext/1716827871/pkcs7.o
 .debug_str     0x0000000000000000      0x298 build/default/production/_ext/1716827871/pkcs7.o
 .comment       0x0000000000000000       0x2c build/default/production/_ext/1716827871/pkcs7.o
 .ARM.attributes
                0x0000000000000000       0x39 build/default/production/_ext/1716827871/pkcs7.o
 .text          0x0000000000000000        0x0 build/default/production/_ext/1716827871/pwdbased.o
 .data          0x0000000000000000        0x0 build/default/production/_ext/1716827871/pwdbased.o
 .bss           0x0000000000000000        0x0 build/default/production/_ext/1716827871/pwdbased.o
 .debug_info    0x0000000000000000       0x72 build/default/production/_ext/1716827871/pwdbased.o
 .debug_abbrev  0x0000000000000000       0x26 build/default/production/_ext/1716827871/pwdbased.o
 .debug_aranges
                0x0000000000000000       0x18 build/default/production/_ext/1716827871/pwdbased.o
 .debug_line    0x0000000000000000       0x1d build/default/production/_ext/1716827871/pwdbased.o
 .debug_str     0x0000000000000000      0x29b build/default/production/_ext/1716827871/pwdbased.o
 .comment       0x0000000000000000       0x2c build/default/production/_ext/1716827871/pwdbased.o
 .ARM.attributes
                0x0000000000000000       0x39 build/default/production/_ext/1716827871/pwdbased.o
 .text          0x0000000000000000      0xa74 build/default/production/_ext/1716827871/ed25519.o
 .data          0x0000000000000000        0x0 build/default/production/_ext/1716827871/ed25519.o
 .bss           0x0000000000000000        0x0 build/default/production/_ext/1716827871/ed25519.o
 .rodata        0x0000000000000000       0x34 build/default/production/_ext/1716827871/ed25519.o
 .debug_info    0x0000000000000000     0x3316 build/default/production/_ext/1716827871/ed25519.o
 .debug_abbrev  0x0000000000000000      0x4c8 build/default/production/_ext/1716827871/ed25519.o
 .debug_loc     0x0000000000000000     0x3211 build/default/production/_ext/1716827871/ed25519.o
 .debug_aranges
                0x0000000000000000       0x20 build/default/production/_ext/1716827871/ed25519.o
 .debug_ranges  0x0000000000000000       0xc8 build/default/production/_ext/1716827871/ed25519.o
 .debug_line    0x0000000000000000      0xe78 build/default/production/_ext/1716827871/ed25519.o
 .debug_str     0x0000000000000000     0x17b9 build/default/production/_ext/1716827871/ed25519.o
 .comment       0x0000000000000000       0x2c build/default/production/_ext/1716827871/ed25519.o
 .debug_frame   0x0000000000000000      0x3e0 build/default/production/_ext/1716827871/ed25519.o
 .ARM.attributes
                0x0000000000000000       0x34 build/default/production/_ext/1716827871/ed25519.o
 .text          0x0000000000000000        0x0 build/default/production/_ext/1716827871/sp_arm64.o
 .data          0x0000000000000000        0x0 build/default/production/_ext/1716827871/sp_arm64.o
 .bss           0x0000000000000000        0x0 build/default/production/_ext/1716827871/sp_arm64.o
 .debug_info    0x0000000000000000       0x79 build/default/production/_ext/1716827871/sp_arm64.o
 .debug_abbrev  0x0000000000000000       0x26 build/default/production/_ext/1716827871/sp_arm64.o
 .debug_aranges
                0x0000000000000000       0x18 build/default/production/_ext/1716827871/sp_arm64.o
 .debug_line    0x0000000000000000       0x1d build/default/production/_ext/1716827871/sp_arm64.o
 .debug_str     0x0000000000000000      0x2a7 build/default/production/_ext/1716827871/sp_arm64.o
 .comment       0x0000000000000000       0x2c build/default/production/_ext/1716827871/sp_arm64.o
 .ARM.attributes
                0x0000000000000000       0x39 build/default/production/_ext/1716827871/sp_arm64.o
 .text          0x0000000000000000        0x0 build/default/production/_ext/1716827871/sp_c64.o
 .data          0x0000000000000000        0x0 build/default/production/_ext/1716827871/sp_c64.o
 .bss           0x0000000000000000        0x0 build/default/production/_ext/1716827871/sp_c64.o
 .debug_info    0x0000000000000000       0x79 build/default/production/_ext/1716827871/sp_c64.o
 .debug_abbrev  0x0000000000000000       0x26 build/default/production/_ext/1716827871/sp_c64.o
 .debug_aranges
                0x0000000000000000       0x18 build/default/production/_ext/1716827871/sp_c64.o
 .debug_line    0x0000000000000000       0x1d build/default/production/_ext/1716827871/sp_c64.o
 .debug_str     0x0000000000000000      0x2a5 build/default/production/_ext/1716827871/sp_c64.o
 .comment       0x0000000000000000       0x2c build/default/production/_ext/1716827871/sp_c64.o
 .ARM.attributes
                0x0000000000000000       0x39 build/default/production/_ext/1716827871/sp_c64.o
 .text          0x0000000000000000        0x0 build/default/production/_ext/1716827871/wc_kyber.o
 .data          0x0000000000000000        0x0 build/default/production/_ext/1716827871/wc_kyber.o
 .bss           0x0000000000000000        0x0 build/default/production/_ext/1716827871/wc_kyber.o
 .debug_info    0x0000000000000000       0x79 build/default/production/_ext/1716827871/wc_kyber.o
 .debug_abbrev  0x0000000000000000       0x26 build/default/production/_ext/1716827871/wc_kyber.o
 .debug_aranges
                0x0000000000000000       0x18 build/default/production/_ext/1716827871/wc_kyber.o
 .debug_line    0x0000000000000000       0x1d build/default/production/_ext/1716827871/wc_kyber.o
 .debug_str     0x0000000000000000      0x2a7 build/default/production/_ext/1716827871/wc_kyber.o
 .comment       0x0000000000000000       0x2c build/default/production/_ext/1716827871/wc_kyber.o
 .ARM.attributes
                0x0000000000000000       0x39 build/default/production/_ext/1716827871/wc_kyber.o
 .text          0x0000000000000000        0x0 build/default/production/_ext/1716827871/error.o
 .data          0x0000000000000000        0x0 build/default/production/_ext/1716827871/error.o
 .bss           0x0000000000000000        0x0 build/default/production/_ext/1716827871/error.o
 .debug_info    0x0000000000000000       0x79 build/default/production/_ext/1716827871/error.o
 .debug_abbrev  0x0000000000000000       0x26 build/default/production/_ext/1716827871/error.o
 .debug_aranges
                0x0000000000000000       0x18 build/default/production/_ext/1716827871/error.o
 .debug_line    0x0000000000000000       0x1d build/default/production/_ext/1716827871/error.o
 .debug_str     0x0000000000000000      0x2a4 build/default/production/_ext/1716827871/error.o
 .comment       0x0000000000000000       0x2c build/default/production/_ext/1716827871/error.o
 .ARM.attributes
                0x0000000000000000       0x39 build/default/production/_ext/1716827871/error.o
 .text          0x0000000000000000        0x0 build/default/production/_ext/1716827871/asm.o
 .data          0x0000000000000000        0x0 build/default/production/_ext/1716827871/asm.o
 .bss           0x0000000000000000        0x0 build/default/production/_ext/1716827871/asm.o
 .debug_info    0x0000000000000000       0x72 build/default/production/_ext/1716827871/asm.o
 .debug_abbrev  0x0000000000000000       0x26 build/default/production/_ext/1716827871/asm.o
 .debug_aranges
                0x0000000000000000       0x18 build/default/production/_ext/1716827871/asm.o
 .debug_line    0x0000000000000000       0x1d build/default/production/_ext/1716827871/asm.o
 .debug_str     0x0000000000000000      0x296 build/default/production/_ext/1716827871/asm.o
 .comment       0x0000000000000000       0x2c build/default/production/_ext/1716827871/asm.o
 .ARM.attributes
                0x0000000000000000       0x39 build/default/production/_ext/1716827871/asm.o
 .text          0x0000000000000000        0x0 build/default/production/_ext/1716827871/sm3.o
 .data          0x0000000000000000        0x0 build/default/production/_ext/1716827871/sm3.o
 .bss           0x0000000000000000        0x0 build/default/production/_ext/1716827871/sm3.o
 .debug_info    0x0000000000000000       0x72 build/default/production/_ext/1716827871/sm3.o
 .debug_abbrev  0x0000000000000000       0x26 build/default/production/_ext/1716827871/sm3.o
 .debug_aranges
                0x0000000000000000       0x18 build/default/production/_ext/1716827871/sm3.o
 .debug_line    0x0000000000000000       0x1d build/default/production/_ext/1716827871/sm3.o
 .debug_str     0x0000000000000000      0x296 build/default/production/_ext/1716827871/sm3.o
 .comment       0x0000000000000000       0x2c build/default/production/_ext/1716827871/sm3.o
 .ARM.attributes
                0x0000000000000000       0x39 build/default/production/_ext/1716827871/sm3.o
 .text          0x0000000000000000        0x0 build/default/production/_ext/1716827871/sphincs.o
 .data          0x0000000000000000        0x0 build/default/production/_ext/1716827871/sphincs.o
 .bss           0x0000000000000000        0x0 build/default/production/_ext/1716827871/sphincs.o
 .debug_info    0x0000000000000000       0x79 build/default/production/_ext/1716827871/sphincs.o
 .debug_abbrev  0x0000000000000000       0x26 build/default/production/_ext/1716827871/sphincs.o
 .debug_aranges
                0x0000000000000000       0x18 build/default/production/_ext/1716827871/sphincs.o
 .debug_line    0x0000000000000000       0x1d build/default/production/_ext/1716827871/sphincs.o
 .debug_str     0x0000000000000000      0x2a6 build/default/production/_ext/1716827871/sphincs.o
 .comment       0x0000000000000000       0x2c build/default/production/_ext/1716827871/sphincs.o
 .ARM.attributes
                0x0000000000000000       0x39 build/default/production/_ext/1716827871/sphincs.o
 .text          0x0000000000000000        0x0 build/default/production/_ext/1716827871/sp_sm2_cortexm.o
 .data          0x0000000000000000        0x0 build/default/production/_ext/1716827871/sp_sm2_cortexm.o
 .bss           0x0000000000000000        0x0 build/default/production/_ext/1716827871/sp_sm2_cortexm.o
 .debug_info    0x0000000000000000       0x72 build/default/production/_ext/1716827871/sp_sm2_cortexm.o
 .debug_abbrev  0x0000000000000000       0x26 build/default/production/_ext/1716827871/sp_sm2_cortexm.o
 .debug_aranges
                0x0000000000000000       0x18 build/default/production/_ext/1716827871/sp_sm2_cortexm.o
 .debug_line    0x0000000000000000       0x1d build/default/production/_ext/1716827871/sp_sm2_cortexm.o
 .debug_str     0x0000000000000000      0x2a1 build/default/production/_ext/1716827871/sp_sm2_cortexm.o
 .comment       0x0000000000000000       0x2c build/default/production/_ext/1716827871/sp_sm2_cortexm.o
 .ARM.attributes
                0x0000000000000000       0x39 build/default/production/_ext/1716827871/sp_sm2_cortexm.o
 .text          0x0000000000000000        0x0 build/default/production/_ext/1716827871/md4.o
 .data          0x0000000000000000        0x0 build/default/production/_ext/1716827871/md4.o
 .bss           0x0000000000000000        0x0 build/default/production/_ext/1716827871/md4.o
 .debug_info    0x0000000000000000       0x72 build/default/production/_ext/1716827871/md4.o
 .debug_abbrev  0x0000000000000000       0x26 build/default/production/_ext/1716827871/md4.o
 .debug_aranges
                0x0000000000000000       0x18 build/default/production/_ext/1716827871/md4.o
 .debug_line    0x0000000000000000       0x1d build/default/production/_ext/1716827871/md4.o
 .debug_str     0x0000000000000000      0x296 build/default/production/_ext/1716827871/md4.o
 .comment       0x0000000000000000       0x2c build/default/production/_ext/1716827871/md4.o
 .ARM.attributes
                0x0000000000000000       0x39 build/default/production/_ext/1716827871/md4.o
 .text          0x0000000000000000     0x1aac build/default/production/_ext/1716827871/ecc.o
 .data          0x0000000000000000        0x0 build/default/production/_ext/1716827871/ecc.o
 .bss           0x0000000000000000        0x0 build/default/production/_ext/1716827871/ecc.o
 .rodata        0x0000000000000000       0x74 build/default/production/_ext/1716827871/ecc.o
 .rodata.str1.4
                0x0000000000000000      0x324 build/default/production/_ext/1716827871/ecc.o
 .debug_info    0x0000000000000000     0x74b5 build/default/production/_ext/1716827871/ecc.o
 .debug_abbrev  0x0000000000000000      0x5e7 build/default/production/_ext/1716827871/ecc.o
 .debug_loc     0x0000000000000000     0x7b3b build/default/production/_ext/1716827871/ecc.o
 .debug_aranges
                0x0000000000000000       0x20 build/default/production/_ext/1716827871/ecc.o
 .debug_ranges  0x0000000000000000      0x2f8 build/default/production/_ext/1716827871/ecc.o
 .debug_line    0x0000000000000000     0x24f0 build/default/production/_ext/1716827871/ecc.o
 .debug_str     0x0000000000000000     0x33db build/default/production/_ext/1716827871/ecc.o
 .comment       0x0000000000000000       0x2c build/default/production/_ext/1716827871/ecc.o
 .debug_frame   0x0000000000000000      0xb40 build/default/production/_ext/1716827871/ecc.o
 .ARM.attributes
                0x0000000000000000       0x34 build/default/production/_ext/1716827871/ecc.o
 .text          0x0000000000000000     0x602c build/default/production/_ext/1716827871/asn.o
 .data          0x0000000000000000       0x1e build/default/production/_ext/1716827871/asn.o
 .bss           0x0000000000000000        0x4 build/default/production/_ext/1716827871/asn.o
 .rodata        0x0000000000000000      0x8fc build/default/production/_ext/1716827871/asn.o
 .rodata.str1.4
                0x0000000000000000      0x3cc build/default/production/_ext/1716827871/asn.o
 .debug_info    0x0000000000000000    0x11b2a build/default/production/_ext/1716827871/asn.o
 .debug_abbrev  0x0000000000000000      0x6c7 build/default/production/_ext/1716827871/asn.o
 .debug_loc     0x0000000000000000    0x15356 build/default/production/_ext/1716827871/asn.o
 .debug_aranges
                0x0000000000000000       0x20 build/default/production/_ext/1716827871/asn.o
 .debug_ranges  0x0000000000000000     0x1410 build/default/production/_ext/1716827871/asn.o
 .debug_line    0x0000000000000000     0x7b8b build/default/production/_ext/1716827871/asn.o
 .debug_str     0x0000000000000000     0x770e build/default/production/_ext/1716827871/asn.o
 .comment       0x0000000000000000       0x2c build/default/production/_ext/1716827871/asn.o
 .debug_frame   0x0000000000000000     0x15c4 build/default/production/_ext/1716827871/asn.o
 .ARM.attributes
                0x0000000000000000       0x34 build/default/production/_ext/1716827871/asn.o
 .text          0x0000000000000000        0x0 build/default/production/_ext/1716827871/ge_448.o
 .data          0x0000000000000000        0x0 build/default/production/_ext/1716827871/ge_448.o
 .bss           0x0000000000000000        0x0 build/default/production/_ext/1716827871/ge_448.o
 .debug_info    0x0000000000000000       0x72 build/default/production/_ext/1716827871/ge_448.o
 .debug_abbrev  0x0000000000000000       0x26 build/default/production/_ext/1716827871/ge_448.o
 .debug_aranges
                0x0000000000000000       0x18 build/default/production/_ext/1716827871/ge_448.o
 .debug_line    0x0000000000000000       0x1d build/default/production/_ext/1716827871/ge_448.o
 .debug_str     0x0000000000000000      0x299 build/default/production/_ext/1716827871/ge_448.o
 .comment       0x0000000000000000       0x2c build/default/production/_ext/1716827871/ge_448.o
 .ARM.attributes
                0x0000000000000000       0x39 build/default/production/_ext/1716827871/ge_448.o
 .text          0x0000000000000000        0x0 build/default/production/_ext/1716827871/sm4.o
 .data          0x0000000000000000        0x0 build/default/production/_ext/1716827871/sm4.o
 .bss           0x0000000000000000        0x0 build/default/production/_ext/1716827871/sm4.o
 .debug_info    0x0000000000000000       0x72 build/default/production/_ext/1716827871/sm4.o
 .debug_abbrev  0x0000000000000000       0x26 build/default/production/_ext/1716827871/sm4.o
 .debug_aranges
                0x0000000000000000       0x18 build/default/production/_ext/1716827871/sm4.o
 .debug_line    0x0000000000000000       0x1d build/default/production/_ext/1716827871/sm4.o
 .debug_str     0x0000000000000000      0x296 build/default/production/_ext/1716827871/sm4.o
 .comment       0x0000000000000000       0x2c build/default/production/_ext/1716827871/sm4.o
 .ARM.attributes
                0x0000000000000000       0x39 build/default/production/_ext/1716827871/sm4.o
 .text          0x0000000000000000      0x284 build/default/production/_ext/1716827871/wc_port.o
 .data          0x0000000000000000        0x0 build/default/production/_ext/1716827871/wc_port.o
 .bss           0x0000000000000000        0x4 build/default/production/_ext/1716827871/wc_port.o
 .debug_info    0x0000000000000000      0xb88 build/default/production/_ext/1716827871/wc_port.o
 .debug_abbrev  0x0000000000000000      0x303 build/default/production/_ext/1716827871/wc_port.o
 .debug_loc     0x0000000000000000      0xd3b build/default/production/_ext/1716827871/wc_port.o
 .debug_aranges
                0x0000000000000000       0x20 build/default/production/_ext/1716827871/wc_port.o
 .debug_ranges  0x0000000000000000       0x70 build/default/production/_ext/1716827871/wc_port.o
 .debug_line    0x0000000000000000      0x531 build/default/production/_ext/1716827871/wc_port.o
 .debug_str     0x0000000000000000     0x11ac build/default/production/_ext/1716827871/wc_port.o
 .comment       0x0000000000000000       0x2c build/default/production/_ext/1716827871/wc_port.o
 .debug_frame   0x0000000000000000      0x1d8 build/default/production/_ext/1716827871/wc_port.o
 .ARM.attributes
                0x0000000000000000       0x34 build/default/production/_ext/1716827871/wc_port.o
 .text          0x0000000000000000      0xab4 build/default/production/_ext/1716827871/md5.o
 .data          0x0000000000000000        0x0 build/default/production/_ext/1716827871/md5.o
 .bss           0x0000000000000000        0x0 build/default/production/_ext/1716827871/md5.o
 .debug_info    0x0000000000000000     0x14a2 build/default/production/_ext/1716827871/md5.o
 .debug_abbrev  0x0000000000000000      0x338 build/default/production/_ext/1716827871/md5.o
 .debug_loc     0x0000000000000000      0xb2e build/default/production/_ext/1716827871/md5.o
 .debug_aranges
                0x0000000000000000       0x20 build/default/production/_ext/1716827871/md5.o
 .debug_ranges  0x0000000000000000       0x98 build/default/production/_ext/1716827871/md5.o
 .debug_line    0x0000000000000000      0x5d7 build/default/production/_ext/1716827871/md5.o
 .debug_str     0x0000000000000000      0xeb7 build/default/production/_ext/1716827871/md5.o
 .comment       0x0000000000000000       0x2c build/default/production/_ext/1716827871/md5.o
 .debug_frame   0x0000000000000000      0x114 build/default/production/_ext/1716827871/md5.o
 .ARM.attributes
                0x0000000000000000       0x34 build/default/production/_ext/1716827871/md5.o
 .text          0x0000000000000000        0x0 build/default/production/_ext/1716827871/curve448.o
 .data          0x0000000000000000        0x0 build/default/production/_ext/1716827871/curve448.o
 .bss           0x0000000000000000        0x0 build/default/production/_ext/1716827871/curve448.o
 .debug_info    0x0000000000000000       0x72 build/default/production/_ext/1716827871/curve448.o
 .debug_abbrev  0x0000000000000000       0x26 build/default/production/_ext/1716827871/curve448.o
 .debug_aranges
                0x0000000000000000       0x18 build/default/production/_ext/1716827871/curve448.o
 .debug_line    0x0000000000000000       0x1d build/default/production/_ext/1716827871/curve448.o
 .debug_str     0x0000000000000000      0x29b build/default/production/_ext/1716827871/curve448.o
 .comment       0x0000000000000000       0x2c build/default/production/_ext/1716827871/curve448.o
 .ARM.attributes
                0x0000000000000000       0x39 build/default/production/_ext/1716827871/curve448.o
 .text          0x0000000000000000      0x180 build/default/production/_ext/1716827871/wolfmath.o
 .data          0x0000000000000000        0x0 build/default/production/_ext/1716827871/wolfmath.o
 .bss           0x0000000000000000        0x0 build/default/production/_ext/1716827871/wolfmath.o
 .debug_info    0x0000000000000000      0xb61 build/default/production/_ext/1716827871/wolfmath.o
 .debug_abbrev  0x0000000000000000      0x2c4 build/default/production/_ext/1716827871/wolfmath.o
 .debug_loc     0x0000000000000000      0x5ff build/default/production/_ext/1716827871/wolfmath.o
 .debug_aranges
                0x0000000000000000       0x20 build/default/production/_ext/1716827871/wolfmath.o
 .debug_ranges  0x0000000000000000       0x80 build/default/production/_ext/1716827871/wolfmath.o
 .debug_line    0x0000000000000000      0x2e8 build/default/production/_ext/1716827871/wolfmath.o
 .debug_str     0x0000000000000000      0xeb3 build/default/production/_ext/1716827871/wolfmath.o
 .comment       0x0000000000000000       0x2c build/default/production/_ext/1716827871/wolfmath.o
 .debug_frame   0x0000000000000000       0xb4 build/default/production/_ext/1716827871/wolfmath.o
 .ARM.attributes
                0x0000000000000000       0x34 build/default/production/_ext/1716827871/wolfmath.o
 .text          0x0000000000000000     0x1368 build/default/production/_ext/1716827871/rsa.o
 .data          0x0000000000000000        0x0 build/default/production/_ext/1716827871/rsa.o
 .bss           0x0000000000000000        0x0 build/default/production/_ext/1716827871/rsa.o
 .rodata        0x0000000000000000       0x14 build/default/production/_ext/1716827871/rsa.o
 .debug_info    0x0000000000000000     0x519f build/default/production/_ext/1716827871/rsa.o
 .debug_abbrev  0x0000000000000000      0x4b7 build/default/production/_ext/1716827871/rsa.o
 .debug_loc     0x0000000000000000     0x630c build/default/production/_ext/1716827871/rsa.o
 .debug_aranges
                0x0000000000000000       0x20 build/default/production/_ext/1716827871/rsa.o
 .debug_ranges  0x0000000000000000      0x218 build/default/production/_ext/1716827871/rsa.o
 .debug_line    0x0000000000000000     0x17e8 build/default/production/_ext/1716827871/rsa.o
 .debug_str     0x0000000000000000     0x22b3 build/default/production/_ext/1716827871/rsa.o
 .comment       0x0000000000000000       0x2c build/default/production/_ext/1716827871/rsa.o
 .debug_frame   0x0000000000000000      0x5a0 build/default/production/_ext/1716827871/rsa.o
 .ARM.attributes
                0x0000000000000000       0x34 build/default/production/_ext/1716827871/rsa.o
 .text          0x0000000000000000        0x0 build/default/production/_ext/1716827871/falcon.o
 .data          0x0000000000000000        0x0 build/default/production/_ext/1716827871/falcon.o
 .bss           0x0000000000000000        0x0 build/default/production/_ext/1716827871/falcon.o
 .debug_info    0x0000000000000000       0x79 build/default/production/_ext/1716827871/falcon.o
 .debug_abbrev  0x0000000000000000       0x26 build/default/production/_ext/1716827871/falcon.o
 .debug_aranges
                0x0000000000000000       0x18 build/default/production/_ext/1716827871/falcon.o
 .debug_line    0x0000000000000000       0x1d build/default/production/_ext/1716827871/falcon.o
 .debug_str     0x0000000000000000      0x2a5 build/default/production/_ext/1716827871/falcon.o
 .comment       0x0000000000000000       0x2c build/default/production/_ext/1716827871/falcon.o
 .ARM.attributes
                0x0000000000000000       0x39 build/default/production/_ext/1716827871/falcon.o
 .text          0x0000000000000000        0x0 build/default/production/_ext/1716827871/siphash.o
 .data          0x0000000000000000        0x0 build/default/production/_ext/1716827871/siphash.o
 .bss           0x0000000000000000        0x0 build/default/production/_ext/1716827871/siphash.o
 .debug_info    0x0000000000000000       0x79 build/default/production/_ext/1716827871/siphash.o
 .debug_abbrev  0x0000000000000000       0x26 build/default/production/_ext/1716827871/siphash.o
 .debug_aranges
                0x0000000000000000       0x18 build/default/production/_ext/1716827871/siphash.o
 .debug_line    0x0000000000000000       0x1d build/default/production/_ext/1716827871/siphash.o
 .debug_str     0x0000000000000000      0x2a6 build/default/production/_ext/1716827871/siphash.o
 .comment       0x0000000000000000       0x2c build/default/production/_ext/1716827871/siphash.o
 .ARM.attributes
                0x0000000000000000       0x39 build/default/production/_ext/1716827871/siphash.o
 .text          0x0000000000000000        0x0 build/default/production/_ext/1716827871/ext_lms.o
 .data          0x0000000000000000        0x0 build/default/production/_ext/1716827871/ext_lms.o
 .bss           0x0000000000000000        0x0 build/default/production/_ext/1716827871/ext_lms.o
 .debug_info    0x0000000000000000       0x79 build/default/production/_ext/1716827871/ext_lms.o
 .debug_abbrev  0x0000000000000000       0x26 build/default/production/_ext/1716827871/ext_lms.o
 .debug_aranges
                0x0000000000000000       0x18 build/default/production/_ext/1716827871/ext_lms.o
 .debug_line    0x0000000000000000       0x1d build/default/production/_ext/1716827871/ext_lms.o
 .debug_str     0x0000000000000000      0x2a6 build/default/production/_ext/1716827871/ext_lms.o
 .comment       0x0000000000000000       0x2c build/default/production/_ext/1716827871/ext_lms.o
 .ARM.attributes
                0x0000000000000000       0x39 build/default/production/_ext/1716827871/ext_lms.o
 .text          0x0000000000000000        0x0 build/default/production/_ext/1716827871/kdf.o
 .data          0x0000000000000000        0x0 build/default/production/_ext/1716827871/kdf.o
 .bss           0x0000000000000000        0x0 build/default/production/_ext/1716827871/kdf.o
 .debug_info    0x0000000000000000       0x79 build/default/production/_ext/1716827871/kdf.o
 .debug_abbrev  0x0000000000000000       0x26 build/default/production/_ext/1716827871/kdf.o
 .debug_aranges
                0x0000000000000000       0x18 build/default/production/_ext/1716827871/kdf.o
 .debug_line    0x0000000000000000       0x1d build/default/production/_ext/1716827871/kdf.o
 .debug_str     0x0000000000000000      0x2a2 build/default/production/_ext/1716827871/kdf.o
 .comment       0x0000000000000000       0x2c build/default/production/_ext/1716827871/kdf.o
 .ARM.attributes
                0x0000000000000000       0x39 build/default/production/_ext/1716827871/kdf.o
 .text          0x0000000000000000        0x0 build/default/production/_ext/1716827871/arc4.o
 .data          0x0000000000000000        0x0 build/default/production/_ext/1716827871/arc4.o
 .bss           0x0000000000000000        0x0 build/default/production/_ext/1716827871/arc4.o
 .debug_info    0x0000000000000000       0x72 build/default/production/_ext/1716827871/arc4.o
 .debug_abbrev  0x0000000000000000       0x26 build/default/production/_ext/1716827871/arc4.o
 .debug_aranges
                0x0000000000000000       0x18 build/default/production/_ext/1716827871/arc4.o
 .debug_line    0x0000000000000000       0x1d build/default/production/_ext/1716827871/arc4.o
 .debug_str     0x0000000000000000      0x297 build/default/production/_ext/1716827871/arc4.o
 .comment       0x0000000000000000       0x2c build/default/production/_ext/1716827871/arc4.o
 .ARM.attributes
                0x0000000000000000       0x39 build/default/production/_ext/1716827871/arc4.o
 .text          0x0000000000000000        0x0 build/default/production/_ext/1716827871/dilithium.o
 .data          0x0000000000000000        0x0 build/default/production/_ext/1716827871/dilithium.o
 .bss           0x0000000000000000        0x0 build/default/production/_ext/1716827871/dilithium.o
 .debug_info    0x0000000000000000       0x79 build/default/production/_ext/1716827871/dilithium.o
 .debug_abbrev  0x0000000000000000       0x26 build/default/production/_ext/1716827871/dilithium.o
 .debug_aranges
                0x0000000000000000       0x18 build/default/production/_ext/1716827871/dilithium.o
 .debug_line    0x0000000000000000       0x1d build/default/production/_ext/1716827871/dilithium.o
 .debug_str     0x0000000000000000      0x2a8 build/default/production/_ext/1716827871/dilithium.o
 .comment       0x0000000000000000       0x2c build/default/production/_ext/1716827871/dilithium.o
 .ARM.attributes
                0x0000000000000000       0x39 build/default/production/_ext/1716827871/dilithium.o
 .text          0x0000000000000000      0x1c0 build/default/production/_ext/1716827871/wc_encrypt.o
 .data          0x0000000000000000        0x0 build/default/production/_ext/1716827871/wc_encrypt.o
 .bss           0x0000000000000000        0x0 build/default/production/_ext/1716827871/wc_encrypt.o
 .debug_info    0x0000000000000000     0x100d build/default/production/_ext/1716827871/wc_encrypt.o
 .debug_abbrev  0x0000000000000000      0x1e4 build/default/production/_ext/1716827871/wc_encrypt.o
 .debug_loc     0x0000000000000000      0x936 build/default/production/_ext/1716827871/wc_encrypt.o
 .debug_aranges
                0x0000000000000000       0x20 build/default/production/_ext/1716827871/wc_encrypt.o
 .debug_line    0x0000000000000000      0x2cc build/default/production/_ext/1716827871/wc_encrypt.o
 .debug_str     0x0000000000000000     0x1045 build/default/production/_ext/1716827871/wc_encrypt.o
 .comment       0x0000000000000000       0x2c build/default/production/_ext/1716827871/wc_encrypt.o
 .debug_frame   0x0000000000000000      0x124 build/default/production/_ext/1716827871/wc_encrypt.o
 .ARM.attributes
                0x0000000000000000       0x34 build/default/production/_ext/1716827871/wc_encrypt.o
 .text          0x0000000000000000      0x548 build/default/production/_ext/1716827871/curve25519.o
 .data          0x0000000000000000        0x0 build/default/production/_ext/1716827871/curve25519.o
 .bss           0x0000000000000000        0x0 build/default/production/_ext/1716827871/curve25519.o
 .rodata        0x0000000000000000       0x28 build/default/production/_ext/1716827871/curve25519.o
 .rodata.str1.4
                0x0000000000000000        0xc build/default/production/_ext/1716827871/curve25519.o
 .debug_info    0x0000000000000000     0x1bc7 build/default/production/_ext/1716827871/curve25519.o
 .debug_abbrev  0x0000000000000000      0x473 build/default/production/_ext/1716827871/curve25519.o
 .debug_loc     0x0000000000000000     0x1b62 build/default/production/_ext/1716827871/curve25519.o
 .debug_aranges
                0x0000000000000000       0x20 build/default/production/_ext/1716827871/curve25519.o
 .debug_ranges  0x0000000000000000       0xc8 build/default/production/_ext/1716827871/curve25519.o
 .debug_line    0x0000000000000000      0x81c build/default/production/_ext/1716827871/curve25519.o
 .debug_str     0x0000000000000000     0x13e0 build/default/production/_ext/1716827871/curve25519.o
 .comment       0x0000000000000000       0x2c build/default/production/_ext/1716827871/curve25519.o
 .debug_frame   0x0000000000000000      0x2e8 build/default/production/_ext/1716827871/curve25519.o
 .ARM.attributes
                0x0000000000000000       0x34 build/default/production/_ext/1716827871/curve25519.o
 .text          0x0000000000000000        0x0 build/default/production/_ext/1716827871/md2.o
 .data          0x0000000000000000        0x0 build/default/production/_ext/1716827871/md2.o
 .bss           0x0000000000000000        0x0 build/default/production/_ext/1716827871/md2.o
 .debug_info    0x0000000000000000       0x72 build/default/production/_ext/1716827871/md2.o
 .debug_abbrev  0x0000000000000000       0x26 build/default/production/_ext/1716827871/md2.o
 .debug_aranges
                0x0000000000000000       0x18 build/default/production/_ext/1716827871/md2.o
 .debug_line    0x0000000000000000       0x1d build/default/production/_ext/1716827871/md2.o
 .debug_str     0x0000000000000000      0x296 build/default/production/_ext/1716827871/md2.o
 .comment       0x0000000000000000       0x2c build/default/production/_ext/1716827871/md2.o
 .ARM.attributes
                0x0000000000000000       0x39 build/default/production/_ext/1716827871/md2.o
 .text          0x0000000000000000        0x0 build/default/production/_ext/1716827871/wc_dsp.o
 .data          0x0000000000000000        0x0 build/default/production/_ext/1716827871/wc_dsp.o
 .bss           0x0000000000000000        0x0 build/default/production/_ext/1716827871/wc_dsp.o
 .debug_info    0x0000000000000000       0x79 build/default/production/_ext/1716827871/wc_dsp.o
 .debug_abbrev  0x0000000000000000       0x26 build/default/production/_ext/1716827871/wc_dsp.o
 .debug_aranges
                0x0000000000000000       0x18 build/default/production/_ext/1716827871/wc_dsp.o
 .debug_line    0x0000000000000000       0x1d build/default/production/_ext/1716827871/wc_dsp.o
 .debug_str     0x0000000000000000      0x2a5 build/default/production/_ext/1716827871/wc_dsp.o
 .comment       0x0000000000000000       0x2c build/default/production/_ext/1716827871/wc_dsp.o
 .ARM.attributes
                0x0000000000000000       0x39 build/default/production/_ext/1716827871/wc_dsp.o
 .text          0x0000000000000000        0x0 build/default/production/_ext/1716827871/sp_sm2_c32.o
 .data          0x0000000000000000        0x0 build/default/production/_ext/1716827871/sp_sm2_c32.o
 .bss           0x0000000000000000        0x0 build/default/production/_ext/1716827871/sp_sm2_c32.o
 .debug_info    0x0000000000000000       0x72 build/default/production/_ext/1716827871/sp_sm2_c32.o
 .debug_abbrev  0x0000000000000000       0x26 build/default/production/_ext/1716827871/sp_sm2_c32.o
 .debug_aranges
                0x0000000000000000       0x18 build/default/production/_ext/1716827871/sp_sm2_c32.o
 .debug_line    0x0000000000000000       0x1d build/default/production/_ext/1716827871/sp_sm2_c32.o
 .debug_str     0x0000000000000000      0x29d build/default/production/_ext/1716827871/sp_sm2_c32.o
 .comment       0x0000000000000000       0x2c build/default/production/_ext/1716827871/sp_sm2_c32.o
 .ARM.attributes
                0x0000000000000000       0x39 build/default/production/_ext/1716827871/sp_sm2_c32.o
 .text          0x0000000000000000        0x0 build/default/production/_ext/1716827871/sp_dsp32.o
 .data          0x0000000000000000        0x0 build/default/production/_ext/1716827871/sp_dsp32.o
 .bss           0x0000000000000000        0x0 build/default/production/_ext/1716827871/sp_dsp32.o
 .debug_info    0x0000000000000000       0x79 build/default/production/_ext/1716827871/sp_dsp32.o
 .debug_abbrev  0x0000000000000000       0x26 build/default/production/_ext/1716827871/sp_dsp32.o
 .debug_aranges
                0x0000000000000000       0x18 build/default/production/_ext/1716827871/sp_dsp32.o
 .debug_line    0x0000000000000000       0x1d build/default/production/_ext/1716827871/sp_dsp32.o
 .debug_str     0x0000000000000000      0x2a7 build/default/production/_ext/1716827871/sp_dsp32.o
 .comment       0x0000000000000000       0x2c build/default/production/_ext/1716827871/sp_dsp32.o
 .ARM.attributes
                0x0000000000000000       0x39 build/default/production/_ext/1716827871/sp_dsp32.o
 .text          0x0000000000000000        0x0 build/default/production/_ext/1716827871/ge_low_mem.o
 .data          0x0000000000000000        0x0 build/default/production/_ext/1716827871/ge_low_mem.o
 .bss           0x0000000000000000        0x0 build/default/production/_ext/1716827871/ge_low_mem.o
 .debug_info    0x0000000000000000       0x72 build/default/production/_ext/1716827871/ge_low_mem.o
 .debug_abbrev  0x0000000000000000       0x26 build/default/production/_ext/1716827871/ge_low_mem.o
 .debug_aranges
                0x0000000000000000       0x18 build/default/production/_ext/1716827871/ge_low_mem.o
 .debug_line    0x0000000000000000       0x1d build/default/production/_ext/1716827871/ge_low_mem.o
 .debug_str     0x0000000000000000      0x29d build/default/production/_ext/1716827871/ge_low_mem.o
 .comment       0x0000000000000000       0x2c build/default/production/_ext/1716827871/ge_low_mem.o
 .ARM.attributes
                0x0000000000000000       0x39 build/default/production/_ext/1716827871/ge_low_mem.o
 .text          0x0000000000000000        0x0 build/default/production/_ext/1716827871/wc_lms_impl.o
 .data          0x0000000000000000        0x0 build/default/production/_ext/1716827871/wc_lms_impl.o
 .bss           0x0000000000000000        0x0 build/default/production/_ext/1716827871/wc_lms_impl.o
 .debug_info    0x0000000000000000       0x72 build/default/production/_ext/1716827871/wc_lms_impl.o
 .debug_abbrev  0x0000000000000000       0x26 build/default/production/_ext/1716827871/wc_lms_impl.o
 .debug_aranges
                0x0000000000000000       0x18 build/default/production/_ext/1716827871/wc_lms_impl.o
 .debug_line    0x0000000000000000       0x1d build/default/production/_ext/1716827871/wc_lms_impl.o
 .debug_str     0x0000000000000000      0x29e build/default/production/_ext/1716827871/wc_lms_impl.o
 .comment       0x0000000000000000       0x2c build/default/production/_ext/1716827871/wc_lms_impl.o
 .ARM.attributes
                0x0000000000000000       0x39 build/default/production/_ext/1716827871/wc_lms_impl.o
 .data          0x0000000000000000        0x0 build/default/production/_ext/1664057780/misc.o
 .bss           0x0000000000000000        0x0 build/default/production/_ext/1664057780/misc.o
 .text          0x0000000000000000        0x0 build/default/production/_ext/1664057780/evp.o
 .data          0x0000000000000000        0x0 build/default/production/_ext/1664057780/evp.o
 .bss           0x0000000000000000        0x0 build/default/production/_ext/1664057780/evp.o
 .debug_info    0x0000000000000000       0x72 build/default/production/_ext/1664057780/evp.o
 .debug_abbrev  0x0000000000000000       0x26 build/default/production/_ext/1664057780/evp.o
 .debug_aranges
                0x0000000000000000       0x18 build/default/production/_ext/1664057780/evp.o
 .debug_line    0x0000000000000000       0x1d build/default/production/_ext/1664057780/evp.o
 .debug_str     0x0000000000000000      0x29e build/default/production/_ext/1664057780/evp.o
 .comment       0x0000000000000000       0x2c build/default/production/_ext/1664057780/evp.o
 .ARM.attributes
                0x0000000000000000       0x39 build/default/production/_ext/1664057780/evp.o
 .data          0x0000000000000000        0x0 build/default/production/_ext/1360937237/app_storage_wbz451h.o
 .bss           0x0000000000000000        0x0 build/default/production/_ext/1360937237/app_storage_wbz451h.o
 .text          0x0000000000000000       0x48 build/default/production/_ext/1360937237/app.o
 .data          0x0000000000000000        0x0 build/default/production/_ext/1360937237/app.o
 .bss           0x0000000000000000        0x0 build/default/production/_ext/1360937237/app.o
 .debug_info    0x0000000000000000      0x33c build/default/production/_ext/1360937237/app.o
 .debug_abbrev  0x0000000000000000      0x188 build/default/production/_ext/1360937237/app.o
 .debug_loc     0x0000000000000000       0x65 build/default/production/_ext/1360937237/app.o
 .debug_aranges
                0x0000000000000000       0x20 build/default/production/_ext/1360937237/app.o
 .debug_line    0x0000000000000000      0x225 build/default/production/_ext/1360937237/app.o
 .debug_str     0x0000000000000000      0x5e8 build/default/production/_ext/1360937237/app.o
 .comment       0x0000000000000000       0x2c build/default/production/_ext/1360937237/app.o
 .debug_frame   0x0000000000000000       0x48 build/default/production/_ext/1360937237/app.o
 .ARM.attributes
                0x0000000000000000       0x34 build/default/production/_ext/1360937237/app.o
 COMMON         0x0000000000000000        0x8 build/default/production/_ext/1360937237/app.o
 .text          0x0000000000000000        0x0 build/default/production/_ext/1360937237/app_user_edits.o
 .data          0x0000000000000000        0x0 build/default/production/_ext/1360937237/app_user_edits.o
 .bss           0x0000000000000000        0x0 build/default/production/_ext/1360937237/app_user_edits.o
 .debug_line    0x0000000000000000        0x0 build/default/production/_ext/1360937237/app_user_edits.o
 .debug_str     0x0000000000000000      0x1ef build/default/production/_ext/1360937237/app_user_edits.o
 .comment       0x0000000000000000       0x2c build/default/production/_ext/1360937237/app_user_edits.o
 .ARM.attributes
                0x0000000000000000       0x39 build/default/production/_ext/1360937237/app_user_edits.o
 .data          0x0000000000000000        0x0 build/default/production/_ext/1360937237/app_idle_task.o
 .bss           0x0000000000000000        0x0 build/default/production/_ext/1360937237/app_idle_task.o
 .data          0x0000000000000000        0x0 build/default/production/_ext/1360937237/app_udp_responder.o
 .data          0x0000000000000000        0x0 build/default/production/_ext/1360937237/app_tcpip_management.o
 .bss           0x0000000000000000        0x0 build/default/production/_ext/1360937237/app_tcpip_management.o
 .data          0x0000000000000000        0x0 build/default/production/_ext/1360937237/main.o
 .bss           0x0000000000000000        0x0 build/default/production/_ext/1360937237/main.o
 .data          0x0000000000000000        0x0 build/default/production/_ext/1360937237/app_matrix_led.o
 .bss           0x0000000000000000        0x0 build/default/production/_ext/1360937237/app_matrix_led.o
 .data          0x0000000000000000        0x0 ../src/config/default/stack/g3/mac/mac_plc/g3_lib_mac_plc.a(MacLow.o)
 .data          0x0000000000000000        0x0 ../src/config/default/stack/g3/mac/mac_plc/g3_lib_mac_plc.a(MacMib.o)
 .data          0x0000000000000000        0x0 ../src/config/default/stack/g3/mac/mac_plc/g3_lib_mac_plc.a(MacSublayer.o)
 .data          0x0000000000000000        0x0 ../src/config/default/stack/g3/mac/mac_plc/g3_lib_mac_plc.a(MacConstants.o)
 .data          0x0000000000000000        0x0 ../src/config/default/stack/g3/adaptation/g3_lib_adp.a(Adp.o)
 .data          0x0000000000000000        0x0 ../src/config/default/stack/g3/adaptation/g3_lib_adp.a(AdpCommon.o)
 .bss           0x0000000000000000        0x0 ../src/config/default/stack/g3/adaptation/g3_lib_adp.a(AdpCommon.o)
 .data          0x0000000000000000        0x0 ../src/config/default/stack/g3/adaptation/g3_lib_adp.a(AdpData.o)
 .bss           0x0000000000000000        0x0 ../src/config/default/stack/g3/adaptation/g3_lib_adp.a(AdpData.o)
 .data          0x0000000000000000        0x0 ../src/config/default/stack/g3/adaptation/g3_lib_adp.a(AdpDiscovery.o)
 .bss           0x0000000000000000        0x0 ../src/config/default/stack/g3/adaptation/g3_lib_adp.a(AdpDiscovery.o)
 .data          0x0000000000000000        0x0 ../src/config/default/stack/g3/adaptation/g3_lib_adp.a(AdpGetSet.o)
 .bss           0x0000000000000000        0x0 ../src/config/default/stack/g3/adaptation/g3_lib_adp.a(AdpGetSet.o)
 .data          0x0000000000000000        0x0 ../src/config/default/stack/g3/adaptation/g3_lib_adp.a(AdpLbp.o)
 .bss           0x0000000000000000        0x0 ../src/config/default/stack/g3/adaptation/g3_lib_adp.a(AdpLbp.o)
 .data          0x0000000000000000        0x0 ../src/config/default/stack/g3/adaptation/g3_lib_adp.a(AdpMacInterface.o)
 .rodata        0x0000000000000000       0x12 ../src/config/default/stack/g3/adaptation/g3_lib_adp.a(AdpMacInterface.o)
 .data          0x0000000000000000        0x0 ../src/config/default/stack/g3/adaptation/g3_lib_adp.a(AdpNetwork.o)
 .bss           0x0000000000000000        0x0 ../src/config/default/stack/g3/adaptation/g3_lib_adp.a(AdpNetwork.o)
 .data          0x0000000000000000        0x0 ../src/config/default/stack/g3/adaptation/g3_lib_adp.a(AdpReset.o)
 .bss           0x0000000000000000        0x0 ../src/config/default/stack/g3/adaptation/g3_lib_adp.a(AdpReset.o)
 .data          0x0000000000000000        0x0 ../src/config/default/stack/g3/adaptation/g3_lib_adp.a(AdpRouteDiscovery.o)
 .bss           0x0000000000000000        0x0 ../src/config/default/stack/g3/adaptation/g3_lib_adp.a(AdpRouteDiscovery.o)
 .data          0x0000000000000000        0x0 ../src/config/default/stack/g3/adaptation/g3_lib_adp.a(Proto6Lowpan.o)
 .bss           0x0000000000000000        0x0 ../src/config/default/stack/g3/adaptation/g3_lib_adp.a(Proto6Lowpan.o)
 .data          0x0000000000000000        0x0 ../src/config/default/stack/g3/adaptation/g3_lib_adp.a(ProtoRFC6282.o)
 .bss           0x0000000000000000        0x0 ../src/config/default/stack/g3/adaptation/g3_lib_adp.a(ProtoRFC6282.o)
 .text          0x0000000000000000        0x0 ../src/config/default/driver/lib/lib-ieee802154_phy_pic32cxbz-v1.2.0.a(phy.o)
 .data          0x0000000000000000        0x0 ../src/config/default/driver/lib/lib-ieee802154_phy_pic32cxbz-v1.2.0.a(phy.o)
 .bss           0x0000000000000000        0x0 ../src/config/default/driver/lib/lib-ieee802154_phy_pic32cxbz-v1.2.0.a(phy.o)
 .text.tal_convert_symbols_to_us_def
                0x0000000000000000        0x4 ../src/config/default/driver/lib/lib-ieee802154_phy_pic32cxbz-v1.2.0.a(phy.o)
 .text.tal_convert_us_to_symbols_def
                0x0000000000000000        0x4 ../src/config/default/driver/lib/lib-ieee802154_phy_pic32cxbz-v1.2.0.a(phy.o)
 .text.trx_delay_millis
                0x0000000000000000       0x12 ../src/config/default/driver/lib/lib-ieee802154_phy_pic32cxbz-v1.2.0.a(phy.o)
 .bss.last_frame_length
                0x0000000000000000        0x1 ../src/config/default/driver/lib/lib-ieee802154_phy_pic32cxbz-v1.2.0.a(phy.o)
 .bss.tal_rx_on_required
                0x0000000000000000        0x1 ../src/config/default/driver/lib/lib-ieee802154_phy_pic32cxbz-v1.2.0.a(phy.o)
 .bss.tal_state
                0x0000000000000000        0x1 ../src/config/default/driver/lib/lib-ieee802154_phy_pic32cxbz-v1.2.0.a(phy.o)
 .bss.tal_trx_status
                0x0000000000000000        0x1 ../src/config/default/driver/lib/lib-ieee802154_phy_pic32cxbz-v1.2.0.a(phy.o)
 .text          0x0000000000000000        0x0 ../src/config/default/driver/lib/lib-ieee802154_phy_pic32cxbz-v1.2.0.a(phy_ed.o)
 .data          0x0000000000000000        0x0 ../src/config/default/driver/lib/lib-ieee802154_phy_pic32cxbz-v1.2.0.a(phy_ed.o)
 .bss           0x0000000000000000        0x0 ../src/config/default/driver/lib/lib-ieee802154_phy_pic32cxbz-v1.2.0.a(phy_ed.o)
 .text.PHY_EdStart
                0x0000000000000000       0xc8 ../src/config/default/driver/lib/lib-ieee802154_phy_pic32cxbz-v1.2.0.a(phy_ed.o)
 .text          0x0000000000000000        0x0 ../src/config/default/driver/lib/lib-ieee802154_phy_pic32cxbz-v1.2.0.a(phy_helper.o)
 .data          0x0000000000000000        0x0 ../src/config/default/driver/lib/lib-ieee802154_phy_pic32cxbz-v1.2.0.a(phy_helper.o)
 .bss           0x0000000000000000        0x0 ../src/config/default/driver/lib/lib-ieee802154_phy_pic32cxbz-v1.2.0.a(phy_helper.o)
 .text.PHY_ConfigAntennaDiversity
                0x0000000000000000      0x138 ../src/config/default/driver/lib/lib-ieee802154_phy_pic32cxbz-v1.2.0.a(phy_helper.o)
 .text.tal_set_frequency
                0x0000000000000000      0x100 ../src/config/default/driver/lib/lib-ieee802154_phy_pic32cxbz-v1.2.0.a(phy_helper.o)
 .text.tal_set_frequency_regs
                0x0000000000000000       0x7c ../src/config/default/driver/lib/lib-ieee802154_phy_pic32cxbz-v1.2.0.a(phy_helper.o)
 .text.tal_calculate_frequency
                0x0000000000000000       0x6c ../src/config/default/driver/lib/lib-ieee802154_phy_pic32cxbz-v1.2.0.a(phy_helper.o)
 .text.PHY_ConfigRxRPCMode
                0x0000000000000000       0x30 ../src/config/default/driver/lib/lib-ieee802154_phy_pic32cxbz-v1.2.0.a(phy_helper.o)
 .text.PHY_ConfigReservedFrameFiltering
                0x0000000000000000       0x4c ../src/config/default/driver/lib/lib-ieee802154_phy_pic32cxbz-v1.2.0.a(phy_helper.o)
 .text.PHY_EnableEnhancedFramepending
                0x0000000000000000        0xc ../src/config/default/driver/lib/lib-ieee802154_phy_pic32cxbz-v1.2.0.a(phy_helper.o)
 .text.tal_dump_registers
                0x0000000000000000       0x2e ../src/config/default/driver/lib/lib-ieee802154_phy_pic32cxbz-v1.2.0.a(phy_helper.o)
 .text          0x0000000000000000        0x0 ../src/config/default/driver/lib/lib-ieee802154_phy_pic32cxbz-v1.2.0.a(phy_init.o)
 .data          0x0000000000000000        0x0 ../src/config/default/driver/lib/lib-ieee802154_phy_pic32cxbz-v1.2.0.a(phy_init.o)
 .bss           0x0000000000000000        0x0 ../src/config/default/driver/lib/lib-ieee802154_phy_pic32cxbz-v1.2.0.a(phy_init.o)
 .bss.semPhyRxInternalHandler
                0x0000000000000000        0x4 ../src/config/default/driver/lib/lib-ieee802154_phy_pic32cxbz-v1.2.0.a(phy_init.o)
 .text          0x0000000000000000        0x0 ../src/config/default/driver/lib/lib-ieee802154_phy_pic32cxbz-v1.2.0.a(phy_irq_handler.o)
 .data          0x0000000000000000        0x0 ../src/config/default/driver/lib/lib-ieee802154_phy_pic32cxbz-v1.2.0.a(phy_irq_handler.o)
 .bss           0x0000000000000000        0x0 ../src/config/default/driver/lib/lib-ieee802154_phy_pic32cxbz-v1.2.0.a(phy_irq_handler.o)
 .text          0x0000000000000000        0x0 ../src/config/default/driver/lib/lib-ieee802154_phy_pic32cxbz-v1.2.0.a(phy_pib.o)
 .data          0x0000000000000000        0x0 ../src/config/default/driver/lib/lib-ieee802154_phy_pic32cxbz-v1.2.0.a(phy_pib.o)
 .bss           0x0000000000000000        0x0 ../src/config/default/driver/lib/lib-ieee802154_phy_pic32cxbz-v1.2.0.a(phy_pib.o)
 .text          0x0000000000000000        0x0 ../src/config/default/driver/lib/lib-ieee802154_phy_pic32cxbz-v1.2.0.a(phy_pwr_mgmt.o)
 .data          0x0000000000000000        0x0 ../src/config/default/driver/lib/lib-ieee802154_phy_pic32cxbz-v1.2.0.a(phy_pwr_mgmt.o)
 .bss           0x0000000000000000        0x0 ../src/config/default/driver/lib/lib-ieee802154_phy_pic32cxbz-v1.2.0.a(phy_pwr_mgmt.o)
 .text          0x0000000000000000        0x0 ../src/config/default/driver/lib/lib-ieee802154_phy_pic32cxbz-v1.2.0.a(phy_rx.o)
 .data          0x0000000000000000        0x0 ../src/config/default/driver/lib/lib-ieee802154_phy_pic32cxbz-v1.2.0.a(phy_rx.o)
 .bss           0x0000000000000000        0x0 ../src/config/default/driver/lib/lib-ieee802154_phy_pic32cxbz-v1.2.0.a(phy_rx.o)
 .text.isAckTimoutTimerRunning
                0x0000000000000000        0xc ../src/config/default/driver/lib/lib-ieee802154_phy_pic32cxbz-v1.2.0.a(phy_rx.o)
 .text          0x0000000000000000        0x0 ../src/config/default/driver/lib/lib-ieee802154_phy_pic32cxbz-v1.2.0.a(phy_rx_enable.o)
 .data          0x0000000000000000        0x0 ../src/config/default/driver/lib/lib-ieee802154_phy_pic32cxbz-v1.2.0.a(phy_rx_enable.o)
 .bss           0x0000000000000000        0x0 ../src/config/default/driver/lib/lib-ieee802154_phy_pic32cxbz-v1.2.0.a(phy_rx_enable.o)
 .text          0x0000000000000000        0x0 ../src/config/default/driver/lib/lib-ieee802154_phy_pic32cxbz-v1.2.0.a(phy_tx.o)
 .data          0x0000000000000000        0x0 ../src/config/default/driver/lib/lib-ieee802154_phy_pic32cxbz-v1.2.0.a(phy_tx.o)
 .bss           0x0000000000000000        0x0 ../src/config/default/driver/lib/lib-ieee802154_phy_pic32cxbz-v1.2.0.a(phy_tx.o)
 .text.PHY_Tx2015Frame
                0x0000000000000000       0x64 ../src/config/default/driver/lib/lib-ieee802154_phy_pic32cxbz-v1.2.0.a(phy_tx.o)
 .text.csma_start
                0x0000000000000000       0x20 ../src/config/default/driver/lib/lib-ieee802154_phy_pic32cxbz-v1.2.0.a(phy_tx.o)
 .bss.number_of_tx_retries
                0x0000000000000000        0x1 ../src/config/default/driver/lib/lib-ieee802154_phy_pic32cxbz-v1.2.0.a(phy_tx.o)
 .text          0x0000000000000000        0x0 ../src/config/default/driver/lib/lib-ieee802154_phy_pic32cxbz-v1.2.0.a(tfa.o)
 .data          0x0000000000000000        0x0 ../src/config/default/driver/lib/lib-ieee802154_phy_pic32cxbz-v1.2.0.a(tfa.o)
 .bss           0x0000000000000000        0x0 ../src/config/default/driver/lib/lib-ieee802154_phy_pic32cxbz-v1.2.0.a(tfa.o)
 .text.PHY_CCAPerform
                0x0000000000000000       0x98 ../src/config/default/driver/lib/lib-ieee802154_phy_pic32cxbz-v1.2.0.a(tfa.o)
 .text          0x0000000000000000        0x0 ../src/config/default/driver/lib/lib-ieee802154_phy_pic32cxbz-v1.2.0.a(phy_frame_handling.o)
 .data          0x0000000000000000        0x0 ../src/config/default/driver/lib/lib-ieee802154_phy_pic32cxbz-v1.2.0.a(phy_frame_handling.o)
 .bss           0x0000000000000000        0x0 ../src/config/default/driver/lib/lib-ieee802154_phy_pic32cxbz-v1.2.0.a(phy_frame_handling.o)
 .data          0x0000000000000000        0x0 ../src/config/default/stack/g3/adaptation/g3_lib_loadng.a(ProtoLoadNg.o)
 .data          0x0000000000000000        0x0 ../src/config/default/stack/g3/adaptation/g3_lib_loadng.a(ProtoLoadNg_GetSet.o)
 .bss           0x0000000000000000        0x0 ../src/config/default/stack/g3/adaptation/g3_lib_loadng.a(ProtoLoadNg_GetSet.o)
 .data          0x0000000000000000        0x0 ../src/config/default/stack/g3/adaptation/g3_lib_loadng.a(ProtoLoadNg_RouteCost.o)
 .bss           0x0000000000000000        0x0 ../src/config/default/stack/g3/adaptation/g3_lib_loadng.a(ProtoLoadNg_RouteCost.o)
 .data          0x0000000000000000        0x0 ../src/config/default/stack/g3/adaptation/g3_lib_loadng.a(ProtoLoadNg_RouteCost_CapacityMetric.o)
 .bss           0x0000000000000000        0x0 ../src/config/default/stack/g3/adaptation/g3_lib_loadng.a(ProtoLoadNg_RouteCost_CapacityMetric.o)
 .data          0x0000000000000000        0x0 ../src/config/default/stack/g3/adaptation/g3_lib_loadng.a(ProtoLoadNg_RouteCost_CompositeMetric.o)
 .bss           0x0000000000000000        0x0 ../src/config/default/stack/g3/adaptation/g3_lib_loadng.a(ProtoLoadNg_RouteCost_CompositeMetric.o)
 .data          0x0000000000000000        0x0 ../src/config/default/stack/g3/adaptation/g3_lib_loadng.a(ProtoLoadNg_RouteCost_HopCount.o)
 .bss           0x0000000000000000        0x0 ../src/config/default/stack/g3/adaptation/g3_lib_loadng.a(ProtoLoadNg_RouteCost_HopCount.o)
 .data          0x0000000000000000        0x0 ../src/config/default/stack/g3/mac/mac_rf/g3_lib_mac_rf.a(MacRfLow.o)
 .data          0x0000000000000000        0x0 ../src/config/default/stack/g3/mac/mac_rf/g3_lib_mac_rf.a(MacRfMib.o)
 .data          0x0000000000000000        0x0 ../src/config/default/stack/g3/mac/mac_rf/g3_lib_mac_rf.a(MacRfSublayer.o)
 .data          0x0000000000000000        0x0 ../src/config/default/driver/pds/pds.a(wlPdsDataServer.o)
 .data          0x0000000000000000        0x0 ../src/config/default/driver/pds/pds.a(wlPdsInit.o)
 .data          0x0000000000000000        0x0 ../src/config/default/driver/pds/pds.a(D_Nv.o)
 .data          0x0000000000000000        0x0 ../src/config/default/driver/pds/pds.a(S_Nv-Chimera.o)
 .data          0x0000000000000000        0x0 ../src/config/default/driver/device_support/pic32cx_bz2_device_support.a(info_block.o)
 .data          0x0000000000000000        0x0 ../src/config/default/driver/device_support/pic32cx_bz2_device_support.a(rf_system.o)
 .bss           0x0000000000000000        0x0 ../src/config/default/driver/device_support/pic32cx_bz2_device_support.a(rf_system.o)
 .data          0x0000000000000000        0x0 ../src/config/default/driver/device_support/pic32cx_bz2_device_support.a(info_block_plat.o)
 .bss           0x0000000000000000        0x0 ../src/config/default/driver/device_support/pic32cx_bz2_device_support.a(info_block_plat.o)
 .data          0x0000000000000000        0x0 ../src/config/default/driver/device_support/pic32cx_bz2_device_support.a(pmu_dvr.o)
 .bss           0x0000000000000000        0x0 ../src/config/default/driver/device_support/pic32cx_bz2_device_support.a(pmu_dvr.o)
 .data          0x0000000000000000        0x0 ../src/config/default/driver/device_support/pic32cx_bz2_device_support.a(rf.o)
 .bss           0x0000000000000000        0x0 ../src/config/default/driver/device_support/pic32cx_bz2_device_support.a(rf.o)
 .text          0x0000000000000000        0x0 c:/program files/microchip/xc32/v4.60/bin/bin/../../lib/gcc/pic32c/8.3.1/../../../../pic32c/lib/thumb/v7e-m+fp/hard\libpic32c.a(data_init.o)
 .data          0x0000000000000000        0x0 c:/program files/microchip/xc32/v4.60/bin/bin/../../lib/gcc/pic32c/8.3.1/../../../../pic32c/lib/thumb/v7e-m+fp/hard\libpic32c.a(data_init.o)
 .xc_stack_usage
                0x0000000000000000       0x68 c:/program files/microchip/xc32/v4.60/bin/bin/../../lib/gcc/pic32c/8.3.1/../../../../pic32c/lib/thumb/v7e-m+fp/hard\libpic32c.a(data_init.o)
 .xc_stack_usage.hdr
                0x0000000000000000        0xe c:/program files/microchip/xc32/v4.60/bin/bin/../../lib/gcc/pic32c/8.3.1/../../../../pic32c/lib/thumb/v7e-m+fp/hard\libpic32c.a(data_init.o)
 .text          0x0000000000000000        0x0 c:/program files/microchip/xc32/v4.60/bin/bin/../../lib/gcc/pic32c/8.3.1/../../../../pic32c/lib/thumb/v7e-m+fp/hard\libc-size-musl.a(memcmp.o)
 .data          0x0000000000000000        0x0 c:/program files/microchip/xc32/v4.60/bin/bin/../../lib/gcc/pic32c/8.3.1/../../../../pic32c/lib/thumb/v7e-m+fp/hard\libc-size-musl.a(memcmp.o)
 .bss           0x0000000000000000        0x0 c:/program files/microchip/xc32/v4.60/bin/bin/../../lib/gcc/pic32c/8.3.1/../../../../pic32c/lib/thumb/v7e-m+fp/hard\libc-size-musl.a(memcmp.o)
 .xc_stack_usage
                0x0000000000000000       0x14 c:/program files/microchip/xc32/v4.60/bin/bin/../../lib/gcc/pic32c/8.3.1/../../../../pic32c/lib/thumb/v7e-m+fp/hard\libc-size-musl.a(memcmp.o)
 .xc_stack_usage.hdr
                0x0000000000000000        0xe c:/program files/microchip/xc32/v4.60/bin/bin/../../lib/gcc/pic32c/8.3.1/../../../../pic32c/lib/thumb/v7e-m+fp/hard\libc-size-musl.a(memcmp.o)
 .text          0x0000000000000000        0x0 c:/program files/microchip/xc32/v4.60/bin/bin/../../lib/gcc/pic32c/8.3.1/../../../../pic32c/lib/thumb/v7e-m+fp/hard\libc-size-musl.a(memcpy.o)
 .data          0x0000000000000000        0x0 c:/program files/microchip/xc32/v4.60/bin/bin/../../lib/gcc/pic32c/8.3.1/../../../../pic32c/lib/thumb/v7e-m+fp/hard\libc-size-musl.a(memcpy.o)
 .bss           0x0000000000000000        0x0 c:/program files/microchip/xc32/v4.60/bin/bin/../../lib/gcc/pic32c/8.3.1/../../../../pic32c/lib/thumb/v7e-m+fp/hard\libc-size-musl.a(memcpy.o)
 .xc_stack_usage
                0x0000000000000000       0x14 c:/program files/microchip/xc32/v4.60/bin/bin/../../lib/gcc/pic32c/8.3.1/../../../../pic32c/lib/thumb/v7e-m+fp/hard\libc-size-musl.a(memcpy.o)
 .xc_stack_usage.hdr
                0x0000000000000000        0xe c:/program files/microchip/xc32/v4.60/bin/bin/../../lib/gcc/pic32c/8.3.1/../../../../pic32c/lib/thumb/v7e-m+fp/hard\libc-size-musl.a(memcpy.o)
 .text          0x0000000000000000        0x0 c:/program files/microchip/xc32/v4.60/bin/bin/../../lib/gcc/pic32c/8.3.1/../../../../pic32c/lib/thumb/v7e-m+fp/hard\libc-size-musl.a(memmove.o)
 .data          0x0000000000000000        0x0 c:/program files/microchip/xc32/v4.60/bin/bin/../../lib/gcc/pic32c/8.3.1/../../../../pic32c/lib/thumb/v7e-m+fp/hard\libc-size-musl.a(memmove.o)
 .bss           0x0000000000000000        0x0 c:/program files/microchip/xc32/v4.60/bin/bin/../../lib/gcc/pic32c/8.3.1/../../../../pic32c/lib/thumb/v7e-m+fp/hard\libc-size-musl.a(memmove.o)
 .xc_stack_usage
                0x0000000000000000       0x15 c:/program files/microchip/xc32/v4.60/bin/bin/../../lib/gcc/pic32c/8.3.1/../../../../pic32c/lib/thumb/v7e-m+fp/hard\libc-size-musl.a(memmove.o)
 .xc_stack_usage.hdr
                0x0000000000000000        0xe c:/program files/microchip/xc32/v4.60/bin/bin/../../lib/gcc/pic32c/8.3.1/../../../../pic32c/lib/thumb/v7e-m+fp/hard\libc-size-musl.a(memmove.o)
 .text          0x0000000000000000        0x0 c:/program files/microchip/xc32/v4.60/bin/bin/../../lib/gcc/pic32c/8.3.1/../../../../pic32c/lib/thumb/v7e-m+fp/hard\libc-size-musl.a(memset.o)
 .data          0x0000000000000000        0x0 c:/program files/microchip/xc32/v4.60/bin/bin/../../lib/gcc/pic32c/8.3.1/../../../../pic32c/lib/thumb/v7e-m+fp/hard\libc-size-musl.a(memset.o)
 .bss           0x0000000000000000        0x0 c:/program files/microchip/xc32/v4.60/bin/bin/../../lib/gcc/pic32c/8.3.1/../../../../pic32c/lib/thumb/v7e-m+fp/hard\libc-size-musl.a(memset.o)
 .xc_stack_usage
                0x0000000000000000       0x14 c:/program files/microchip/xc32/v4.60/bin/bin/../../lib/gcc/pic32c/8.3.1/../../../../pic32c/lib/thumb/v7e-m+fp/hard\libc-size-musl.a(memset.o)
 .xc_stack_usage.hdr
                0x0000000000000000        0xe c:/program files/microchip/xc32/v4.60/bin/bin/../../lib/gcc/pic32c/8.3.1/../../../../pic32c/lib/thumb/v7e-m+fp/hard\libc-size-musl.a(memset.o)
 .text          0x0000000000000000        0x0 c:/program files/microchip/xc32/v4.60/bin/bin/../../lib/gcc/pic32c/8.3.1/../../../../pic32c/lib/thumb/v7e-m+fp/hard\libc-size-musl.a(strlen.o)
 .data          0x0000000000000000        0x0 c:/program files/microchip/xc32/v4.60/bin/bin/../../lib/gcc/pic32c/8.3.1/../../../../pic32c/lib/thumb/v7e-m+fp/hard\libc-size-musl.a(strlen.o)
 .bss           0x0000000000000000        0x0 c:/program files/microchip/xc32/v4.60/bin/bin/../../lib/gcc/pic32c/8.3.1/../../../../pic32c/lib/thumb/v7e-m+fp/hard\libc-size-musl.a(strlen.o)
 .xc_stack_usage
                0x0000000000000000       0x14 c:/program files/microchip/xc32/v4.60/bin/bin/../../lib/gcc/pic32c/8.3.1/../../../../pic32c/lib/thumb/v7e-m+fp/hard\libc-size-musl.a(strlen.o)
 .xc_stack_usage.hdr
                0x0000000000000000        0xe c:/program files/microchip/xc32/v4.60/bin/bin/../../lib/gcc/pic32c/8.3.1/../../../../pic32c/lib/thumb/v7e-m+fp/hard\libc-size-musl.a(strlen.o)
 .text          0x0000000000000000        0x0 c:/program files/microchip/xc32/v4.60/bin/bin/../../lib/gcc/pic32c/8.3.1/../../../../pic32c/lib/thumb/v7e-m+fp/hard\libc-size-musl.a(strcmp.o)
 .data          0x0000000000000000        0x0 c:/program files/microchip/xc32/v4.60/bin/bin/../../lib/gcc/pic32c/8.3.1/../../../../pic32c/lib/thumb/v7e-m+fp/hard\libc-size-musl.a(strcmp.o)
 .bss           0x0000000000000000        0x0 c:/program files/microchip/xc32/v4.60/bin/bin/../../lib/gcc/pic32c/8.3.1/../../../../pic32c/lib/thumb/v7e-m+fp/hard\libc-size-musl.a(strcmp.o)
 .xc_stack_usage
                0x0000000000000000       0x14 c:/program files/microchip/xc32/v4.60/bin/bin/../../lib/gcc/pic32c/8.3.1/../../../../pic32c/lib/thumb/v7e-m+fp/hard\libc-size-musl.a(strcmp.o)
 .xc_stack_usage.hdr
                0x0000000000000000        0xe c:/program files/microchip/xc32/v4.60/bin/bin/../../lib/gcc/pic32c/8.3.1/../../../../pic32c/lib/thumb/v7e-m+fp/hard\libc-size-musl.a(strcmp.o)
 .text          0x0000000000000000        0x0 c:/program files/microchip/xc32/v4.60/bin/bin/../../lib/gcc/pic32c/8.3.1/../../../../pic32c/lib/thumb/v7e-m+fp/hard\libc-size-musl.a(strncmp.o)
 .data          0x0000000000000000        0x0 c:/program files/microchip/xc32/v4.60/bin/bin/../../lib/gcc/pic32c/8.3.1/../../../../pic32c/lib/thumb/v7e-m+fp/hard\libc-size-musl.a(strncmp.o)
 .bss           0x0000000000000000        0x0 c:/program files/microchip/xc32/v4.60/bin/bin/../../lib/gcc/pic32c/8.3.1/../../../../pic32c/lib/thumb/v7e-m+fp/hard\libc-size-musl.a(strncmp.o)
 .xc_stack_usage
                0x0000000000000000       0x15 c:/program files/microchip/xc32/v4.60/bin/bin/../../lib/gcc/pic32c/8.3.1/../../../../pic32c/lib/thumb/v7e-m+fp/hard\libc-size-musl.a(strncmp.o)
 .text.strncmp  0x0000000000000000       0x28 c:/program files/microchip/xc32/v4.60/bin/bin/../../lib/gcc/pic32c/8.3.1/../../../../pic32c/lib/thumb/v7e-m+fp/hard\libc-size-musl.a(strncmp.o)
 .xc_stack_usage.hdr
                0x0000000000000000        0xe c:/program files/microchip/xc32/v4.60/bin/bin/../../lib/gcc/pic32c/8.3.1/../../../../pic32c/lib/thumb/v7e-m+fp/hard\libc-size-musl.a(strncmp.o)
 .debug_info    0x0000000000000000       0xeb c:/program files/microchip/xc32/v4.60/bin/bin/../../lib/gcc/pic32c/8.3.1/../../../../pic32c/lib/thumb/v7e-m+fp/hard\libc-size-musl.a(strncmp.o)
 .debug_abbrev  0x0000000000000000       0x91 c:/program files/microchip/xc32/v4.60/bin/bin/../../lib/gcc/pic32c/8.3.1/../../../../pic32c/lib/thumb/v7e-m+fp/hard\libc-size-musl.a(strncmp.o)
 .debug_loc     0x0000000000000000      0x1b1 c:/program files/microchip/xc32/v4.60/bin/bin/../../lib/gcc/pic32c/8.3.1/../../../../pic32c/lib/thumb/v7e-m+fp/hard\libc-size-musl.a(strncmp.o)
 .debug_aranges
                0x0000000000000000       0x20 c:/program files/microchip/xc32/v4.60/bin/bin/../../lib/gcc/pic32c/8.3.1/../../../../pic32c/lib/thumb/v7e-m+fp/hard\libc-size-musl.a(strncmp.o)
 .debug_ranges  0x0000000000000000       0x10 c:/program files/microchip/xc32/v4.60/bin/bin/../../lib/gcc/pic32c/8.3.1/../../../../pic32c/lib/thumb/v7e-m+fp/hard\libc-size-musl.a(strncmp.o)
 .debug_line    0x0000000000000000       0xeb c:/program files/microchip/xc32/v4.60/bin/bin/../../lib/gcc/pic32c/8.3.1/../../../../pic32c/lib/thumb/v7e-m+fp/hard\libc-size-musl.a(strncmp.o)
 .debug_str     0x0000000000000000      0x220 c:/program files/microchip/xc32/v4.60/bin/bin/../../lib/gcc/pic32c/8.3.1/../../../../pic32c/lib/thumb/v7e-m+fp/hard\libc-size-musl.a(strncmp.o)
 .comment       0x0000000000000000       0x2c c:/program files/microchip/xc32/v4.60/bin/bin/../../lib/gcc/pic32c/8.3.1/../../../../pic32c/lib/thumb/v7e-m+fp/hard\libc-size-musl.a(strncmp.o)
 .note.GNU-stack
                0x0000000000000000        0x0 c:/program files/microchip/xc32/v4.60/bin/bin/../../lib/gcc/pic32c/8.3.1/../../../../pic32c/lib/thumb/v7e-m+fp/hard\libc-size-musl.a(strncmp.o)
 .debug_frame   0x0000000000000000       0x2c c:/program files/microchip/xc32/v4.60/bin/bin/../../lib/gcc/pic32c/8.3.1/../../../../pic32c/lib/thumb/v7e-m+fp/hard\libc-size-musl.a(strncmp.o)
 .ARM.attributes
                0x0000000000000000       0x36 c:/program files/microchip/xc32/v4.60/bin/bin/../../lib/gcc/pic32c/8.3.1/../../../../pic32c/lib/thumb/v7e-m+fp/hard\libc-size-musl.a(strncmp.o)
 .text          0x0000000000000000        0x0 c:/program files/microchip/xc32/v4.60/bin/bin/../../lib/gcc/pic32c/8.3.1/../../../../pic32c/lib/thumb/v7e-m+fp/hard\libc-size-musl.a(strncpy.o)
 .data          0x0000000000000000        0x0 c:/program files/microchip/xc32/v4.60/bin/bin/../../lib/gcc/pic32c/8.3.1/../../../../pic32c/lib/thumb/v7e-m+fp/hard\libc-size-musl.a(strncpy.o)
 .bss           0x0000000000000000        0x0 c:/program files/microchip/xc32/v4.60/bin/bin/../../lib/gcc/pic32c/8.3.1/../../../../pic32c/lib/thumb/v7e-m+fp/hard\libc-size-musl.a(strncpy.o)
 .xc_stack_usage
                0x0000000000000000       0x15 c:/program files/microchip/xc32/v4.60/bin/bin/../../lib/gcc/pic32c/8.3.1/../../../../pic32c/lib/thumb/v7e-m+fp/hard\libc-size-musl.a(strncpy.o)
 .xc_stack_usage.hdr
                0x0000000000000000        0xe c:/program files/microchip/xc32/v4.60/bin/bin/../../lib/gcc/pic32c/8.3.1/../../../../pic32c/lib/thumb/v7e-m+fp/hard\libc-size-musl.a(strncpy.o)
 .text          0x0000000000000000        0x0 c:/program files/microchip/xc32/v4.60/bin/bin/../../lib/gcc/pic32c/8.3.1/../../../../pic32c/lib/thumb/v7e-m+fp/hard\libc-size-musl.a(strrchr.o)
 .data          0x0000000000000000        0x0 c:/program files/microchip/xc32/v4.60/bin/bin/../../lib/gcc/pic32c/8.3.1/../../../../pic32c/lib/thumb/v7e-m+fp/hard\libc-size-musl.a(strrchr.o)
 .bss           0x0000000000000000        0x0 c:/program files/microchip/xc32/v4.60/bin/bin/../../lib/gcc/pic32c/8.3.1/../../../../pic32c/lib/thumb/v7e-m+fp/hard\libc-size-musl.a(strrchr.o)
 .xc_stack_usage
                0x0000000000000000       0x15 c:/program files/microchip/xc32/v4.60/bin/bin/../../lib/gcc/pic32c/8.3.1/../../../../pic32c/lib/thumb/v7e-m+fp/hard\libc-size-musl.a(strrchr.o)
 .xc_stack_usage.hdr
                0x0000000000000000        0xe c:/program files/microchip/xc32/v4.60/bin/bin/../../lib/gcc/pic32c/8.3.1/../../../../pic32c/lib/thumb/v7e-m+fp/hard\libc-size-musl.a(strrchr.o)
 .text          0x0000000000000000        0x0 c:/program files/microchip/xc32/v4.60/bin/bin/../../lib/gcc/pic32c/8.3.1/../../../../pic32c/lib/thumb/v7e-m+fp/hard\libc-size-musl.a(memrchr.o)
 .data          0x0000000000000000        0x0 c:/program files/microchip/xc32/v4.60/bin/bin/../../lib/gcc/pic32c/8.3.1/../../../../pic32c/lib/thumb/v7e-m+fp/hard\libc-size-musl.a(memrchr.o)
 .bss           0x0000000000000000        0x0 c:/program files/microchip/xc32/v4.60/bin/bin/../../lib/gcc/pic32c/8.3.1/../../../../pic32c/lib/thumb/v7e-m+fp/hard\libc-size-musl.a(memrchr.o)
 .xc_stack_usage
                0x0000000000000000       0x17 c:/program files/microchip/xc32/v4.60/bin/bin/../../lib/gcc/pic32c/8.3.1/../../../../pic32c/lib/thumb/v7e-m+fp/hard\libc-size-musl.a(memrchr.o)
 .xc_stack_usage.hdr
                0x0000000000000000        0xe c:/program files/microchip/xc32/v4.60/bin/bin/../../lib/gcc/pic32c/8.3.1/../../../../pic32c/lib/thumb/v7e-m+fp/hard\libc-size-musl.a(memrchr.o)
 .text          0x0000000000000000        0x0 c:/program files/microchip/xc32/v4.60/bin/bin/../../lib/gcc/pic32c/8.3.1/../../../../pic32c/lib/thumb/v7e-m+fp/hard\libc-size-musl.a(stpncpy.o)
 .data          0x0000000000000000        0x0 c:/program files/microchip/xc32/v4.60/bin/bin/../../lib/gcc/pic32c/8.3.1/../../../../pic32c/lib/thumb/v7e-m+fp/hard\libc-size-musl.a(stpncpy.o)
 .bss           0x0000000000000000        0x0 c:/program files/microchip/xc32/v4.60/bin/bin/../../lib/gcc/pic32c/8.3.1/../../../../pic32c/lib/thumb/v7e-m+fp/hard\libc-size-musl.a(stpncpy.o)
 .xc_stack_usage
                0x0000000000000000       0x15 c:/program files/microchip/xc32/v4.60/bin/bin/../../lib/gcc/pic32c/8.3.1/../../../../pic32c/lib/thumb/v7e-m+fp/hard\libc-size-musl.a(stpncpy.o)
 .xc_stack_usage.hdr
                0x0000000000000000        0xe c:/program files/microchip/xc32/v4.60/bin/bin/../../lib/gcc/pic32c/8.3.1/../../../../pic32c/lib/thumb/v7e-m+fp/hard\libc-size-musl.a(stpncpy.o)
 .text          0x0000000000000000        0x0 c:/program files/microchip/xc32/v4.60/bin/bin/../../lib/gcc/pic32c/8.3.1/../../../../pic32c/lib/thumb/v7e-m+fp/hard\liblmalloc-musl.a(lite_calloc.o)
 .data          0x0000000000000000        0x0 c:/program files/microchip/xc32/v4.60/bin/bin/../../lib/gcc/pic32c/8.3.1/../../../../pic32c/lib/thumb/v7e-m+fp/hard\liblmalloc-musl.a(lite_calloc.o)
 .bss           0x0000000000000000        0x0 c:/program files/microchip/xc32/v4.60/bin/bin/../../lib/gcc/pic32c/8.3.1/../../../../pic32c/lib/thumb/v7e-m+fp/hard\liblmalloc-musl.a(lite_calloc.o)
 .xc_stack_usage
                0x0000000000000000       0x1d c:/program files/microchip/xc32/v4.60/bin/bin/../../lib/gcc/pic32c/8.3.1/../../../../pic32c/lib/thumb/v7e-m+fp/hard\liblmalloc-musl.a(lite_calloc.o)
 .text.__simple_calloc
                0x0000000000000000       0x1c c:/program files/microchip/xc32/v4.60/bin/bin/../../lib/gcc/pic32c/8.3.1/../../../../pic32c/lib/thumb/v7e-m+fp/hard\liblmalloc-musl.a(lite_calloc.o)
 .xc_stack_usage.hdr
                0x0000000000000000        0xe c:/program files/microchip/xc32/v4.60/bin/bin/../../lib/gcc/pic32c/8.3.1/../../../../pic32c/lib/thumb/v7e-m+fp/hard\liblmalloc-musl.a(lite_calloc.o)
 .debug_info    0x0000000000000000      0x133 c:/program files/microchip/xc32/v4.60/bin/bin/../../lib/gcc/pic32c/8.3.1/../../../../pic32c/lib/thumb/v7e-m+fp/hard\liblmalloc-musl.a(lite_calloc.o)
 .debug_abbrev  0x0000000000000000       0xc0 c:/program files/microchip/xc32/v4.60/bin/bin/../../lib/gcc/pic32c/8.3.1/../../../../pic32c/lib/thumb/v7e-m+fp/hard\liblmalloc-musl.a(lite_calloc.o)
 .debug_loc     0x0000000000000000       0x8c c:/program files/microchip/xc32/v4.60/bin/bin/../../lib/gcc/pic32c/8.3.1/../../../../pic32c/lib/thumb/v7e-m+fp/hard\liblmalloc-musl.a(lite_calloc.o)
 .debug_aranges
                0x0000000000000000       0x20 c:/program files/microchip/xc32/v4.60/bin/bin/../../lib/gcc/pic32c/8.3.1/../../../../pic32c/lib/thumb/v7e-m+fp/hard\liblmalloc-musl.a(lite_calloc.o)
 .debug_ranges  0x0000000000000000       0x10 c:/program files/microchip/xc32/v4.60/bin/bin/../../lib/gcc/pic32c/8.3.1/../../../../pic32c/lib/thumb/v7e-m+fp/hard\liblmalloc-musl.a(lite_calloc.o)
 .debug_line    0x0000000000000000      0x157 c:/program files/microchip/xc32/v4.60/bin/bin/../../lib/gcc/pic32c/8.3.1/../../../../pic32c/lib/thumb/v7e-m+fp/hard\liblmalloc-musl.a(lite_calloc.o)
 .debug_str     0x0000000000000000      0x2c4 c:/program files/microchip/xc32/v4.60/bin/bin/../../lib/gcc/pic32c/8.3.1/../../../../pic32c/lib/thumb/v7e-m+fp/hard\liblmalloc-musl.a(lite_calloc.o)
 .comment       0x0000000000000000       0x2c c:/program files/microchip/xc32/v4.60/bin/bin/../../lib/gcc/pic32c/8.3.1/../../../../pic32c/lib/thumb/v7e-m+fp/hard\liblmalloc-musl.a(lite_calloc.o)
 .note.GNU-stack
                0x0000000000000000        0x0 c:/program files/microchip/xc32/v4.60/bin/bin/../../lib/gcc/pic32c/8.3.1/../../../../pic32c/lib/thumb/v7e-m+fp/hard\liblmalloc-musl.a(lite_calloc.o)
 .debug_frame   0x0000000000000000       0x2c c:/program files/microchip/xc32/v4.60/bin/bin/../../lib/gcc/pic32c/8.3.1/../../../../pic32c/lib/thumb/v7e-m+fp/hard\liblmalloc-musl.a(lite_calloc.o)
 .ARM.attributes
                0x0000000000000000       0x36 c:/program files/microchip/xc32/v4.60/bin/bin/../../lib/gcc/pic32c/8.3.1/../../../../pic32c/lib/thumb/v7e-m+fp/hard\liblmalloc-musl.a(lite_calloc.o)
 .text          0x0000000000000000        0x0 c:/program files/microchip/xc32/v4.60/bin/bin/../../lib/gcc/pic32c/8.3.1/../../../../pic32c/lib/thumb/v7e-m+fp/hard\liblmalloc-musl.a(lite_free.o)
 .data          0x0000000000000000        0x0 c:/program files/microchip/xc32/v4.60/bin/bin/../../lib/gcc/pic32c/8.3.1/../../../../pic32c/lib/thumb/v7e-m+fp/hard\liblmalloc-musl.a(lite_free.o)
 .xc_stack_usage
                0x0000000000000000       0x59 c:/program files/microchip/xc32/v4.60/bin/bin/../../lib/gcc/pic32c/8.3.1/../../../../pic32c/lib/thumb/v7e-m+fp/hard\liblmalloc-musl.a(lite_free.o)
 .xc_stack_usage.hdr
                0x0000000000000000        0xe c:/program files/microchip/xc32/v4.60/bin/bin/../../lib/gcc/pic32c/8.3.1/../../../../pic32c/lib/thumb/v7e-m+fp/hard\liblmalloc-musl.a(lite_free.o)
 .text          0x0000000000000000        0x0 c:/program files/microchip/xc32/v4.60/bin/bin/../../lib/gcc/pic32c/8.3.1/../../../../pic32c/lib/thumb/v7e-m+fp/hard\liblmalloc-musl.a(lite_malloc.o)
 .bss           0x0000000000000000        0x0 c:/program files/microchip/xc32/v4.60/bin/bin/../../lib/gcc/pic32c/8.3.1/../../../../pic32c/lib/thumb/v7e-m+fp/hard\liblmalloc-musl.a(lite_malloc.o)
 .xc_stack_usage
                0x0000000000000000       0x1d c:/program files/microchip/xc32/v4.60/bin/bin/../../lib/gcc/pic32c/8.3.1/../../../../pic32c/lib/thumb/v7e-m+fp/hard\liblmalloc-musl.a(lite_malloc.o)
 .xc_stack_usage.hdr
                0x0000000000000000        0xe c:/program files/microchip/xc32/v4.60/bin/bin/../../lib/gcc/pic32c/8.3.1/../../../../pic32c/lib/thumb/v7e-m+fp/hard\liblmalloc-musl.a(lite_malloc.o)
 .xc_stack_usage.hdr
                0x0000000000000000        0xe c:/program files/microchip/xc32/v4.60/bin/bin/../../lib/gcc/pic32c/8.3.1/../../../../pic32c/lib/thumb/v7e-m+fp/hard\libm-fast-emfloat.a(round.o)
 .xc_stack_usage
                0x0000000000000000       0x13 c:/program files/microchip/xc32/v4.60/bin/bin/../../lib/gcc/pic32c/8.3.1/../../../../pic32c/lib/thumb/v7e-m+fp/hard\libm-fast-emfloat.a(round.o)
 .xc_stack_usage.hdr
                0x0000000000000000        0xe c:/program files/microchip/xc32/v4.60/bin/bin/../../lib/gcc/pic32c/8.3.1/../../../../pic32c/lib/thumb/v7e-m+fp/hard\libm-fast-emfloat.a(log.o)
 .xc_stack_usage
                0x0000000000000000       0x11 c:/program files/microchip/xc32/v4.60/bin/bin/../../lib/gcc/pic32c/8.3.1/../../../../pic32c/lib/thumb/v7e-m+fp/hard\libm-fast-emfloat.a(log.o)
 .xc_stack_usage.hdr
                0x0000000000000000        0xe c:/program files/microchip/xc32/v4.60/bin/bin/../../lib/gcc/pic32c/8.3.1/../../../../pic32c/lib/thumb/v7e-m+fp/hard\libm-fast-emfloat.a(pow.o)
 .xc_stack_usage
                0x0000000000000000       0x11 c:/program files/microchip/xc32/v4.60/bin/bin/../../lib/gcc/pic32c/8.3.1/../../../../pic32c/lib/thumb/v7e-m+fp/hard\libm-fast-emfloat.a(pow.o)
 .xc_stack_usage.hdr
                0x0000000000000000        0xe c:/program files/microchip/xc32/v4.60/bin/bin/../../lib/gcc/pic32c/8.3.1/../../../../pic32c/lib/thumb/v7e-m+fp/hard\libm-fast-emfloat.a(__SEGGER_RTL_float64_Log.o)
 .xc_stack_usage
                0x0000000000000000        0x0 c:/program files/microchip/xc32/v4.60/bin/bin/../../lib/gcc/pic32c/8.3.1/../../../../pic32c/lib/thumb/v7e-m+fp/hard\libm-fast-emfloat.a(__SEGGER_RTL_float64_Log.o)
 .xc_stack_usage.hdr
                0x0000000000000000        0xe c:/program files/microchip/xc32/v4.60/bin/bin/../../lib/gcc/pic32c/8.3.1/../../../../pic32c/lib/thumb/v7e-m+fp/hard\libm-fast-emfloat.a(__aeabi_dadd.o)
 .xc_stack_usage
                0x0000000000000000       0x1a c:/program files/microchip/xc32/v4.60/bin/bin/../../lib/gcc/pic32c/8.3.1/../../../../pic32c/lib/thumb/v7e-m+fp/hard\libm-fast-emfloat.a(__aeabi_dadd.o)
 .xc_stack_usage.hdr
                0x0000000000000000        0xe c:/program files/microchip/xc32/v4.60/bin/bin/../../lib/gcc/pic32c/8.3.1/../../../../pic32c/lib/thumb/v7e-m+fp/hard\libm-fast-emfloat.a(__aeabi_dsub.o)
 .xc_stack_usage
                0x0000000000000000       0x1a c:/program files/microchip/xc32/v4.60/bin/bin/../../lib/gcc/pic32c/8.3.1/../../../../pic32c/lib/thumb/v7e-m+fp/hard\libm-fast-emfloat.a(__aeabi_dsub.o)
 .xc_stack_usage.hdr
                0x0000000000000000        0xe c:/program files/microchip/xc32/v4.60/bin/bin/../../lib/gcc/pic32c/8.3.1/../../../../pic32c/lib/thumb/v7e-m+fp/hard\libm-fast-emfloat.a(__aeabi_dmul.o)
 .xc_stack_usage
                0x0000000000000000       0x1a c:/program files/microchip/xc32/v4.60/bin/bin/../../lib/gcc/pic32c/8.3.1/../../../../pic32c/lib/thumb/v7e-m+fp/hard\libm-fast-emfloat.a(__aeabi_dmul.o)
 .xc_stack_usage.hdr
                0x0000000000000000        0xe c:/program files/microchip/xc32/v4.60/bin/bin/../../lib/gcc/pic32c/8.3.1/../../../../pic32c/lib/thumb/v7e-m+fp/hard\libm-fast-emfloat.a(__aeabi_ddiv.o)
 .xc_stack_usage
                0x0000000000000000       0x1a c:/program files/microchip/xc32/v4.60/bin/bin/../../lib/gcc/pic32c/8.3.1/../../../../pic32c/lib/thumb/v7e-m+fp/hard\libm-fast-emfloat.a(__aeabi_ddiv.o)
 .xc_stack_usage.hdr
                0x0000000000000000        0xe c:/program files/microchip/xc32/v4.60/bin/bin/../../lib/gcc/pic32c/8.3.1/../../../../pic32c/lib/thumb/v7e-m+fp/hard\libm-fast-emfloat.a(__aeabi_dcmpeq.o)
 .xc_stack_usage
                0x0000000000000000       0x1c c:/program files/microchip/xc32/v4.60/bin/bin/../../lib/gcc/pic32c/8.3.1/../../../../pic32c/lib/thumb/v7e-m+fp/hard\libm-fast-emfloat.a(__aeabi_dcmpeq.o)
 .xc_stack_usage.hdr
                0x0000000000000000        0xe c:/program files/microchip/xc32/v4.60/bin/bin/../../lib/gcc/pic32c/8.3.1/../../../../pic32c/lib/thumb/v7e-m+fp/hard\libm-fast-emfloat.a(__aeabi_dcmpgt.o)
 .xc_stack_usage
                0x0000000000000000       0x1c c:/program files/microchip/xc32/v4.60/bin/bin/../../lib/gcc/pic32c/8.3.1/../../../../pic32c/lib/thumb/v7e-m+fp/hard\libm-fast-emfloat.a(__aeabi_dcmpgt.o)
 .xc_stack_usage.hdr
                0x0000000000000000        0xe c:/program files/microchip/xc32/v4.60/bin/bin/../../lib/gcc/pic32c/8.3.1/../../../../pic32c/lib/thumb/v7e-m+fp/hard\libm-fast-emfloat.a(__aeabi_dcmplt.o)
 .xc_stack_usage
                0x0000000000000000       0x1c c:/program files/microchip/xc32/v4.60/bin/bin/../../lib/gcc/pic32c/8.3.1/../../../../pic32c/lib/thumb/v7e-m+fp/hard\libm-fast-emfloat.a(__aeabi_dcmplt.o)
 .xc_stack_usage.hdr
                0x0000000000000000        0xe c:/program files/microchip/xc32/v4.60/bin/bin/../../lib/gcc/pic32c/8.3.1/../../../../pic32c/lib/thumb/v7e-m+fp/hard\libm-fast-emfloat.a(__aeabi_d2iz.o)
 .xc_stack_usage
                0x0000000000000000       0x1a c:/program files/microchip/xc32/v4.60/bin/bin/../../lib/gcc/pic32c/8.3.1/../../../../pic32c/lib/thumb/v7e-m+fp/hard\libm-fast-emfloat.a(__aeabi_d2iz.o)
 .xc_stack_usage.hdr
                0x0000000000000000        0xe c:/program files/microchip/xc32/v4.60/bin/bin/../../lib/gcc/pic32c/8.3.1/../../../../pic32c/lib/thumb/v7e-m+fp/hard\libm-fast-emfloat.a(__aeabi_d2uiz.o)
 .xc_stack_usage
                0x0000000000000000       0x1b c:/program files/microchip/xc32/v4.60/bin/bin/../../lib/gcc/pic32c/8.3.1/../../../../pic32c/lib/thumb/v7e-m+fp/hard\libm-fast-emfloat.a(__aeabi_d2uiz.o)
 .xc_stack_usage.hdr
                0x0000000000000000        0xe c:/program files/microchip/xc32/v4.60/bin/bin/../../lib/gcc/pic32c/8.3.1/../../../../pic32c/lib/thumb/v7e-m+fp/hard\libm-fast-emfloat.a(__aeabi_i2d.o)
 .xc_stack_usage
                0x0000000000000000       0x19 c:/program files/microchip/xc32/v4.60/bin/bin/../../lib/gcc/pic32c/8.3.1/../../../../pic32c/lib/thumb/v7e-m+fp/hard\libm-fast-emfloat.a(__aeabi_i2d.o)
 .xc_stack_usage.hdr
                0x0000000000000000        0xe c:/program files/microchip/xc32/v4.60/bin/bin/../../lib/gcc/pic32c/8.3.1/../../../../pic32c/lib/thumb/v7e-m+fp/hard\libm-fast-emfloat.a(__aeabi_ui2d.o)
 .xc_stack_usage
                0x0000000000000000       0x1a c:/program files/microchip/xc32/v4.60/bin/bin/../../lib/gcc/pic32c/8.3.1/../../../../pic32c/lib/thumb/v7e-m+fp/hard\libm-fast-emfloat.a(__aeabi_ui2d.o)
 .xc_stack_usage.hdr
                0x0000000000000000        0xe c:/program files/microchip/xc32/v4.60/bin/bin/../../lib/gcc/pic32c/8.3.1/../../../../pic32c/lib/thumb/v7e-m+fp/hard\libm-fast-emfloat.a(__aeabi_f2d.o)
 .xc_stack_usage
                0x0000000000000000       0x19 c:/program files/microchip/xc32/v4.60/bin/bin/../../lib/gcc/pic32c/8.3.1/../../../../pic32c/lib/thumb/v7e-m+fp/hard\libm-fast-emfloat.a(__aeabi_f2d.o)
 .xc_stack_usage.hdr
                0x0000000000000000        0xe c:/program files/microchip/xc32/v4.60/bin/bin/../../lib/gcc/pic32c/8.3.1/../../../../pic32c/lib/thumb/v7e-m+fp/hard\libm-fast-emfloat.a(__aeabi_d2f.o)
 .xc_stack_usage
                0x0000000000000000       0x19 c:/program files/microchip/xc32/v4.60/bin/bin/../../lib/gcc/pic32c/8.3.1/../../../../pic32c/lib/thumb/v7e-m+fp/hard\libm-fast-emfloat.a(__aeabi_d2f.o)
 .xc_stack_usage.hdr
                0x0000000000000000        0xe c:/program files/microchip/xc32/v4.60/bin/bin/../../lib/gcc/pic32c/8.3.1/../../../../pic32c/lib/thumb/v7e-m+fp/hard\libm-fast-emfloat.a(__SEGGER_RTL_float64_PolyEvalP.o)
 .xc_stack_usage
                0x0000000000000000       0x2c c:/program files/microchip/xc32/v4.60/bin/bin/../../lib/gcc/pic32c/8.3.1/../../../../pic32c/lib/thumb/v7e-m+fp/hard\libm-fast-emfloat.a(__SEGGER_RTL_float64_PolyEvalP.o)
 .xc_stack_usage.hdr
                0x0000000000000000        0xe c:/program files/microchip/xc32/v4.60/bin/bin/../../lib/gcc/pic32c/8.3.1/../../../../pic32c/lib/thumb/v7e-m+fp/hard\libm-fast-emfloat.a(__SEGGER_RTL_float64_PolyEvalQ.o)
 .xc_stack_usage
                0x0000000000000000       0x2c c:/program files/microchip/xc32/v4.60/bin/bin/../../lib/gcc/pic32c/8.3.1/../../../../pic32c/lib/thumb/v7e-m+fp/hard\libm-fast-emfloat.a(__SEGGER_RTL_float64_PolyEvalQ.o)
 .xc_stack_usage.hdr
                0x0000000000000000        0xe c:/program files/microchip/xc32/v4.60/bin/bin/../../lib/gcc/pic32c/8.3.1/../../../../pic32c/lib/thumb/v7e-m+fp/hard\libm-fast-emfloat.a(ldexp.o)
 .xc_stack_usage
                0x0000000000000000       0x13 c:/program files/microchip/xc32/v4.60/bin/bin/../../lib/gcc/pic32c/8.3.1/../../../../pic32c/lib/thumb/v7e-m+fp/hard\libm-fast-emfloat.a(ldexp.o)
 .xc_stack_usage.hdr
                0x0000000000000000        0xe c:/program files/microchip/xc32/v4.60/bin/bin/../../lib/gcc/pic32c/8.3.1/../../../../pic32c/lib/thumb/v7e-m+fp/hard\libm-fast-emfloat.a(frexp.o)
 .xc_stack_usage
                0x0000000000000000       0x13 c:/program files/microchip/xc32/v4.60/bin/bin/../../lib/gcc/pic32c/8.3.1/../../../../pic32c/lib/thumb/v7e-m+fp/hard\libm-fast-emfloat.a(frexp.o)
 .xc_stack_usage.hdr
                0x0000000000000000        0xe c:/program files/microchip/xc32/v4.60/bin/bin/../../lib/gcc/pic32c/8.3.1/../../../../pic32c/lib/thumb/v7e-m+fp/hard\libm-fast-emfloat.a(exp.o)
 .xc_stack_usage
                0x0000000000000000       0x11 c:/program files/microchip/xc32/v4.60/bin/bin/../../lib/gcc/pic32c/8.3.1/../../../../pic32c/lib/thumb/v7e-m+fp/hard\libm-fast-emfloat.a(exp.o)
 .text          0x0000000000000000        0x0 c:/program files/microchip/xc32/v4.60/bin/bin/../../lib/gcc/pic32c/8.3.1/../../../../pic32c/lib/thumb/v7e-m+fp/hard\libc-musl.a(isxdigit.o)
 .data          0x0000000000000000        0x0 c:/program files/microchip/xc32/v4.60/bin/bin/../../lib/gcc/pic32c/8.3.1/../../../../pic32c/lib/thumb/v7e-m+fp/hard\libc-musl.a(isxdigit.o)
 .bss           0x0000000000000000        0x0 c:/program files/microchip/xc32/v4.60/bin/bin/../../lib/gcc/pic32c/8.3.1/../../../../pic32c/lib/thumb/v7e-m+fp/hard\libc-musl.a(isxdigit.o)
 .xc_stack_usage
                0x0000000000000000       0x30 c:/program files/microchip/xc32/v4.60/bin/bin/../../lib/gcc/pic32c/8.3.1/../../../../pic32c/lib/thumb/v7e-m+fp/hard\libc-musl.a(isxdigit.o)
 .text.__isxdigit_l
                0x0000000000000000        0x4 c:/program files/microchip/xc32/v4.60/bin/bin/../../lib/gcc/pic32c/8.3.1/../../../../pic32c/lib/thumb/v7e-m+fp/hard\libc-musl.a(isxdigit.o)
 .xc_stack_usage.hdr
                0x0000000000000000        0xe c:/program files/microchip/xc32/v4.60/bin/bin/../../lib/gcc/pic32c/8.3.1/../../../../pic32c/lib/thumb/v7e-m+fp/hard\libc-musl.a(isxdigit.o)
 .text          0x0000000000000000        0x0 c:/program files/microchip/xc32/v4.60/bin/bin/../../lib/gcc/pic32c/8.3.1/../../../../pic32c/lib/thumb/v7e-m+fp/hard\libc-musl.a(tolower.o)
 .data          0x0000000000000000        0x0 c:/program files/microchip/xc32/v4.60/bin/bin/../../lib/gcc/pic32c/8.3.1/../../../../pic32c/lib/thumb/v7e-m+fp/hard\libc-musl.a(tolower.o)
 .bss           0x0000000000000000        0x0 c:/program files/microchip/xc32/v4.60/bin/bin/../../lib/gcc/pic32c/8.3.1/../../../../pic32c/lib/thumb/v7e-m+fp/hard\libc-musl.a(tolower.o)
 .xc_stack_usage
                0x0000000000000000       0x2e c:/program files/microchip/xc32/v4.60/bin/bin/../../lib/gcc/pic32c/8.3.1/../../../../pic32c/lib/thumb/v7e-m+fp/hard\libc-musl.a(tolower.o)
 .text.__tolower_l
                0x0000000000000000        0x4 c:/program files/microchip/xc32/v4.60/bin/bin/../../lib/gcc/pic32c/8.3.1/../../../../pic32c/lib/thumb/v7e-m+fp/hard\libc-musl.a(tolower.o)
 .xc_stack_usage.hdr
                0x0000000000000000        0xe c:/program files/microchip/xc32/v4.60/bin/bin/../../lib/gcc/pic32c/8.3.1/../../../../pic32c/lib/thumb/v7e-m+fp/hard\libc-musl.a(tolower.o)
 .text          0x0000000000000000        0x0 c:/program files/microchip/xc32/v4.60/bin/bin/../../lib/gcc/pic32c/8.3.1/../../../../pic32c/lib/thumb/v7e-m+fp/hard\libc-musl.a(toupper.o)
 .data          0x0000000000000000        0x0 c:/program files/microchip/xc32/v4.60/bin/bin/../../lib/gcc/pic32c/8.3.1/../../../../pic32c/lib/thumb/v7e-m+fp/hard\libc-musl.a(toupper.o)
 .bss           0x0000000000000000        0x0 c:/program files/microchip/xc32/v4.60/bin/bin/../../lib/gcc/pic32c/8.3.1/../../../../pic32c/lib/thumb/v7e-m+fp/hard\libc-musl.a(toupper.o)
 .xc_stack_usage
                0x0000000000000000       0x2e c:/program files/microchip/xc32/v4.60/bin/bin/../../lib/gcc/pic32c/8.3.1/../../../../pic32c/lib/thumb/v7e-m+fp/hard\libc-musl.a(toupper.o)
 .text.__toupper_l
                0x0000000000000000        0x4 c:/program files/microchip/xc32/v4.60/bin/bin/../../lib/gcc/pic32c/8.3.1/../../../../pic32c/lib/thumb/v7e-m+fp/hard\libc-musl.a(toupper.o)
 .xc_stack_usage.hdr
                0x0000000000000000        0xe c:/program files/microchip/xc32/v4.60/bin/bin/../../lib/gcc/pic32c/8.3.1/../../../../pic32c/lib/thumb/v7e-m+fp/hard\libc-musl.a(toupper.o)
 .text          0x0000000000000000        0x0 c:/program files/microchip/xc32/v4.60/bin/bin/../../lib/gcc/pic32c/8.3.1/../../../../pic32c/lib/thumb/v7e-m+fp/hard\libc-musl.a(__libc_start_main.o)
 .data          0x0000000000000000        0x0 c:/program files/microchip/xc32/v4.60/bin/bin/../../lib/gcc/pic32c/8.3.1/../../../../pic32c/lib/thumb/v7e-m+fp/hard\libc-musl.a(__libc_start_main.o)
 .bss           0x0000000000000000        0x0 c:/program files/microchip/xc32/v4.60/bin/bin/../../lib/gcc/pic32c/8.3.1/../../../../pic32c/lib/thumb/v7e-m+fp/hard\libc-musl.a(__libc_start_main.o)
 .xc_stack_usage
                0x0000000000000000       0x34 c:/program files/microchip/xc32/v4.60/bin/bin/../../lib/gcc/pic32c/8.3.1/../../../../pic32c/lib/thumb/v7e-m+fp/hard\libc-musl.a(__libc_start_main.o)
 .xc_stack_usage.hdr
                0x0000000000000000        0xe c:/program files/microchip/xc32/v4.60/bin/bin/../../lib/gcc/pic32c/8.3.1/../../../../pic32c/lib/thumb/v7e-m+fp/hard\libc-musl.a(__libc_start_main.o)
 .text          0x0000000000000000        0x0 c:/program files/microchip/xc32/v4.60/bin/bin/../../lib/gcc/pic32c/8.3.1/../../../../pic32c/lib/thumb/v7e-m+fp/hard\libc-musl.a(__errno_location.o)
 .data          0x0000000000000000        0x0 c:/program files/microchip/xc32/v4.60/bin/bin/../../lib/gcc/pic32c/8.3.1/../../../../pic32c/lib/thumb/v7e-m+fp/hard\libc-musl.a(__errno_location.o)
 .xc_stack_usage.hdr
                0x0000000000000000        0xe c:/program files/microchip/xc32/v4.60/bin/bin/../../lib/gcc/pic32c/8.3.1/../../../../pic32c/lib/thumb/v7e-m+fp/hard\libc-musl.a(__errno_location.o)
 .text          0x0000000000000000        0x0 c:/program files/microchip/xc32/v4.60/bin/bin/../../lib/gcc/pic32c/8.3.1/../../../../pic32c/lib/thumb/v7e-m+fp/hard\libc-musl.a(libc.o)
 .data          0x0000000000000000        0x0 c:/program files/microchip/xc32/v4.60/bin/bin/../../lib/gcc/pic32c/8.3.1/../../../../pic32c/lib/thumb/v7e-m+fp/hard\libc-musl.a(libc.o)
 .xc_stack_usage.hdr
                0x0000000000000000        0xe c:/program files/microchip/xc32/v4.60/bin/bin/../../lib/gcc/pic32c/8.3.1/../../../../pic32c/lib/thumb/v7e-m+fp/hard\libc-musl.a(libc.o)
 .text          0x0000000000000000        0x0 c:/program files/microchip/xc32/v4.60/bin/bin/../../lib/gcc/pic32c/8.3.1/../../../../pic32c/lib/thumb/v7e-m+fp/hard\libc-musl.a(expand_heap.o)
 .data          0x0000000000000000        0x0 c:/program files/microchip/xc32/v4.60/bin/bin/../../lib/gcc/pic32c/8.3.1/../../../../pic32c/lib/thumb/v7e-m+fp/hard\libc-musl.a(expand_heap.o)
 .bss           0x0000000000000000        0x0 c:/program files/microchip/xc32/v4.60/bin/bin/../../lib/gcc/pic32c/8.3.1/../../../../pic32c/lib/thumb/v7e-m+fp/hard\libc-musl.a(expand_heap.o)
 .xc_stack_usage
                0x0000000000000000       0x1b c:/program files/microchip/xc32/v4.60/bin/bin/../../lib/gcc/pic32c/8.3.1/../../../../pic32c/lib/thumb/v7e-m+fp/hard\libc-musl.a(expand_heap.o)
 .xc_stack_usage.hdr
                0x0000000000000000        0xe c:/program files/microchip/xc32/v4.60/bin/bin/../../lib/gcc/pic32c/8.3.1/../../../../pic32c/lib/thumb/v7e-m+fp/hard\libc-musl.a(expand_heap.o)
 .text          0x0000000000000000        0x0 c:/program files/microchip/xc32/v4.60/bin/bin/../../lib/gcc/pic32c/8.3.1/../../../../pic32c/lib/thumb/v7e-m+fp/hard\libc-musl.a(rand.o)
 .data          0x0000000000000000        0x0 c:/program files/microchip/xc32/v4.60/bin/bin/../../lib/gcc/pic32c/8.3.1/../../../../pic32c/lib/thumb/v7e-m+fp/hard\libc-musl.a(rand.o)
 .xc_stack_usage
                0x0000000000000000       0x25 c:/program files/microchip/xc32/v4.60/bin/bin/../../lib/gcc/pic32c/8.3.1/../../../../pic32c/lib/thumb/v7e-m+fp/hard\libc-musl.a(rand.o)
 .xc_stack_usage.hdr
                0x0000000000000000        0xe c:/program files/microchip/xc32/v4.60/bin/bin/../../lib/gcc/pic32c/8.3.1/../../../../pic32c/lib/thumb/v7e-m+fp/hard\libc-musl.a(rand.o)
 .text          0x0000000000000000        0x0 c:/program files/microchip/xc32/v4.60/bin/bin/../../lib/gcc/pic32c/8.3.1/../../../../pic32c/lib/thumb/v7e-m+fp/hard\libc-musl.a(vsnprintf.o)
 .data          0x0000000000000000        0x0 c:/program files/microchip/xc32/v4.60/bin/bin/../../lib/gcc/pic32c/8.3.1/../../../../pic32c/lib/thumb/v7e-m+fp/hard\libc-musl.a(vsnprintf.o)
 .bss           0x0000000000000000        0x0 c:/program files/microchip/xc32/v4.60/bin/bin/../../lib/gcc/pic32c/8.3.1/../../../../pic32c/lib/thumb/v7e-m+fp/hard\libc-musl.a(vsnprintf.o)
 .xc_stack_usage
                0x0000000000000000       0x17 c:/program files/microchip/xc32/v4.60/bin/bin/../../lib/gcc/pic32c/8.3.1/../../../../pic32c/lib/thumb/v7e-m+fp/hard\libc-musl.a(vsnprintf.o)
 .xc_stack_usage.hdr
                0x0000000000000000        0xe c:/program files/microchip/xc32/v4.60/bin/bin/../../lib/gcc/pic32c/8.3.1/../../../../pic32c/lib/thumb/v7e-m+fp/hard\libc-musl.a(vsnprintf.o)
 .text          0x0000000000000000        0x0 c:/program files/microchip/xc32/v4.60/bin/bin/../../lib/gcc/pic32c/8.3.1/../../../../pic32c/lib/thumb/v7e-m+fp/hard\libc-musl.a(snprintf.o)
 .data          0x0000000000000000        0x0 c:/program files/microchip/xc32/v4.60/bin/bin/../../lib/gcc/pic32c/8.3.1/../../../../pic32c/lib/thumb/v7e-m+fp/hard\libc-musl.a(snprintf.o)
 .bss           0x0000000000000000        0x0 c:/program files/microchip/xc32/v4.60/bin/bin/../../lib/gcc/pic32c/8.3.1/../../../../pic32c/lib/thumb/v7e-m+fp/hard\libc-musl.a(snprintf.o)
 .xc_stack_usage
                0x0000000000000000       0x16 c:/program files/microchip/xc32/v4.60/bin/bin/../../lib/gcc/pic32c/8.3.1/../../../../pic32c/lib/thumb/v7e-m+fp/hard\libc-musl.a(snprintf.o)
 .xc_stack_usage.hdr
                0x0000000000000000        0xe c:/program files/microchip/xc32/v4.60/bin/bin/../../lib/gcc/pic32c/8.3.1/../../../../pic32c/lib/thumb/v7e-m+fp/hard\libc-musl.a(snprintf.o)
 .text          0x0000000000000000        0x0 c:/program files/microchip/xc32/v4.60/bin/bin/../../lib/gcc/pic32c/8.3.1/../../../../pic32c/lib/thumb/v7e-m+fp/hard\libc-musl.a(sprintf.o)
 .data          0x0000000000000000        0x0 c:/program files/microchip/xc32/v4.60/bin/bin/../../lib/gcc/pic32c/8.3.1/../../../../pic32c/lib/thumb/v7e-m+fp/hard\libc-musl.a(sprintf.o)
 .bss           0x0000000000000000        0x0 c:/program files/microchip/xc32/v4.60/bin/bin/../../lib/gcc/pic32c/8.3.1/../../../../pic32c/lib/thumb/v7e-m+fp/hard\libc-musl.a(sprintf.o)
 .xc_stack_usage
                0x0000000000000000       0x15 c:/program files/microchip/xc32/v4.60/bin/bin/../../lib/gcc/pic32c/8.3.1/../../../../pic32c/lib/thumb/v7e-m+fp/hard\libc-musl.a(sprintf.o)
 .xc_stack_usage.hdr
                0x0000000000000000        0xe c:/program files/microchip/xc32/v4.60/bin/bin/../../lib/gcc/pic32c/8.3.1/../../../../pic32c/lib/thumb/v7e-m+fp/hard\libc-musl.a(sprintf.o)
 .text          0x0000000000000000        0x0 c:/program files/microchip/xc32/v4.60/bin/bin/../../lib/gcc/pic32c/8.3.1/../../../../pic32c/lib/thumb/v7e-m+fp/hard\libc-musl.a(vsprintf.o)
 .data          0x0000000000000000        0x0 c:/program files/microchip/xc32/v4.60/bin/bin/../../lib/gcc/pic32c/8.3.1/../../../../pic32c/lib/thumb/v7e-m+fp/hard\libc-musl.a(vsprintf.o)
 .bss           0x0000000000000000        0x0 c:/program files/microchip/xc32/v4.60/bin/bin/../../lib/gcc/pic32c/8.3.1/../../../../pic32c/lib/thumb/v7e-m+fp/hard\libc-musl.a(vsprintf.o)
 .xc_stack_usage
                0x0000000000000000       0x16 c:/program files/microchip/xc32/v4.60/bin/bin/../../lib/gcc/pic32c/8.3.1/../../../../pic32c/lib/thumb/v7e-m+fp/hard\libc-musl.a(vsprintf.o)
 .xc_stack_usage.hdr
                0x0000000000000000        0xe c:/program files/microchip/xc32/v4.60/bin/bin/../../lib/gcc/pic32c/8.3.1/../../../../pic32c/lib/thumb/v7e-m+fp/hard\libc-musl.a(vsprintf.o)
 .text          0x0000000000000000        0x0 c:/program files/microchip/xc32/v4.60/bin/bin/../../lib/gcc/pic32c/8.3.1/../../../../pic32c/lib/thumb/v7e-m+fp/hard\libc-musl.a(strtol.o)
 .data          0x0000000000000000        0x0 c:/program files/microchip/xc32/v4.60/bin/bin/../../lib/gcc/pic32c/8.3.1/../../../../pic32c/lib/thumb/v7e-m+fp/hard\libc-musl.a(strtol.o)
 .bss           0x0000000000000000        0x0 c:/program files/microchip/xc32/v4.60/bin/bin/../../lib/gcc/pic32c/8.3.1/../../../../pic32c/lib/thumb/v7e-m+fp/hard\libc-musl.a(strtol.o)
 .xc_stack_usage
                0x0000000000000000       0x96 c:/program files/microchip/xc32/v4.60/bin/bin/../../lib/gcc/pic32c/8.3.1/../../../../pic32c/lib/thumb/v7e-m+fp/hard\libc-musl.a(strtol.o)
 .text.strtoull
                0x0000000000000000       0x16 c:/program files/microchip/xc32/v4.60/bin/bin/../../lib/gcc/pic32c/8.3.1/../../../../pic32c/lib/thumb/v7e-m+fp/hard\libc-musl.a(strtol.o)
 .text.strtoll  0x0000000000000000       0x14 c:/program files/microchip/xc32/v4.60/bin/bin/../../lib/gcc/pic32c/8.3.1/../../../../pic32c/lib/thumb/v7e-m+fp/hard\libc-musl.a(strtol.o)
 .text.strtoul  0x0000000000000000       0x14 c:/program files/microchip/xc32/v4.60/bin/bin/../../lib/gcc/pic32c/8.3.1/../../../../pic32c/lib/thumb/v7e-m+fp/hard\libc-musl.a(strtol.o)
 .text.strtoimax
                0x0000000000000000        0x4 c:/program files/microchip/xc32/v4.60/bin/bin/../../lib/gcc/pic32c/8.3.1/../../../../pic32c/lib/thumb/v7e-m+fp/hard\libc-musl.a(strtol.o)
 .text.strtoumax
                0x0000000000000000        0x4 c:/program files/microchip/xc32/v4.60/bin/bin/../../lib/gcc/pic32c/8.3.1/../../../../pic32c/lib/thumb/v7e-m+fp/hard\libc-musl.a(strtol.o)
 .xc_stack_usage.hdr
                0x0000000000000000        0xe c:/program files/microchip/xc32/v4.60/bin/bin/../../lib/gcc/pic32c/8.3.1/../../../../pic32c/lib/thumb/v7e-m+fp/hard\libc-musl.a(strtol.o)
 .text          0x0000000000000000        0x0 c:/program files/microchip/xc32/v4.60/bin/bin/../../lib/gcc/pic32c/8.3.1/../../../../pic32c/lib/thumb/v7e-m+fp/hard\libc-musl.a(gmtime.o)
 .data          0x0000000000000000        0x0 c:/program files/microchip/xc32/v4.60/bin/bin/../../lib/gcc/pic32c/8.3.1/../../../../pic32c/lib/thumb/v7e-m+fp/hard\libc-musl.a(gmtime.o)
 .bss           0x0000000000000000       0x2c c:/program files/microchip/xc32/v4.60/bin/bin/../../lib/gcc/pic32c/8.3.1/../../../../pic32c/lib/thumb/v7e-m+fp/hard\libc-musl.a(gmtime.o)
 .xc_stack_usage
                0x0000000000000000       0x14 c:/program files/microchip/xc32/v4.60/bin/bin/../../lib/gcc/pic32c/8.3.1/../../../../pic32c/lib/thumb/v7e-m+fp/hard\libc-musl.a(gmtime.o)
 .text.gmtime   0x0000000000000000        0xc c:/program files/microchip/xc32/v4.60/bin/bin/../../lib/gcc/pic32c/8.3.1/../../../../pic32c/lib/thumb/v7e-m+fp/hard\libc-musl.a(gmtime.o)
 .xc_stack_usage.hdr
                0x0000000000000000        0xe c:/program files/microchip/xc32/v4.60/bin/bin/../../lib/gcc/pic32c/8.3.1/../../../../pic32c/lib/thumb/v7e-m+fp/hard\libc-musl.a(gmtime.o)
 .debug_info    0x0000000000000000      0x199 c:/program files/microchip/xc32/v4.60/bin/bin/../../lib/gcc/pic32c/8.3.1/../../../../pic32c/lib/thumb/v7e-m+fp/hard\libc-musl.a(gmtime.o)
 .debug_abbrev  0x0000000000000000       0xde c:/program files/microchip/xc32/v4.60/bin/bin/../../lib/gcc/pic32c/8.3.1/../../../../pic32c/lib/thumb/v7e-m+fp/hard\libc-musl.a(gmtime.o)
 .debug_loc     0x0000000000000000       0x25 c:/program files/microchip/xc32/v4.60/bin/bin/../../lib/gcc/pic32c/8.3.1/../../../../pic32c/lib/thumb/v7e-m+fp/hard\libc-musl.a(gmtime.o)
 .debug_aranges
                0x0000000000000000       0x20 c:/program files/microchip/xc32/v4.60/bin/bin/../../lib/gcc/pic32c/8.3.1/../../../../pic32c/lib/thumb/v7e-m+fp/hard\libc-musl.a(gmtime.o)
 .debug_ranges  0x0000000000000000       0x10 c:/program files/microchip/xc32/v4.60/bin/bin/../../lib/gcc/pic32c/8.3.1/../../../../pic32c/lib/thumb/v7e-m+fp/hard\libc-musl.a(gmtime.o)
 .debug_line    0x0000000000000000      0x12b c:/program files/microchip/xc32/v4.60/bin/bin/../../lib/gcc/pic32c/8.3.1/../../../../pic32c/lib/thumb/v7e-m+fp/hard\libc-musl.a(gmtime.o)
 .debug_str     0x0000000000000000      0x290 c:/program files/microchip/xc32/v4.60/bin/bin/../../lib/gcc/pic32c/8.3.1/../../../../pic32c/lib/thumb/v7e-m+fp/hard\libc-musl.a(gmtime.o)
 .comment       0x0000000000000000       0x2c c:/program files/microchip/xc32/v4.60/bin/bin/../../lib/gcc/pic32c/8.3.1/../../../../pic32c/lib/thumb/v7e-m+fp/hard\libc-musl.a(gmtime.o)
 .note.GNU-stack
                0x0000000000000000        0x0 c:/program files/microchip/xc32/v4.60/bin/bin/../../lib/gcc/pic32c/8.3.1/../../../../pic32c/lib/thumb/v7e-m+fp/hard\libc-musl.a(gmtime.o)
 .debug_frame   0x0000000000000000       0x20 c:/program files/microchip/xc32/v4.60/bin/bin/../../lib/gcc/pic32c/8.3.1/../../../../pic32c/lib/thumb/v7e-m+fp/hard\libc-musl.a(gmtime.o)
 .ARM.attributes
                0x0000000000000000       0x36 c:/program files/microchip/xc32/v4.60/bin/bin/../../lib/gcc/pic32c/8.3.1/../../../../pic32c/lib/thumb/v7e-m+fp/hard\libc-musl.a(gmtime.o)
 .text          0x0000000000000000        0x0 c:/program files/microchip/xc32/v4.60/bin/bin/../../lib/gcc/pic32c/8.3.1/../../../../pic32c/lib/thumb/v7e-m+fp/hard\libc-musl.a(gmtime_r.o)
 .data          0x0000000000000000        0x0 c:/program files/microchip/xc32/v4.60/bin/bin/../../lib/gcc/pic32c/8.3.1/../../../../pic32c/lib/thumb/v7e-m+fp/hard\libc-musl.a(gmtime_r.o)
 .bss           0x0000000000000000        0x0 c:/program files/microchip/xc32/v4.60/bin/bin/../../lib/gcc/pic32c/8.3.1/../../../../pic32c/lib/thumb/v7e-m+fp/hard\libc-musl.a(gmtime_r.o)
 .xc_stack_usage
                0x0000000000000000       0x18 c:/program files/microchip/xc32/v4.60/bin/bin/../../lib/gcc/pic32c/8.3.1/../../../../pic32c/lib/thumb/v7e-m+fp/hard\libc-musl.a(gmtime_r.o)
 .text.__gmtime_r
                0x0000000000000000       0x34 c:/program files/microchip/xc32/v4.60/bin/bin/../../lib/gcc/pic32c/8.3.1/../../../../pic32c/lib/thumb/v7e-m+fp/hard\libc-musl.a(gmtime_r.o)
 .rodata.str1.1
                0x0000000000000000        0x4 c:/program files/microchip/xc32/v4.60/bin/bin/../../lib/gcc/pic32c/8.3.1/../../../../pic32c/lib/thumb/v7e-m+fp/hard\libc-musl.a(gmtime_r.o)
 .xc_stack_usage.hdr
                0x0000000000000000        0xe c:/program files/microchip/xc32/v4.60/bin/bin/../../lib/gcc/pic32c/8.3.1/../../../../pic32c/lib/thumb/v7e-m+fp/hard\libc-musl.a(gmtime_r.o)
 .debug_info    0x0000000000000000      0x1a6 c:/program files/microchip/xc32/v4.60/bin/bin/../../lib/gcc/pic32c/8.3.1/../../../../pic32c/lib/thumb/v7e-m+fp/hard\libc-musl.a(gmtime_r.o)
 .debug_abbrev  0x0000000000000000       0xdd c:/program files/microchip/xc32/v4.60/bin/bin/../../lib/gcc/pic32c/8.3.1/../../../../pic32c/lib/thumb/v7e-m+fp/hard\libc-musl.a(gmtime_r.o)
 .debug_loc     0x0000000000000000       0x84 c:/program files/microchip/xc32/v4.60/bin/bin/../../lib/gcc/pic32c/8.3.1/../../../../pic32c/lib/thumb/v7e-m+fp/hard\libc-musl.a(gmtime_r.o)
 .debug_aranges
                0x0000000000000000       0x20 c:/program files/microchip/xc32/v4.60/bin/bin/../../lib/gcc/pic32c/8.3.1/../../../../pic32c/lib/thumb/v7e-m+fp/hard\libc-musl.a(gmtime_r.o)
 .debug_ranges  0x0000000000000000       0x10 c:/program files/microchip/xc32/v4.60/bin/bin/../../lib/gcc/pic32c/8.3.1/../../../../pic32c/lib/thumb/v7e-m+fp/hard\libc-musl.a(gmtime_r.o)
 .debug_line    0x0000000000000000      0x24b c:/program files/microchip/xc32/v4.60/bin/bin/../../lib/gcc/pic32c/8.3.1/../../../../pic32c/lib/thumb/v7e-m+fp/hard\libc-musl.a(gmtime_r.o)
 .debug_str     0x0000000000000000      0x2b7 c:/program files/microchip/xc32/v4.60/bin/bin/../../lib/gcc/pic32c/8.3.1/../../../../pic32c/lib/thumb/v7e-m+fp/hard\libc-musl.a(gmtime_r.o)
 .comment       0x0000000000000000       0x2c c:/program files/microchip/xc32/v4.60/bin/bin/../../lib/gcc/pic32c/8.3.1/../../../../pic32c/lib/thumb/v7e-m+fp/hard\libc-musl.a(gmtime_r.o)
 .note.GNU-stack
                0x0000000000000000        0x0 c:/program files/microchip/xc32/v4.60/bin/bin/../../lib/gcc/pic32c/8.3.1/../../../../pic32c/lib/thumb/v7e-m+fp/hard\libc-musl.a(gmtime_r.o)
 .debug_frame   0x0000000000000000       0x2c c:/program files/microchip/xc32/v4.60/bin/bin/../../lib/gcc/pic32c/8.3.1/../../../../pic32c/lib/thumb/v7e-m+fp/hard\libc-musl.a(gmtime_r.o)
 .ARM.attributes
                0x0000000000000000       0x36 c:/program files/microchip/xc32/v4.60/bin/bin/../../lib/gcc/pic32c/8.3.1/../../../../pic32c/lib/thumb/v7e-m+fp/hard\libc-musl.a(gmtime_r.o)
 .text          0x0000000000000000        0x0 c:/program files/microchip/xc32/v4.60/bin/bin/../../lib/gcc/pic32c/8.3.1/../../../../pic32c/lib/thumb/v7e-m+fp/hard\libc-musl.a(time.o)
 .data          0x0000000000000000        0x0 c:/program files/microchip/xc32/v4.60/bin/bin/../../lib/gcc/pic32c/8.3.1/../../../../pic32c/lib/thumb/v7e-m+fp/hard\libc-musl.a(time.o)
 .bss           0x0000000000000000        0x0 c:/program files/microchip/xc32/v4.60/bin/bin/../../lib/gcc/pic32c/8.3.1/../../../../pic32c/lib/thumb/v7e-m+fp/hard\libc-musl.a(time.o)
 .xc_stack_usage
                0x0000000000000000       0x12 c:/program files/microchip/xc32/v4.60/bin/bin/../../lib/gcc/pic32c/8.3.1/../../../../pic32c/lib/thumb/v7e-m+fp/hard\libc-musl.a(time.o)
 .text.time     0x0000000000000000       0x16 c:/program files/microchip/xc32/v4.60/bin/bin/../../lib/gcc/pic32c/8.3.1/../../../../pic32c/lib/thumb/v7e-m+fp/hard\libc-musl.a(time.o)
 .xc_stack_usage.hdr
                0x0000000000000000        0xe c:/program files/microchip/xc32/v4.60/bin/bin/../../lib/gcc/pic32c/8.3.1/../../../../pic32c/lib/thumb/v7e-m+fp/hard\libc-musl.a(time.o)
 .debug_info    0x0000000000000000       0xff c:/program files/microchip/xc32/v4.60/bin/bin/../../lib/gcc/pic32c/8.3.1/../../../../pic32c/lib/thumb/v7e-m+fp/hard\libc-musl.a(time.o)
 .debug_abbrev  0x0000000000000000       0xd4 c:/program files/microchip/xc32/v4.60/bin/bin/../../lib/gcc/pic32c/8.3.1/../../../../pic32c/lib/thumb/v7e-m+fp/hard\libc-musl.a(time.o)
 .debug_loc     0x0000000000000000       0x4e c:/program files/microchip/xc32/v4.60/bin/bin/../../lib/gcc/pic32c/8.3.1/../../../../pic32c/lib/thumb/v7e-m+fp/hard\libc-musl.a(time.o)
 .debug_aranges
                0x0000000000000000       0x20 c:/program files/microchip/xc32/v4.60/bin/bin/../../lib/gcc/pic32c/8.3.1/../../../../pic32c/lib/thumb/v7e-m+fp/hard\libc-musl.a(time.o)
 .debug_ranges  0x0000000000000000       0x10 c:/program files/microchip/xc32/v4.60/bin/bin/../../lib/gcc/pic32c/8.3.1/../../../../pic32c/lib/thumb/v7e-m+fp/hard\libc-musl.a(time.o)
 .debug_line    0x0000000000000000       0xda c:/program files/microchip/xc32/v4.60/bin/bin/../../lib/gcc/pic32c/8.3.1/../../../../pic32c/lib/thumb/v7e-m+fp/hard\libc-musl.a(time.o)
 .debug_str     0x0000000000000000      0x25b c:/program files/microchip/xc32/v4.60/bin/bin/../../lib/gcc/pic32c/8.3.1/../../../../pic32c/lib/thumb/v7e-m+fp/hard\libc-musl.a(time.o)
 .comment       0x0000000000000000       0x2c c:/program files/microchip/xc32/v4.60/bin/bin/../../lib/gcc/pic32c/8.3.1/../../../../pic32c/lib/thumb/v7e-m+fp/hard\libc-musl.a(time.o)
 .note.GNU-stack
                0x0000000000000000        0x0 c:/program files/microchip/xc32/v4.60/bin/bin/../../lib/gcc/pic32c/8.3.1/../../../../pic32c/lib/thumb/v7e-m+fp/hard\libc-musl.a(time.o)
 .debug_frame   0x0000000000000000       0x2c c:/program files/microchip/xc32/v4.60/bin/bin/../../lib/gcc/pic32c/8.3.1/../../../../pic32c/lib/thumb/v7e-m+fp/hard\libc-musl.a(time.o)
 .ARM.attributes
                0x0000000000000000       0x36 c:/program files/microchip/xc32/v4.60/bin/bin/../../lib/gcc/pic32c/8.3.1/../../../../pic32c/lib/thumb/v7e-m+fp/hard\libc-musl.a(time.o)
 .text          0x0000000000000000        0x0 c:/program files/microchip/xc32/v4.60/bin/bin/../../lib/gcc/pic32c/8.3.1/../../../../pic32c/lib/thumb/v7e-m+fp/hard\libc-musl.a(__environ.o)
 .data          0x0000000000000000        0x0 c:/program files/microchip/xc32/v4.60/bin/bin/../../lib/gcc/pic32c/8.3.1/../../../../pic32c/lib/thumb/v7e-m+fp/hard\libc-musl.a(__environ.o)
 .xc_stack_usage.hdr
                0x0000000000000000        0xe c:/program files/microchip/xc32/v4.60/bin/bin/../../lib/gcc/pic32c/8.3.1/../../../../pic32c/lib/thumb/v7e-m+fp/hard\libc-musl.a(__environ.o)
 .text          0x0000000000000000        0x0 c:/program files/microchip/xc32/v4.60/bin/bin/../../lib/gcc/pic32c/8.3.1/../../../../pic32c/lib/thumb/v7e-m+fp/hard\libc-musl.a(intscan.o)
 .data          0x0000000000000000        0x0 c:/program files/microchip/xc32/v4.60/bin/bin/../../lib/gcc/pic32c/8.3.1/../../../../pic32c/lib/thumb/v7e-m+fp/hard\libc-musl.a(intscan.o)
 .bss           0x0000000000000000        0x0 c:/program files/microchip/xc32/v4.60/bin/bin/../../lib/gcc/pic32c/8.3.1/../../../../pic32c/lib/thumb/v7e-m+fp/hard\libc-musl.a(intscan.o)
 .xc_stack_usage
                0x0000000000000000       0x17 c:/program files/microchip/xc32/v4.60/bin/bin/../../lib/gcc/pic32c/8.3.1/../../../../pic32c/lib/thumb/v7e-m+fp/hard\libc-musl.a(intscan.o)
 .xc_stack_usage.hdr
                0x0000000000000000        0xe c:/program files/microchip/xc32/v4.60/bin/bin/../../lib/gcc/pic32c/8.3.1/../../../../pic32c/lib/thumb/v7e-m+fp/hard\libc-musl.a(intscan.o)
 .text          0x0000000000000000        0x0 c:/program files/microchip/xc32/v4.60/bin/bin/../../lib/gcc/pic32c/8.3.1/../../../../pic32c/lib/thumb/v7e-m+fp/hard\libc-musl.a(shgetc.o)
 .data          0x0000000000000000        0x0 c:/program files/microchip/xc32/v4.60/bin/bin/../../lib/gcc/pic32c/8.3.1/../../../../pic32c/lib/thumb/v7e-m+fp/hard\libc-musl.a(shgetc.o)
 .bss           0x0000000000000000        0x0 c:/program files/microchip/xc32/v4.60/bin/bin/../../lib/gcc/pic32c/8.3.1/../../../../pic32c/lib/thumb/v7e-m+fp/hard\libc-musl.a(shgetc.o)
 .xc_stack_usage
                0x0000000000000000       0x2b c:/program files/microchip/xc32/v4.60/bin/bin/../../lib/gcc/pic32c/8.3.1/../../../../pic32c/lib/thumb/v7e-m+fp/hard\libc-musl.a(shgetc.o)
 .xc_stack_usage.hdr
                0x0000000000000000        0xe c:/program files/microchip/xc32/v4.60/bin/bin/../../lib/gcc/pic32c/8.3.1/../../../../pic32c/lib/thumb/v7e-m+fp/hard\libc-musl.a(shgetc.o)
 .text          0x0000000000000000        0x0 c:/program files/microchip/xc32/v4.60/bin/bin/../../lib/gcc/pic32c/8.3.1/../../../../pic32c/lib/thumb/v7e-m+fp/hard\libc-musl.a(__uflow.o)
 .data          0x0000000000000000        0x0 c:/program files/microchip/xc32/v4.60/bin/bin/../../lib/gcc/pic32c/8.3.1/../../../../pic32c/lib/thumb/v7e-m+fp/hard\libc-musl.a(__uflow.o)
 .bss           0x0000000000000000        0x0 c:/program files/microchip/xc32/v4.60/bin/bin/../../lib/gcc/pic32c/8.3.1/../../../../pic32c/lib/thumb/v7e-m+fp/hard\libc-musl.a(__uflow.o)
 .xc_stack_usage
                0x0000000000000000       0x15 c:/program files/microchip/xc32/v4.60/bin/bin/../../lib/gcc/pic32c/8.3.1/../../../../pic32c/lib/thumb/v7e-m+fp/hard\libc-musl.a(__uflow.o)
 .xc_stack_usage.hdr
                0x0000000000000000        0xe c:/program files/microchip/xc32/v4.60/bin/bin/../../lib/gcc/pic32c/8.3.1/../../../../pic32c/lib/thumb/v7e-m+fp/hard\libc-musl.a(__uflow.o)
 .text          0x0000000000000000        0x0 c:/program files/microchip/xc32/v4.60/bin/bin/../../lib/gcc/pic32c/8.3.1/../../../../pic32c/lib/thumb/v7e-m+fp/hard\libc-musl.a(vfprintf.o)
 .data          0x0000000000000000        0x0 c:/program files/microchip/xc32/v4.60/bin/bin/../../lib/gcc/pic32c/8.3.1/../../../../pic32c/lib/thumb/v7e-m+fp/hard\libc-musl.a(vfprintf.o)
 .bss           0x0000000000000000        0x0 c:/program files/microchip/xc32/v4.60/bin/bin/../../lib/gcc/pic32c/8.3.1/../../../../pic32c/lib/thumb/v7e-m+fp/hard\libc-musl.a(vfprintf.o)
 .xc_stack_usage
                0x0000000000000000       0x38 c:/program files/microchip/xc32/v4.60/bin/bin/../../lib/gcc/pic32c/8.3.1/../../../../pic32c/lib/thumb/v7e-m+fp/hard\libc-musl.a(vfprintf.o)
 .xc_stack_usage.hdr
                0x0000000000000000        0xe c:/program files/microchip/xc32/v4.60/bin/bin/../../lib/gcc/pic32c/8.3.1/../../../../pic32c/lib/thumb/v7e-m+fp/hard\libc-musl.a(vfprintf.o)
 .text          0x0000000000000000        0x0 c:/program files/microchip/xc32/v4.60/bin/bin/../../lib/gcc/pic32c/8.3.1/../../../../pic32c/lib/thumb/v7e-m+fp/hard\libc-musl.a(__secs_to_tm.o)
 .data          0x0000000000000000        0x0 c:/program files/microchip/xc32/v4.60/bin/bin/../../lib/gcc/pic32c/8.3.1/../../../../pic32c/lib/thumb/v7e-m+fp/hard\libc-musl.a(__secs_to_tm.o)
 .bss           0x0000000000000000        0x0 c:/program files/microchip/xc32/v4.60/bin/bin/../../lib/gcc/pic32c/8.3.1/../../../../pic32c/lib/thumb/v7e-m+fp/hard\libc-musl.a(__secs_to_tm.o)
 .xc_stack_usage
                0x0000000000000000       0x1a c:/program files/microchip/xc32/v4.60/bin/bin/../../lib/gcc/pic32c/8.3.1/../../../../pic32c/lib/thumb/v7e-m+fp/hard\libc-musl.a(__secs_to_tm.o)
 .text.__secs_to_tm
                0x0000000000000000      0x1c8 c:/program files/microchip/xc32/v4.60/bin/bin/../../lib/gcc/pic32c/8.3.1/../../../../pic32c/lib/thumb/v7e-m+fp/hard\libc-musl.a(__secs_to_tm.o)
 .rodata        0x0000000000000000        0xc c:/program files/microchip/xc32/v4.60/bin/bin/../../lib/gcc/pic32c/8.3.1/../../../../pic32c/lib/thumb/v7e-m+fp/hard\libc-musl.a(__secs_to_tm.o)
 .xc_stack_usage.hdr
                0x0000000000000000        0xe c:/program files/microchip/xc32/v4.60/bin/bin/../../lib/gcc/pic32c/8.3.1/../../../../pic32c/lib/thumb/v7e-m+fp/hard\libc-musl.a(__secs_to_tm.o)
 .debug_info    0x0000000000000000      0x295 c:/program files/microchip/xc32/v4.60/bin/bin/../../lib/gcc/pic32c/8.3.1/../../../../pic32c/lib/thumb/v7e-m+fp/hard\libc-musl.a(__secs_to_tm.o)
 .debug_abbrev  0x0000000000000000       0xc7 c:/program files/microchip/xc32/v4.60/bin/bin/../../lib/gcc/pic32c/8.3.1/../../../../pic32c/lib/thumb/v7e-m+fp/hard\libc-musl.a(__secs_to_tm.o)
 .debug_loc     0x0000000000000000      0x300 c:/program files/microchip/xc32/v4.60/bin/bin/../../lib/gcc/pic32c/8.3.1/../../../../pic32c/lib/thumb/v7e-m+fp/hard\libc-musl.a(__secs_to_tm.o)
 .debug_aranges
                0x0000000000000000       0x20 c:/program files/microchip/xc32/v4.60/bin/bin/../../lib/gcc/pic32c/8.3.1/../../../../pic32c/lib/thumb/v7e-m+fp/hard\libc-musl.a(__secs_to_tm.o)
 .debug_ranges  0x0000000000000000       0x10 c:/program files/microchip/xc32/v4.60/bin/bin/../../lib/gcc/pic32c/8.3.1/../../../../pic32c/lib/thumb/v7e-m+fp/hard\libc-musl.a(__secs_to_tm.o)
 .debug_line    0x0000000000000000      0x2ea c:/program files/microchip/xc32/v4.60/bin/bin/../../lib/gcc/pic32c/8.3.1/../../../../pic32c/lib/thumb/v7e-m+fp/hard\libc-musl.a(__secs_to_tm.o)
 .debug_str     0x0000000000000000      0x31d c:/program files/microchip/xc32/v4.60/bin/bin/../../lib/gcc/pic32c/8.3.1/../../../../pic32c/lib/thumb/v7e-m+fp/hard\libc-musl.a(__secs_to_tm.o)
 .comment       0x0000000000000000       0x2c c:/program files/microchip/xc32/v4.60/bin/bin/../../lib/gcc/pic32c/8.3.1/../../../../pic32c/lib/thumb/v7e-m+fp/hard\libc-musl.a(__secs_to_tm.o)
 .note.GNU-stack
                0x0000000000000000        0x0 c:/program files/microchip/xc32/v4.60/bin/bin/../../lib/gcc/pic32c/8.3.1/../../../../pic32c/lib/thumb/v7e-m+fp/hard\libc-musl.a(__secs_to_tm.o)
 .debug_frame   0x0000000000000000       0x38 c:/program files/microchip/xc32/v4.60/bin/bin/../../lib/gcc/pic32c/8.3.1/../../../../pic32c/lib/thumb/v7e-m+fp/hard\libc-musl.a(__secs_to_tm.o)
 .ARM.attributes
                0x0000000000000000       0x36 c:/program files/microchip/xc32/v4.60/bin/bin/../../lib/gcc/pic32c/8.3.1/../../../../pic32c/lib/thumb/v7e-m+fp/hard\libc-musl.a(__secs_to_tm.o)
 .text          0x0000000000000000        0x0 c:/program files/microchip/xc32/v4.60/bin/bin/../../lib/gcc/pic32c/8.3.1/../../../../pic32c/lib/thumb/v7e-m+fp/hard\libc-musl.a(clock_gettime.o)
 .data          0x0000000000000000        0x0 c:/program files/microchip/xc32/v4.60/bin/bin/../../lib/gcc/pic32c/8.3.1/../../../../pic32c/lib/thumb/v7e-m+fp/hard\libc-musl.a(clock_gettime.o)
 .bss           0x0000000000000000        0x0 c:/program files/microchip/xc32/v4.60/bin/bin/../../lib/gcc/pic32c/8.3.1/../../../../pic32c/lib/thumb/v7e-m+fp/hard\libc-musl.a(clock_gettime.o)
 .xc_stack_usage
                0x0000000000000000       0x1d c:/program files/microchip/xc32/v4.60/bin/bin/../../lib/gcc/pic32c/8.3.1/../../../../pic32c/lib/thumb/v7e-m+fp/hard\libc-musl.a(clock_gettime.o)
 .text.__clock_gettime
                0x0000000000000000       0x2c c:/program files/microchip/xc32/v4.60/bin/bin/../../lib/gcc/pic32c/8.3.1/../../../../pic32c/lib/thumb/v7e-m+fp/hard\libc-musl.a(clock_gettime.o)
 .xc_stack_usage.hdr
                0x0000000000000000        0xe c:/program files/microchip/xc32/v4.60/bin/bin/../../lib/gcc/pic32c/8.3.1/../../../../pic32c/lib/thumb/v7e-m+fp/hard\libc-musl.a(clock_gettime.o)
 .debug_info    0x0000000000000000      0x1b8 c:/program files/microchip/xc32/v4.60/bin/bin/../../lib/gcc/pic32c/8.3.1/../../../../pic32c/lib/thumb/v7e-m+fp/hard\libc-musl.a(clock_gettime.o)
 .debug_abbrev  0x0000000000000000      0x10d c:/program files/microchip/xc32/v4.60/bin/bin/../../lib/gcc/pic32c/8.3.1/../../../../pic32c/lib/thumb/v7e-m+fp/hard\libc-musl.a(clock_gettime.o)
 .debug_loc     0x0000000000000000       0xbb c:/program files/microchip/xc32/v4.60/bin/bin/../../lib/gcc/pic32c/8.3.1/../../../../pic32c/lib/thumb/v7e-m+fp/hard\libc-musl.a(clock_gettime.o)
 .debug_aranges
                0x0000000000000000       0x20 c:/program files/microchip/xc32/v4.60/bin/bin/../../lib/gcc/pic32c/8.3.1/../../../../pic32c/lib/thumb/v7e-m+fp/hard\libc-musl.a(clock_gettime.o)
 .debug_ranges  0x0000000000000000       0x10 c:/program files/microchip/xc32/v4.60/bin/bin/../../lib/gcc/pic32c/8.3.1/../../../../pic32c/lib/thumb/v7e-m+fp/hard\libc-musl.a(clock_gettime.o)
 .debug_line    0x0000000000000000      0x1e9 c:/program files/microchip/xc32/v4.60/bin/bin/../../lib/gcc/pic32c/8.3.1/../../../../pic32c/lib/thumb/v7e-m+fp/hard\libc-musl.a(clock_gettime.o)
 .debug_str     0x0000000000000000      0x2f3 c:/program files/microchip/xc32/v4.60/bin/bin/../../lib/gcc/pic32c/8.3.1/../../../../pic32c/lib/thumb/v7e-m+fp/hard\libc-musl.a(clock_gettime.o)
 .comment       0x0000000000000000       0x2c c:/program files/microchip/xc32/v4.60/bin/bin/../../lib/gcc/pic32c/8.3.1/../../../../pic32c/lib/thumb/v7e-m+fp/hard\libc-musl.a(clock_gettime.o)
 .note.GNU-stack
                0x0000000000000000        0x0 c:/program files/microchip/xc32/v4.60/bin/bin/../../lib/gcc/pic32c/8.3.1/../../../../pic32c/lib/thumb/v7e-m+fp/hard\libc-musl.a(clock_gettime.o)
 .debug_frame   0x0000000000000000       0x30 c:/program files/microchip/xc32/v4.60/bin/bin/../../lib/gcc/pic32c/8.3.1/../../../../pic32c/lib/thumb/v7e-m+fp/hard\libc-musl.a(clock_gettime.o)
 .ARM.attributes
                0x0000000000000000       0x36 c:/program files/microchip/xc32/v4.60/bin/bin/../../lib/gcc/pic32c/8.3.1/../../../../pic32c/lib/thumb/v7e-m+fp/hard\libc-musl.a(clock_gettime.o)
 .text          0x0000000000000000        0x0 c:/program files/microchip/xc32/v4.60/bin/bin/../../lib/gcc/pic32c/8.3.1/../../../../pic32c/lib/thumb/v7e-m+fp/hard\libc-musl.a(gettimeofday.o)
 .data          0x0000000000000000        0x0 c:/program files/microchip/xc32/v4.60/bin/bin/../../lib/gcc/pic32c/8.3.1/../../../../pic32c/lib/thumb/v7e-m+fp/hard\libc-musl.a(gettimeofday.o)
 .bss           0x0000000000000000        0x0 c:/program files/microchip/xc32/v4.60/bin/bin/../../lib/gcc/pic32c/8.3.1/../../../../pic32c/lib/thumb/v7e-m+fp/hard\libc-musl.a(gettimeofday.o)
 .xc_stack_usage
                0x0000000000000000       0x1c c:/program files/microchip/xc32/v4.60/bin/bin/../../lib/gcc/pic32c/8.3.1/../../../../pic32c/lib/thumb/v7e-m+fp/hard\libc-musl.a(gettimeofday.o)
 .text.__gettimeofday
                0x0000000000000000        0x6 c:/program files/microchip/xc32/v4.60/bin/bin/../../lib/gcc/pic32c/8.3.1/../../../../pic32c/lib/thumb/v7e-m+fp/hard\libc-musl.a(gettimeofday.o)
 .xc_stack_usage.hdr
                0x0000000000000000        0xe c:/program files/microchip/xc32/v4.60/bin/bin/../../lib/gcc/pic32c/8.3.1/../../../../pic32c/lib/thumb/v7e-m+fp/hard\libc-musl.a(gettimeofday.o)
 .debug_info    0x0000000000000000       0xe8 c:/program files/microchip/xc32/v4.60/bin/bin/../../lib/gcc/pic32c/8.3.1/../../../../pic32c/lib/thumb/v7e-m+fp/hard\libc-musl.a(gettimeofday.o)
 .debug_abbrev  0x0000000000000000       0xae c:/program files/microchip/xc32/v4.60/bin/bin/../../lib/gcc/pic32c/8.3.1/../../../../pic32c/lib/thumb/v7e-m+fp/hard\libc-musl.a(gettimeofday.o)
 .debug_loc     0x0000000000000000       0x25 c:/program files/microchip/xc32/v4.60/bin/bin/../../lib/gcc/pic32c/8.3.1/../../../../pic32c/lib/thumb/v7e-m+fp/hard\libc-musl.a(gettimeofday.o)
 .debug_aranges
                0x0000000000000000       0x20 c:/program files/microchip/xc32/v4.60/bin/bin/../../lib/gcc/pic32c/8.3.1/../../../../pic32c/lib/thumb/v7e-m+fp/hard\libc-musl.a(gettimeofday.o)
 .debug_ranges  0x0000000000000000       0x10 c:/program files/microchip/xc32/v4.60/bin/bin/../../lib/gcc/pic32c/8.3.1/../../../../pic32c/lib/thumb/v7e-m+fp/hard\libc-musl.a(gettimeofday.o)
 .debug_line    0x0000000000000000       0xcb c:/program files/microchip/xc32/v4.60/bin/bin/../../lib/gcc/pic32c/8.3.1/../../../../pic32c/lib/thumb/v7e-m+fp/hard\libc-musl.a(gettimeofday.o)
 .debug_str     0x0000000000000000      0x26d c:/program files/microchip/xc32/v4.60/bin/bin/../../lib/gcc/pic32c/8.3.1/../../../../pic32c/lib/thumb/v7e-m+fp/hard\libc-musl.a(gettimeofday.o)
 .comment       0x0000000000000000       0x2c c:/program files/microchip/xc32/v4.60/bin/bin/../../lib/gcc/pic32c/8.3.1/../../../../pic32c/lib/thumb/v7e-m+fp/hard\libc-musl.a(gettimeofday.o)
 .note.GNU-stack
                0x0000000000000000        0x0 c:/program files/microchip/xc32/v4.60/bin/bin/../../lib/gcc/pic32c/8.3.1/../../../../pic32c/lib/thumb/v7e-m+fp/hard\libc-musl.a(gettimeofday.o)
 .debug_frame   0x0000000000000000       0x20 c:/program files/microchip/xc32/v4.60/bin/bin/../../lib/gcc/pic32c/8.3.1/../../../../pic32c/lib/thumb/v7e-m+fp/hard\libc-musl.a(gettimeofday.o)
 .ARM.attributes
                0x0000000000000000       0x36 c:/program files/microchip/xc32/v4.60/bin/bin/../../lib/gcc/pic32c/8.3.1/../../../../pic32c/lib/thumb/v7e-m+fp/hard\libc-musl.a(gettimeofday.o)
 .text          0x0000000000000000        0x0 c:/program files/microchip/xc32/v4.60/bin/bin/../../lib/gcc/pic32c/8.3.1/../../../../pic32c/lib/thumb/v7e-m+fp/hard\libc-musl.a(syscall_ret.o)
 .data          0x0000000000000000        0x0 c:/program files/microchip/xc32/v4.60/bin/bin/../../lib/gcc/pic32c/8.3.1/../../../../pic32c/lib/thumb/v7e-m+fp/hard\libc-musl.a(syscall_ret.o)
 .bss           0x0000000000000000        0x0 c:/program files/microchip/xc32/v4.60/bin/bin/../../lib/gcc/pic32c/8.3.1/../../../../pic32c/lib/thumb/v7e-m+fp/hard\libc-musl.a(syscall_ret.o)
 .xc_stack_usage
                0x0000000000000000       0x1b c:/program files/microchip/xc32/v4.60/bin/bin/../../lib/gcc/pic32c/8.3.1/../../../../pic32c/lib/thumb/v7e-m+fp/hard\libc-musl.a(syscall_ret.o)
 .text.__syscall_ret
                0x0000000000000000       0x18 c:/program files/microchip/xc32/v4.60/bin/bin/../../lib/gcc/pic32c/8.3.1/../../../../pic32c/lib/thumb/v7e-m+fp/hard\libc-musl.a(syscall_ret.o)
 .xc_stack_usage.hdr
                0x0000000000000000        0xe c:/program files/microchip/xc32/v4.60/bin/bin/../../lib/gcc/pic32c/8.3.1/../../../../pic32c/lib/thumb/v7e-m+fp/hard\libc-musl.a(syscall_ret.o)
 .debug_info    0x0000000000000000       0x9a c:/program files/microchip/xc32/v4.60/bin/bin/../../lib/gcc/pic32c/8.3.1/../../../../pic32c/lib/thumb/v7e-m+fp/hard\libc-musl.a(syscall_ret.o)
 .debug_abbrev  0x0000000000000000       0x71 c:/program files/microchip/xc32/v4.60/bin/bin/../../lib/gcc/pic32c/8.3.1/../../../../pic32c/lib/thumb/v7e-m+fp/hard\libc-musl.a(syscall_ret.o)
 .debug_loc     0x0000000000000000       0x25 c:/program files/microchip/xc32/v4.60/bin/bin/../../lib/gcc/pic32c/8.3.1/../../../../pic32c/lib/thumb/v7e-m+fp/hard\libc-musl.a(syscall_ret.o)
 .debug_aranges
                0x0000000000000000       0x20 c:/program files/microchip/xc32/v4.60/bin/bin/../../lib/gcc/pic32c/8.3.1/../../../../pic32c/lib/thumb/v7e-m+fp/hard\libc-musl.a(syscall_ret.o)
 .debug_ranges  0x0000000000000000       0x10 c:/program files/microchip/xc32/v4.60/bin/bin/../../lib/gcc/pic32c/8.3.1/../../../../pic32c/lib/thumb/v7e-m+fp/hard\libc-musl.a(syscall_ret.o)
 .debug_line    0x0000000000000000      0x136 c:/program files/microchip/xc32/v4.60/bin/bin/../../lib/gcc/pic32c/8.3.1/../../../../pic32c/lib/thumb/v7e-m+fp/hard\libc-musl.a(syscall_ret.o)
 .debug_str     0x0000000000000000      0x253 c:/program files/microchip/xc32/v4.60/bin/bin/../../lib/gcc/pic32c/8.3.1/../../../../pic32c/lib/thumb/v7e-m+fp/hard\libc-musl.a(syscall_ret.o)
 .comment       0x0000000000000000       0x2c c:/program files/microchip/xc32/v4.60/bin/bin/../../lib/gcc/pic32c/8.3.1/../../../../pic32c/lib/thumb/v7e-m+fp/hard\libc-musl.a(syscall_ret.o)
 .note.GNU-stack
                0x0000000000000000        0x0 c:/program files/microchip/xc32/v4.60/bin/bin/../../lib/gcc/pic32c/8.3.1/../../../../pic32c/lib/thumb/v7e-m+fp/hard\libc-musl.a(syscall_ret.o)
 .debug_frame   0x0000000000000000       0x20 c:/program files/microchip/xc32/v4.60/bin/bin/../../lib/gcc/pic32c/8.3.1/../../../../pic32c/lib/thumb/v7e-m+fp/hard\libc-musl.a(syscall_ret.o)
 .ARM.attributes
                0x0000000000000000       0x36 c:/program files/microchip/xc32/v4.60/bin/bin/../../lib/gcc/pic32c/8.3.1/../../../../pic32c/lib/thumb/v7e-m+fp/hard\libc-musl.a(syscall_ret.o)
 .text          0x0000000000000000        0x0 c:/program files/microchip/xc32/v4.60/bin/bin/../../lib/gcc/pic32c/8.3.1/../../../../pic32c/lib/thumb/v7e-m+fp/hard\libc-musl.a(__toread.o)
 .data          0x0000000000000000        0x0 c:/program files/microchip/xc32/v4.60/bin/bin/../../lib/gcc/pic32c/8.3.1/../../../../pic32c/lib/thumb/v7e-m+fp/hard\libc-musl.a(__toread.o)
 .bss           0x0000000000000000        0x0 c:/program files/microchip/xc32/v4.60/bin/bin/../../lib/gcc/pic32c/8.3.1/../../../../pic32c/lib/thumb/v7e-m+fp/hard\libc-musl.a(__toread.o)
 .xc_stack_usage
                0x0000000000000000       0x3d c:/program files/microchip/xc32/v4.60/bin/bin/../../lib/gcc/pic32c/8.3.1/../../../../pic32c/lib/thumb/v7e-m+fp/hard\libc-musl.a(__toread.o)
 .text.__toread_needs_stdio_exit
                0x0000000000000000        0x4 c:/program files/microchip/xc32/v4.60/bin/bin/../../lib/gcc/pic32c/8.3.1/../../../../pic32c/lib/thumb/v7e-m+fp/hard\libc-musl.a(__toread.o)
 .xc_stack_usage.hdr
                0x0000000000000000        0xe c:/program files/microchip/xc32/v4.60/bin/bin/../../lib/gcc/pic32c/8.3.1/../../../../pic32c/lib/thumb/v7e-m+fp/hard\libc-musl.a(__toread.o)
 .text          0x0000000000000000        0x0 c:/program files/microchip/xc32/v4.60/bin/bin/../../lib/gcc/pic32c/8.3.1/../../../../pic32c/lib/thumb/v7e-m+fp/hard\libc-musl.a(__io_fmt_needed.o)
 .data          0x0000000000000000        0x0 c:/program files/microchip/xc32/v4.60/bin/bin/../../lib/gcc/pic32c/8.3.1/../../../../pic32c/lib/thumb/v7e-m+fp/hard\libc-musl.a(__io_fmt_needed.o)
 .bss           0x0000000000000000        0x0 c:/program files/microchip/xc32/v4.60/bin/bin/../../lib/gcc/pic32c/8.3.1/../../../../pic32c/lib/thumb/v7e-m+fp/hard\libc-musl.a(__io_fmt_needed.o)
 .xc_stack_usage
                0x0000000000000000       0x1d c:/program files/microchip/xc32/v4.60/bin/bin/../../lib/gcc/pic32c/8.3.1/../../../../pic32c/lib/thumb/v7e-m+fp/hard\libc-musl.a(__io_fmt_needed.o)
 .xc_stack_usage.hdr
                0x0000000000000000        0xe c:/program files/microchip/xc32/v4.60/bin/bin/../../lib/gcc/pic32c/8.3.1/../../../../pic32c/lib/thumb/v7e-m+fp/hard\libc-musl.a(__io_fmt_needed.o)
 .debug_info    0x0000000000000000      0x188 c:/program files/microchip/xc32/v4.60/bin/bin/../../lib/gcc/pic32c/8.3.1/../../../../pic32c/lib/thumb/v7e-m+fp/hard\libc-musl.a(__io_fmt_needed.o)
 .debug_abbrev  0x0000000000000000       0x75 c:/program files/microchip/xc32/v4.60/bin/bin/../../lib/gcc/pic32c/8.3.1/../../../../pic32c/lib/thumb/v7e-m+fp/hard\libc-musl.a(__io_fmt_needed.o)
 .debug_loc     0x0000000000000000       0x2c c:/program files/microchip/xc32/v4.60/bin/bin/../../lib/gcc/pic32c/8.3.1/../../../../pic32c/lib/thumb/v7e-m+fp/hard\libc-musl.a(__io_fmt_needed.o)
 .debug_aranges
                0x0000000000000000       0x20 c:/program files/microchip/xc32/v4.60/bin/bin/../../lib/gcc/pic32c/8.3.1/../../../../pic32c/lib/thumb/v7e-m+fp/hard\libc-musl.a(__io_fmt_needed.o)
 .debug_ranges  0x0000000000000000       0x10 c:/program files/microchip/xc32/v4.60/bin/bin/../../lib/gcc/pic32c/8.3.1/../../../../pic32c/lib/thumb/v7e-m+fp/hard\libc-musl.a(__io_fmt_needed.o)
 .debug_line    0x0000000000000000       0xc5 c:/program files/microchip/xc32/v4.60/bin/bin/../../lib/gcc/pic32c/8.3.1/../../../../pic32c/lib/thumb/v7e-m+fp/hard\libc-musl.a(__io_fmt_needed.o)
 .debug_str     0x0000000000000000      0x340 c:/program files/microchip/xc32/v4.60/bin/bin/../../lib/gcc/pic32c/8.3.1/../../../../pic32c/lib/thumb/v7e-m+fp/hard\libc-musl.a(__io_fmt_needed.o)
 .comment       0x0000000000000000       0x2c c:/program files/microchip/xc32/v4.60/bin/bin/../../lib/gcc/pic32c/8.3.1/../../../../pic32c/lib/thumb/v7e-m+fp/hard\libc-musl.a(__io_fmt_needed.o)
 .note.GNU-stack
                0x0000000000000000        0x0 c:/program files/microchip/xc32/v4.60/bin/bin/../../lib/gcc/pic32c/8.3.1/../../../../pic32c/lib/thumb/v7e-m+fp/hard\libc-musl.a(__io_fmt_needed.o)
 .debug_frame   0x0000000000000000       0x2c c:/program files/microchip/xc32/v4.60/bin/bin/../../lib/gcc/pic32c/8.3.1/../../../../pic32c/lib/thumb/v7e-m+fp/hard\libc-musl.a(__io_fmt_needed.o)
 .ARM.attributes
                0x0000000000000000       0x36 c:/program files/microchip/xc32/v4.60/bin/bin/../../lib/gcc/pic32c/8.3.1/../../../../pic32c/lib/thumb/v7e-m+fp/hard\libc-musl.a(__io_fmt_needed.o)
 .text          0x0000000000000000        0x0 c:/program files/microchip/xc32/v4.60/bin/bin/../../lib/gcc/pic32c/8.3.1/../../../../pic32c/lib/thumb/v7e-m+fp/hard\libc-musl.a(__pop_float.o)
 .data          0x0000000000000000        0x0 c:/program files/microchip/xc32/v4.60/bin/bin/../../lib/gcc/pic32c/8.3.1/../../../../pic32c/lib/thumb/v7e-m+fp/hard\libc-musl.a(__pop_float.o)
 .bss           0x0000000000000000        0x0 c:/program files/microchip/xc32/v4.60/bin/bin/../../lib/gcc/pic32c/8.3.1/../../../../pic32c/lib/thumb/v7e-m+fp/hard\libc-musl.a(__pop_float.o)
 .xc_stack_usage
                0x0000000000000000       0x19 c:/program files/microchip/xc32/v4.60/bin/bin/../../lib/gcc/pic32c/8.3.1/../../../../pic32c/lib/thumb/v7e-m+fp/hard\libc-musl.a(__pop_float.o)
 .xc_stack_usage.hdr
                0x0000000000000000        0xe c:/program files/microchip/xc32/v4.60/bin/bin/../../lib/gcc/pic32c/8.3.1/../../../../pic32c/lib/thumb/v7e-m+fp/hard\libc-musl.a(__pop_float.o)
 .text          0x0000000000000000        0x0 c:/program files/microchip/xc32/v4.60/bin/bin/../../lib/gcc/pic32c/8.3.1/../../../../pic32c/lib/thumb/v7e-m+fp/hard\libc-musl.a(__pop_int.o)
 .data          0x0000000000000000        0x0 c:/program files/microchip/xc32/v4.60/bin/bin/../../lib/gcc/pic32c/8.3.1/../../../../pic32c/lib/thumb/v7e-m+fp/hard\libc-musl.a(__pop_int.o)
 .bss           0x0000000000000000        0x0 c:/program files/microchip/xc32/v4.60/bin/bin/../../lib/gcc/pic32c/8.3.1/../../../../pic32c/lib/thumb/v7e-m+fp/hard\libc-musl.a(__pop_int.o)
 .xc_stack_usage
                0x0000000000000000       0x17 c:/program files/microchip/xc32/v4.60/bin/bin/../../lib/gcc/pic32c/8.3.1/../../../../pic32c/lib/thumb/v7e-m+fp/hard\libc-musl.a(__pop_int.o)
 .xc_stack_usage.hdr
                0x0000000000000000        0xe c:/program files/microchip/xc32/v4.60/bin/bin/../../lib/gcc/pic32c/8.3.1/../../../../pic32c/lib/thumb/v7e-m+fp/hard\libc-musl.a(__pop_int.o)
 .text          0x0000000000000000        0x0 c:/program files/microchip/xc32/v4.60/bin/bin/../../lib/gcc/pic32c/8.3.1/../../../../pic32c/lib/thumb/v7e-m+fp/hard\libc-musl.a(__pop_ptr.o)
 .data          0x0000000000000000        0x0 c:/program files/microchip/xc32/v4.60/bin/bin/../../lib/gcc/pic32c/8.3.1/../../../../pic32c/lib/thumb/v7e-m+fp/hard\libc-musl.a(__pop_ptr.o)
 .bss           0x0000000000000000        0x0 c:/program files/microchip/xc32/v4.60/bin/bin/../../lib/gcc/pic32c/8.3.1/../../../../pic32c/lib/thumb/v7e-m+fp/hard\libc-musl.a(__pop_ptr.o)
 .xc_stack_usage
                0x0000000000000000       0x17 c:/program files/microchip/xc32/v4.60/bin/bin/../../lib/gcc/pic32c/8.3.1/../../../../pic32c/lib/thumb/v7e-m+fp/hard\libc-musl.a(__pop_ptr.o)
 .xc_stack_usage.hdr
                0x0000000000000000        0xe c:/program files/microchip/xc32/v4.60/bin/bin/../../lib/gcc/pic32c/8.3.1/../../../../pic32c/lib/thumb/v7e-m+fp/hard\libc-musl.a(__pop_ptr.o)
 .text          0x0000000000000000        0x0 c:/program files/microchip/xc32/v4.60/bin/bin/../../lib/gcc/pic32c/8.3.1/../../../../pic32c/lib/thumb/v7e-m+fp/hard\libc-musl.a(__printf_core.o)
 .data          0x0000000000000000        0x0 c:/program files/microchip/xc32/v4.60/bin/bin/../../lib/gcc/pic32c/8.3.1/../../../../pic32c/lib/thumb/v7e-m+fp/hard\libc-musl.a(__printf_core.o)
 .bss           0x0000000000000000        0x0 c:/program files/microchip/xc32/v4.60/bin/bin/../../lib/gcc/pic32c/8.3.1/../../../../pic32c/lib/thumb/v7e-m+fp/hard\libc-musl.a(__printf_core.o)
 .xc_stack_usage
                0x0000000000000000       0xaf c:/program files/microchip/xc32/v4.60/bin/bin/../../lib/gcc/pic32c/8.3.1/../../../../pic32c/lib/thumb/v7e-m+fp/hard\libc-musl.a(__printf_core.o)
 .text.__dummy_fmt3
                0x0000000000000000        0x4 c:/program files/microchip/xc32/v4.60/bin/bin/../../lib/gcc/pic32c/8.3.1/../../../../pic32c/lib/thumb/v7e-m+fp/hard\libc-musl.a(__printf_core.o)
 .text.__dummy_fmt4
                0x0000000000000000        0x4 c:/program files/microchip/xc32/v4.60/bin/bin/../../lib/gcc/pic32c/8.3.1/../../../../pic32c/lib/thumb/v7e-m+fp/hard\libc-musl.a(__printf_core.o)
 .text.__dummy_fmts
                0x0000000000000000        0x4 c:/program files/microchip/xc32/v4.60/bin/bin/../../lib/gcc/pic32c/8.3.1/../../../../pic32c/lib/thumb/v7e-m+fp/hard\libc-musl.a(__printf_core.o)
 .xc_stack_usage.hdr
                0x0000000000000000        0xe c:/program files/microchip/xc32/v4.60/bin/bin/../../lib/gcc/pic32c/8.3.1/../../../../pic32c/lib/thumb/v7e-m+fp/hard\libc-musl.a(__printf_core.o)
 .text          0x0000000000000000        0x0 c:/program files/microchip/xc32/v4.60/bin/bin/../../lib/gcc/pic32c/8.3.1/../../../../pic32c/lib/thumb/v7e-m+fp/hard\libc-musl.a(__stdio_exit.o)
 .data          0x0000000000000000        0x0 c:/program files/microchip/xc32/v4.60/bin/bin/../../lib/gcc/pic32c/8.3.1/../../../../pic32c/lib/thumb/v7e-m+fp/hard\libc-musl.a(__stdio_exit.o)
 .bss           0x0000000000000000        0x4 c:/program files/microchip/xc32/v4.60/bin/bin/../../lib/gcc/pic32c/8.3.1/../../../../pic32c/lib/thumb/v7e-m+fp/hard\libc-musl.a(__stdio_exit.o)
 .xc_stack_usage
                0x0000000000000000       0x45 c:/program files/microchip/xc32/v4.60/bin/bin/../../lib/gcc/pic32c/8.3.1/../../../../pic32c/lib/thumb/v7e-m+fp/hard\libc-musl.a(__stdio_exit.o)
 .text.__dummy  0x0000000000000000        0x2 c:/program files/microchip/xc32/v4.60/bin/bin/../../lib/gcc/pic32c/8.3.1/../../../../pic32c/lib/thumb/v7e-m+fp/hard\libc-musl.a(__stdio_exit.o)
 .text.__dummy1
                0x0000000000000000        0x4 c:/program files/microchip/xc32/v4.60/bin/bin/../../lib/gcc/pic32c/8.3.1/../../../../pic32c/lib/thumb/v7e-m+fp/hard\libc-musl.a(__stdio_exit.o)
 .text.__stdio_exit
                0x0000000000000000       0x34 c:/program files/microchip/xc32/v4.60/bin/bin/../../lib/gcc/pic32c/8.3.1/../../../../pic32c/lib/thumb/v7e-m+fp/hard\libc-musl.a(__stdio_exit.o)
 .xc_stack_usage.hdr
                0x0000000000000000        0xe c:/program files/microchip/xc32/v4.60/bin/bin/../../lib/gcc/pic32c/8.3.1/../../../../pic32c/lib/thumb/v7e-m+fp/hard\libc-musl.a(__stdio_exit.o)
 .debug_info    0x0000000000000000      0x2dd c:/program files/microchip/xc32/v4.60/bin/bin/../../lib/gcc/pic32c/8.3.1/../../../../pic32c/lib/thumb/v7e-m+fp/hard\libc-musl.a(__stdio_exit.o)
 .debug_abbrev  0x0000000000000000      0x173 c:/program files/microchip/xc32/v4.60/bin/bin/../../lib/gcc/pic32c/8.3.1/../../../../pic32c/lib/thumb/v7e-m+fp/hard\libc-musl.a(__stdio_exit.o)
 .debug_loc     0x0000000000000000       0x45 c:/program files/microchip/xc32/v4.60/bin/bin/../../lib/gcc/pic32c/8.3.1/../../../../pic32c/lib/thumb/v7e-m+fp/hard\libc-musl.a(__stdio_exit.o)
 .debug_aranges
                0x0000000000000000       0x30 c:/program files/microchip/xc32/v4.60/bin/bin/../../lib/gcc/pic32c/8.3.1/../../../../pic32c/lib/thumb/v7e-m+fp/hard\libc-musl.a(__stdio_exit.o)
 .debug_ranges  0x0000000000000000       0x20 c:/program files/microchip/xc32/v4.60/bin/bin/../../lib/gcc/pic32c/8.3.1/../../../../pic32c/lib/thumb/v7e-m+fp/hard\libc-musl.a(__stdio_exit.o)
 .debug_line    0x0000000000000000      0x178 c:/program files/microchip/xc32/v4.60/bin/bin/../../lib/gcc/pic32c/8.3.1/../../../../pic32c/lib/thumb/v7e-m+fp/hard\libc-musl.a(__stdio_exit.o)
 .debug_str     0x0000000000000000      0x336 c:/program files/microchip/xc32/v4.60/bin/bin/../../lib/gcc/pic32c/8.3.1/../../../../pic32c/lib/thumb/v7e-m+fp/hard\libc-musl.a(__stdio_exit.o)
 .comment       0x0000000000000000       0x2c c:/program files/microchip/xc32/v4.60/bin/bin/../../lib/gcc/pic32c/8.3.1/../../../../pic32c/lib/thumb/v7e-m+fp/hard\libc-musl.a(__stdio_exit.o)
 .note.GNU-stack
                0x0000000000000000        0x0 c:/program files/microchip/xc32/v4.60/bin/bin/../../lib/gcc/pic32c/8.3.1/../../../../pic32c/lib/thumb/v7e-m+fp/hard\libc-musl.a(__stdio_exit.o)
 .debug_frame   0x0000000000000000       0x48 c:/program files/microchip/xc32/v4.60/bin/bin/../../lib/gcc/pic32c/8.3.1/../../../../pic32c/lib/thumb/v7e-m+fp/hard\libc-musl.a(__stdio_exit.o)
 .ARM.attributes
                0x0000000000000000       0x36 c:/program files/microchip/xc32/v4.60/bin/bin/../../lib/gcc/pic32c/8.3.1/../../../../pic32c/lib/thumb/v7e-m+fp/hard\libc-musl.a(__stdio_exit.o)
 .text          0x0000000000000000        0x0 c:/program files/microchip/xc32/v4.60/bin/bin/../../lib/gcc/pic32c/8.3.1/../../../../pic32c/lib/thumb/v7e-m+fp/hard\libc-musl.a(atoi.o)
 .data          0x0000000000000000        0x0 c:/program files/microchip/xc32/v4.60/bin/bin/../../lib/gcc/pic32c/8.3.1/../../../../pic32c/lib/thumb/v7e-m+fp/hard\libc-musl.a(atoi.o)
 .bss           0x0000000000000000        0x0 c:/program files/microchip/xc32/v4.60/bin/bin/../../lib/gcc/pic32c/8.3.1/../../../../pic32c/lib/thumb/v7e-m+fp/hard\libc-musl.a(atoi.o)
 .xc_stack_usage
                0x0000000000000000       0x12 c:/program files/microchip/xc32/v4.60/bin/bin/../../lib/gcc/pic32c/8.3.1/../../../../pic32c/lib/thumb/v7e-m+fp/hard\libc-musl.a(atoi.o)
 .xc_stack_usage.hdr
                0x0000000000000000        0xe c:/program files/microchip/xc32/v4.60/bin/bin/../../lib/gcc/pic32c/8.3.1/../../../../pic32c/lib/thumb/v7e-m+fp/hard\libc-musl.a(atoi.o)
 .text          0x0000000000000000        0x0 c:/program files/microchip/xc32/v4.60/bin/bin/../../lib/gcc/pic32c/8.3.1/../../../../pic32c/lib/thumb/v7e-m+fp/hard\libc-musl.a(__fmt_a.o)
 .data          0x0000000000000000        0x0 c:/program files/microchip/xc32/v4.60/bin/bin/../../lib/gcc/pic32c/8.3.1/../../../../pic32c/lib/thumb/v7e-m+fp/hard\libc-musl.a(__fmt_a.o)
 .bss           0x0000000000000000        0x0 c:/program files/microchip/xc32/v4.60/bin/bin/../../lib/gcc/pic32c/8.3.1/../../../../pic32c/lib/thumb/v7e-m+fp/hard\libc-musl.a(__fmt_a.o)
 .xc_stack_usage
                0x0000000000000000       0x15 c:/program files/microchip/xc32/v4.60/bin/bin/../../lib/gcc/pic32c/8.3.1/../../../../pic32c/lib/thumb/v7e-m+fp/hard\libc-musl.a(__fmt_a.o)
 .xc_stack_usage.hdr
                0x0000000000000000        0xe c:/program files/microchip/xc32/v4.60/bin/bin/../../lib/gcc/pic32c/8.3.1/../../../../pic32c/lib/thumb/v7e-m+fp/hard\libc-musl.a(__fmt_a.o)
 .text          0x0000000000000000        0x0 c:/program files/microchip/xc32/v4.60/bin/bin/../../lib/gcc/pic32c/8.3.1/../../../../pic32c/lib/thumb/v7e-m+fp/hard\libc-musl.a(__fmt_d.o)
 .data          0x0000000000000000        0x0 c:/program files/microchip/xc32/v4.60/bin/bin/../../lib/gcc/pic32c/8.3.1/../../../../pic32c/lib/thumb/v7e-m+fp/hard\libc-musl.a(__fmt_d.o)
 .bss           0x0000000000000000        0x0 c:/program files/microchip/xc32/v4.60/bin/bin/../../lib/gcc/pic32c/8.3.1/../../../../pic32c/lib/thumb/v7e-m+fp/hard\libc-musl.a(__fmt_d.o)
 .xc_stack_usage
                0x0000000000000000       0x15 c:/program files/microchip/xc32/v4.60/bin/bin/../../lib/gcc/pic32c/8.3.1/../../../../pic32c/lib/thumb/v7e-m+fp/hard\libc-musl.a(__fmt_d.o)
 .xc_stack_usage.hdr
                0x0000000000000000        0xe c:/program files/microchip/xc32/v4.60/bin/bin/../../lib/gcc/pic32c/8.3.1/../../../../pic32c/lib/thumb/v7e-m+fp/hard\libc-musl.a(__fmt_d.o)
 .text          0x0000000000000000        0x0 c:/program files/microchip/xc32/v4.60/bin/bin/../../lib/gcc/pic32c/8.3.1/../../../../pic32c/lib/thumb/v7e-m+fp/hard\libc-musl.a(__fmt_fp.o)
 .data          0x0000000000000000        0x0 c:/program files/microchip/xc32/v4.60/bin/bin/../../lib/gcc/pic32c/8.3.1/../../../../pic32c/lib/thumb/v7e-m+fp/hard\libc-musl.a(__fmt_fp.o)
 .bss           0x0000000000000000        0x0 c:/program files/microchip/xc32/v4.60/bin/bin/../../lib/gcc/pic32c/8.3.1/../../../../pic32c/lib/thumb/v7e-m+fp/hard\libc-musl.a(__fmt_fp.o)
 .xc_stack_usage
                0x0000000000000000       0x16 c:/program files/microchip/xc32/v4.60/bin/bin/../../lib/gcc/pic32c/8.3.1/../../../../pic32c/lib/thumb/v7e-m+fp/hard\libc-musl.a(__fmt_fp.o)
 .xc_stack_usage.hdr
                0x0000000000000000        0xe c:/program files/microchip/xc32/v4.60/bin/bin/../../lib/gcc/pic32c/8.3.1/../../../../pic32c/lib/thumb/v7e-m+fp/hard\libc-musl.a(__fmt_fp.o)
 .text          0x0000000000000000        0x0 c:/program files/microchip/xc32/v4.60/bin/bin/../../lib/gcc/pic32c/8.3.1/../../../../pic32c/lib/thumb/v7e-m+fp/hard\libc-musl.a(__fmt_o.o)
 .data          0x0000000000000000        0x0 c:/program files/microchip/xc32/v4.60/bin/bin/../../lib/gcc/pic32c/8.3.1/../../../../pic32c/lib/thumb/v7e-m+fp/hard\libc-musl.a(__fmt_o.o)
 .bss           0x0000000000000000        0x0 c:/program files/microchip/xc32/v4.60/bin/bin/../../lib/gcc/pic32c/8.3.1/../../../../pic32c/lib/thumb/v7e-m+fp/hard\libc-musl.a(__fmt_o.o)
 .xc_stack_usage
                0x0000000000000000       0x15 c:/program files/microchip/xc32/v4.60/bin/bin/../../lib/gcc/pic32c/8.3.1/../../../../pic32c/lib/thumb/v7e-m+fp/hard\libc-musl.a(__fmt_o.o)
 .xc_stack_usage.hdr
                0x0000000000000000        0xe c:/program files/microchip/xc32/v4.60/bin/bin/../../lib/gcc/pic32c/8.3.1/../../../../pic32c/lib/thumb/v7e-m+fp/hard\libc-musl.a(__fmt_o.o)
 .text          0x0000000000000000        0x0 c:/program files/microchip/xc32/v4.60/bin/bin/../../lib/gcc/pic32c/8.3.1/../../../../pic32c/lib/thumb/v7e-m+fp/hard\libc-musl.a(__fmt_s.o)
 .data          0x0000000000000000        0x0 c:/program files/microchip/xc32/v4.60/bin/bin/../../lib/gcc/pic32c/8.3.1/../../../../pic32c/lib/thumb/v7e-m+fp/hard\libc-musl.a(__fmt_s.o)
 .bss           0x0000000000000000        0x0 c:/program files/microchip/xc32/v4.60/bin/bin/../../lib/gcc/pic32c/8.3.1/../../../../pic32c/lib/thumb/v7e-m+fp/hard\libc-musl.a(__fmt_s.o)
 .xc_stack_usage
                0x0000000000000000       0x15 c:/program files/microchip/xc32/v4.60/bin/bin/../../lib/gcc/pic32c/8.3.1/../../../../pic32c/lib/thumb/v7e-m+fp/hard\libc-musl.a(__fmt_s.o)
 .xc_stack_usage.hdr
                0x0000000000000000        0xe c:/program files/microchip/xc32/v4.60/bin/bin/../../lib/gcc/pic32c/8.3.1/../../../../pic32c/lib/thumb/v7e-m+fp/hard\libc-musl.a(__fmt_s.o)
 .text          0x0000000000000000        0x0 c:/program files/microchip/xc32/v4.60/bin/bin/../../lib/gcc/pic32c/8.3.1/../../../../pic32c/lib/thumb/v7e-m+fp/hard\libc-musl.a(__fmt_u.o)
 .data          0x0000000000000000        0x0 c:/program files/microchip/xc32/v4.60/bin/bin/../../lib/gcc/pic32c/8.3.1/../../../../pic32c/lib/thumb/v7e-m+fp/hard\libc-musl.a(__fmt_u.o)
 .bss           0x0000000000000000        0x0 c:/program files/microchip/xc32/v4.60/bin/bin/../../lib/gcc/pic32c/8.3.1/../../../../pic32c/lib/thumb/v7e-m+fp/hard\libc-musl.a(__fmt_u.o)
 .xc_stack_usage
                0x0000000000000000       0x15 c:/program files/microchip/xc32/v4.60/bin/bin/../../lib/gcc/pic32c/8.3.1/../../../../pic32c/lib/thumb/v7e-m+fp/hard\libc-musl.a(__fmt_u.o)
 .xc_stack_usage.hdr
                0x0000000000000000        0xe c:/program files/microchip/xc32/v4.60/bin/bin/../../lib/gcc/pic32c/8.3.1/../../../../pic32c/lib/thumb/v7e-m+fp/hard\libc-musl.a(__fmt_u.o)
 .text          0x0000000000000000        0x0 c:/program files/microchip/xc32/v4.60/bin/bin/../../lib/gcc/pic32c/8.3.1/../../../../pic32c/lib/thumb/v7e-m+fp/hard\libc-musl.a(__fmt_x.o)
 .data          0x0000000000000000        0x0 c:/program files/microchip/xc32/v4.60/bin/bin/../../lib/gcc/pic32c/8.3.1/../../../../pic32c/lib/thumb/v7e-m+fp/hard\libc-musl.a(__fmt_x.o)
 .bss           0x0000000000000000        0x0 c:/program files/microchip/xc32/v4.60/bin/bin/../../lib/gcc/pic32c/8.3.1/../../../../pic32c/lib/thumb/v7e-m+fp/hard\libc-musl.a(__fmt_x.o)
 .xc_stack_usage
                0x0000000000000000       0x15 c:/program files/microchip/xc32/v4.60/bin/bin/../../lib/gcc/pic32c/8.3.1/../../../../pic32c/lib/thumb/v7e-m+fp/hard\libc-musl.a(__fmt_x.o)
 .xc_stack_usage.hdr
                0x0000000000000000        0xe c:/program files/microchip/xc32/v4.60/bin/bin/../../lib/gcc/pic32c/8.3.1/../../../../pic32c/lib/thumb/v7e-m+fp/hard\libc-musl.a(__fmt_x.o)
 .text          0x0000000000000000        0x0 c:/program files/microchip/xc32/v4.60/bin/bin/../../lib/gcc/pic32c/8.3.1/../../../../pic32c/lib/thumb/v7e-m+fp/hard\libc-musl.a(__cvt_u.o)
 .data          0x0000000000000000        0x0 c:/program files/microchip/xc32/v4.60/bin/bin/../../lib/gcc/pic32c/8.3.1/../../../../pic32c/lib/thumb/v7e-m+fp/hard\libc-musl.a(__cvt_u.o)
 .bss           0x0000000000000000        0x0 c:/program files/microchip/xc32/v4.60/bin/bin/../../lib/gcc/pic32c/8.3.1/../../../../pic32c/lib/thumb/v7e-m+fp/hard\libc-musl.a(__cvt_u.o)
 .xc_stack_usage
                0x0000000000000000       0x15 c:/program files/microchip/xc32/v4.60/bin/bin/../../lib/gcc/pic32c/8.3.1/../../../../pic32c/lib/thumb/v7e-m+fp/hard\libc-musl.a(__cvt_u.o)
 .xc_stack_usage.hdr
                0x0000000000000000        0xe c:/program files/microchip/xc32/v4.60/bin/bin/../../lib/gcc/pic32c/8.3.1/../../../../pic32c/lib/thumb/v7e-m+fp/hard\libc-musl.a(__cvt_u.o)
 .xc_stack_usage.hdr
                0x0000000000000000        0xe c:/program files/microchip/xc32/v4.60/bin/bin/../../lib/gcc/pic32c/8.3.1/../../../../pic32c/lib/thumb/v7e-m+fp/hard\libm-fast-emfloat.a(fma.o)
 .xc_stack_usage
                0x0000000000000000       0x11 c:/program files/microchip/xc32/v4.60/bin/bin/../../lib/gcc/pic32c/8.3.1/../../../../pic32c/lib/thumb/v7e-m+fp/hard\libm-fast-emfloat.a(fma.o)
 .xc_stack_usage.hdr
                0x0000000000000000        0xe c:/program files/microchip/xc32/v4.60/bin/bin/../../lib/gcc/pic32c/8.3.1/../../../../pic32c/lib/thumb/v7e-m+fp/hard\libm-fast-emfloat.a(floor.o)
 .xc_stack_usage
                0x0000000000000000       0x13 c:/program files/microchip/xc32/v4.60/bin/bin/../../lib/gcc/pic32c/8.3.1/../../../../pic32c/lib/thumb/v7e-m+fp/hard\libm-fast-emfloat.a(floor.o)
 .xc_stack_usage.hdr
                0x0000000000000000        0xe c:/program files/microchip/xc32/v4.60/bin/bin/../../lib/gcc/pic32c/8.3.1/../../../../pic32c/lib/thumb/v7e-m+fp/hard\libm-fast-emfloat.a(__aeabi_dcmple.o)
 .xc_stack_usage
                0x0000000000000000       0x1c c:/program files/microchip/xc32/v4.60/bin/bin/../../lib/gcc/pic32c/8.3.1/../../../../pic32c/lib/thumb/v7e-m+fp/hard\libm-fast-emfloat.a(__aeabi_dcmple.o)
 .text          0x0000000000000000       0xa0 c:/program files/microchip/xc32/v4.60/bin/bin/../../lib/gcc/pic32c/8.3.1/thumb/v7e-m+fp/hard\libgcc.a(_aeabi_ldivmod.o)
 .data          0x0000000000000000        0x0 c:/program files/microchip/xc32/v4.60/bin/bin/../../lib/gcc/pic32c/8.3.1/thumb/v7e-m+fp/hard\libgcc.a(_aeabi_ldivmod.o)
 .bss           0x0000000000000000        0x0 c:/program files/microchip/xc32/v4.60/bin/bin/../../lib/gcc/pic32c/8.3.1/thumb/v7e-m+fp/hard\libgcc.a(_aeabi_ldivmod.o)
 .xc_stack_usage.hdr
                0x0000000000000000        0xe c:/program files/microchip/xc32/v4.60/bin/bin/../../lib/gcc/pic32c/8.3.1/thumb/v7e-m+fp/hard\libgcc.a(_aeabi_ldivmod.o)
 .xc_stack_usage
                0x0000000000000000       0x1d c:/program files/microchip/xc32/v4.60/bin/bin/../../lib/gcc/pic32c/8.3.1/thumb/v7e-m+fp/hard\libgcc.a(_aeabi_ldivmod.o)
 .debug_line    0x0000000000000000       0xaf c:/program files/microchip/xc32/v4.60/bin/bin/../../lib/gcc/pic32c/8.3.1/thumb/v7e-m+fp/hard\libgcc.a(_aeabi_ldivmod.o)
 .debug_info    0x0000000000000000       0x26 c:/program files/microchip/xc32/v4.60/bin/bin/../../lib/gcc/pic32c/8.3.1/thumb/v7e-m+fp/hard\libgcc.a(_aeabi_ldivmod.o)
 .debug_abbrev  0x0000000000000000       0x14 c:/program files/microchip/xc32/v4.60/bin/bin/../../lib/gcc/pic32c/8.3.1/thumb/v7e-m+fp/hard\libgcc.a(_aeabi_ldivmod.o)
 .debug_aranges
                0x0000000000000000       0x20 c:/program files/microchip/xc32/v4.60/bin/bin/../../lib/gcc/pic32c/8.3.1/thumb/v7e-m+fp/hard\libgcc.a(_aeabi_ldivmod.o)
 .debug_str     0x0000000000000000       0xd6 c:/program files/microchip/xc32/v4.60/bin/bin/../../lib/gcc/pic32c/8.3.1/thumb/v7e-m+fp/hard\libgcc.a(_aeabi_ldivmod.o)
 .debug_frame   0x0000000000000000       0x44 c:/program files/microchip/xc32/v4.60/bin/bin/../../lib/gcc/pic32c/8.3.1/thumb/v7e-m+fp/hard\libgcc.a(_aeabi_ldivmod.o)
 .ARM.attributes
                0x0000000000000000       0x1e c:/program files/microchip/xc32/v4.60/bin/bin/../../lib/gcc/pic32c/8.3.1/thumb/v7e-m+fp/hard\libgcc.a(_aeabi_ldivmod.o)
 .data          0x0000000000000000        0x0 c:/program files/microchip/xc32/v4.60/bin/bin/../../lib/gcc/pic32c/8.3.1/thumb/v7e-m+fp/hard\libgcc.a(_aeabi_uldivmod.o)
 .bss           0x0000000000000000        0x0 c:/program files/microchip/xc32/v4.60/bin/bin/../../lib/gcc/pic32c/8.3.1/thumb/v7e-m+fp/hard\libgcc.a(_aeabi_uldivmod.o)
 .xc_stack_usage.hdr
                0x0000000000000000        0xe c:/program files/microchip/xc32/v4.60/bin/bin/../../lib/gcc/pic32c/8.3.1/thumb/v7e-m+fp/hard\libgcc.a(_aeabi_uldivmod.o)
 .xc_stack_usage
                0x0000000000000000       0x1e c:/program files/microchip/xc32/v4.60/bin/bin/../../lib/gcc/pic32c/8.3.1/thumb/v7e-m+fp/hard\libgcc.a(_aeabi_uldivmod.o)
 .data          0x0000000000000000        0x0 c:/program files/microchip/xc32/v4.60/bin/bin/../../lib/gcc/pic32c/8.3.1/thumb/v7e-m+fp/hard\libgcc.a(_udivmoddi4.o)
 .bss           0x0000000000000000        0x0 c:/program files/microchip/xc32/v4.60/bin/bin/../../lib/gcc/pic32c/8.3.1/thumb/v7e-m+fp/hard\libgcc.a(_udivmoddi4.o)
 .xc_stack_usage
                0x0000000000000000       0x1a c:/program files/microchip/xc32/v4.60/bin/bin/../../lib/gcc/pic32c/8.3.1/thumb/v7e-m+fp/hard\libgcc.a(_udivmoddi4.o)
 .ARM.extab     0x0000000000000000        0x0 c:/program files/microchip/xc32/v4.60/bin/bin/../../lib/gcc/pic32c/8.3.1/thumb/v7e-m+fp/hard\libgcc.a(_udivmoddi4.o)
 .xc_stack_usage.hdr
                0x0000000000000000        0xe c:/program files/microchip/xc32/v4.60/bin/bin/../../lib/gcc/pic32c/8.3.1/thumb/v7e-m+fp/hard\libgcc.a(_udivmoddi4.o)
 .data          0x0000000000000000        0x0 c:/program files/microchip/xc32/v4.60/bin/bin/../../lib/gcc/pic32c/8.3.1/thumb/v7e-m+fp/hard\libgcc.a(_dvmd_tls.o)
 .bss           0x0000000000000000        0x0 c:/program files/microchip/xc32/v4.60/bin/bin/../../lib/gcc/pic32c/8.3.1/thumb/v7e-m+fp/hard\libgcc.a(_dvmd_tls.o)
 .xc_stack_usage.hdr
                0x0000000000000000        0xe c:/program files/microchip/xc32/v4.60/bin/bin/../../lib/gcc/pic32c/8.3.1/thumb/v7e-m+fp/hard\libgcc.a(_dvmd_tls.o)
 .xc_stack_usage
                0x0000000000000000       0x36 c:/program files/microchip/xc32/v4.60/bin/bin/../../lib/gcc/pic32c/8.3.1/thumb/v7e-m+fp/hard\libgcc.a(_dvmd_tls.o)
 .text          0x0000000000000000        0x0 c:/program files/microchip/xc32/v4.60/bin/bin/../../lib/gcc/pic32c/8.3.1/../../../../pic32c/lib/thumb/v7e-m+fp/hard\libpic32c.a(sbrk.o)
 .data          0x0000000000000000        0x0 c:/program files/microchip/xc32/v4.60/bin/bin/../../lib/gcc/pic32c/8.3.1/../../../../pic32c/lib/thumb/v7e-m+fp/hard\libpic32c.a(sbrk.o)
 .xc_stack_usage
                0x0000000000000000       0x4d c:/program files/microchip/xc32/v4.60/bin/bin/../../lib/gcc/pic32c/8.3.1/../../../../pic32c/lib/thumb/v7e-m+fp/hard\libpic32c.a(sbrk.o)
 .xc_stack_usage.hdr
                0x0000000000000000        0xe c:/program files/microchip/xc32/v4.60/bin/bin/../../lib/gcc/pic32c/8.3.1/../../../../pic32c/lib/thumb/v7e-m+fp/hard\libpic32c.a(sbrk.o)
 .text          0x0000000000000000        0x0 c:/program files/microchip/xc32/v4.60/bin/bin/../../lib/gcc/pic32c/8.3.1/../../../../pic32c/lib/thumb/v7e-m+fp/hard\libc-size-musl.a(strcpy.o)
 .data          0x0000000000000000        0x0 c:/program files/microchip/xc32/v4.60/bin/bin/../../lib/gcc/pic32c/8.3.1/../../../../pic32c/lib/thumb/v7e-m+fp/hard\libc-size-musl.a(strcpy.o)
 .bss           0x0000000000000000        0x0 c:/program files/microchip/xc32/v4.60/bin/bin/../../lib/gcc/pic32c/8.3.1/../../../../pic32c/lib/thumb/v7e-m+fp/hard\libc-size-musl.a(strcpy.o)
 .xc_stack_usage
                0x0000000000000000       0x14 c:/program files/microchip/xc32/v4.60/bin/bin/../../lib/gcc/pic32c/8.3.1/../../../../pic32c/lib/thumb/v7e-m+fp/hard\libc-size-musl.a(strcpy.o)
 .xc_stack_usage.hdr
                0x0000000000000000        0xe c:/program files/microchip/xc32/v4.60/bin/bin/../../lib/gcc/pic32c/8.3.1/../../../../pic32c/lib/thumb/v7e-m+fp/hard\libc-size-musl.a(strcpy.o)
 .text          0x0000000000000000        0x0 c:/program files/microchip/xc32/v4.60/bin/bin/../../lib/gcc/pic32c/8.3.1/../../../../pic32c/lib/thumb/v7e-m+fp/hard\libc-size-musl.a(stpcpy.o)
 .data          0x0000000000000000        0x0 c:/program files/microchip/xc32/v4.60/bin/bin/../../lib/gcc/pic32c/8.3.1/../../../../pic32c/lib/thumb/v7e-m+fp/hard\libc-size-musl.a(stpcpy.o)
 .bss           0x0000000000000000        0x0 c:/program files/microchip/xc32/v4.60/bin/bin/../../lib/gcc/pic32c/8.3.1/../../../../pic32c/lib/thumb/v7e-m+fp/hard\libc-size-musl.a(stpcpy.o)
 .xc_stack_usage
                0x0000000000000000       0x14 c:/program files/microchip/xc32/v4.60/bin/bin/../../lib/gcc/pic32c/8.3.1/../../../../pic32c/lib/thumb/v7e-m+fp/hard\libc-size-musl.a(stpcpy.o)
 .xc_stack_usage.hdr
                0x0000000000000000        0xe c:/program files/microchip/xc32/v4.60/bin/bin/../../lib/gcc/pic32c/8.3.1/../../../../pic32c/lib/thumb/v7e-m+fp/hard\libc-size-musl.a(stpcpy.o)
 .text          0x0000000000000000        0x0 c:/program files/microchip/xc32/v4.60/bin/bin/../../lib/gcc/pic32c/8.3.1/thumb/v7e-m+fp/hard/crtend.o
 .data          0x0000000000000000        0x0 c:/program files/microchip/xc32/v4.60/bin/bin/../../lib/gcc/pic32c/8.3.1/thumb/v7e-m+fp/hard/crtend.o
 .bss           0x0000000000000000        0x0 c:/program files/microchip/xc32/v4.60/bin/bin/../../lib/gcc/pic32c/8.3.1/thumb/v7e-m+fp/hard/crtend.o
 .eh_frame      0x0000000000000000        0x4 c:/program files/microchip/xc32/v4.60/bin/bin/../../lib/gcc/pic32c/8.3.1/thumb/v7e-m+fp/hard/crtend.o
 .xc_stack_usage.hdr
                0x0000000000000000        0xe c:/program files/microchip/xc32/v4.60/bin/bin/../../lib/gcc/pic32c/8.3.1/thumb/v7e-m+fp/hard/crtend.o
 .comment       0x0000000000000000       0x2c c:/program files/microchip/xc32/v4.60/bin/bin/../../lib/gcc/pic32c/8.3.1/thumb/v7e-m+fp/hard/crtend.o
 .ARM.attributes
                0x0000000000000000       0x32 c:/program files/microchip/xc32/v4.60/bin/bin/../../lib/gcc/pic32c/8.3.1/thumb/v7e-m+fp/hard/crtend.o
 .text          0x0000000000000000        0x0 c:/program files/microchip/xc32/v4.60/bin/bin/../../lib/gcc/pic32c/8.3.1/thumb/v7e-m+fp/hard/crtn.o
 .data          0x0000000000000000        0x0 c:/program files/microchip/xc32/v4.60/bin/bin/../../lib/gcc/pic32c/8.3.1/thumb/v7e-m+fp/hard/crtn.o
 .bss           0x0000000000000000        0x0 c:/program files/microchip/xc32/v4.60/bin/bin/../../lib/gcc/pic32c/8.3.1/thumb/v7e-m+fp/hard/crtn.o
 .xc_stack_usage.hdr
                0x0000000000000000        0xe c:/program files/microchip/xc32/v4.60/bin/bin/../../lib/gcc/pic32c/8.3.1/thumb/v7e-m+fp/hard/crtn.o
 .text          0x0000000000000000        0x0 c:/program files/microchip/xc32/v4.60/bin/bin/../../lib/gcc/pic32c/8.3.1/../../../../pic32c/lib/thumb/v7e-m+fp/hard\libpic32c.a(pic32_data_init_clear.o)
 .data          0x0000000000000000        0x0 c:/program files/microchip/xc32/v4.60/bin/bin/../../lib/gcc/pic32c/8.3.1/../../../../pic32c/lib/thumb/v7e-m+fp/hard\libpic32c.a(pic32_data_init_clear.o)
 .bss           0x0000000000000000        0x0 c:/program files/microchip/xc32/v4.60/bin/bin/../../lib/gcc/pic32c/8.3.1/../../../../pic32c/lib/thumb/v7e-m+fp/hard\libpic32c.a(pic32_data_init_clear.o)
 .xc_stack_usage
                0x0000000000000000       0x1b c:/program files/microchip/xc32/v4.60/bin/bin/../../lib/gcc/pic32c/8.3.1/../../../../pic32c/lib/thumb/v7e-m+fp/hard\libpic32c.a(pic32_data_init_clear.o)
 .xc_stack_usage.hdr
                0x0000000000000000        0xe c:/program files/microchip/xc32/v4.60/bin/bin/../../lib/gcc/pic32c/8.3.1/../../../../pic32c/lib/thumb/v7e-m+fp/hard\libpic32c.a(pic32_data_init_clear.o)
 .text          0x0000000000000000        0x0 c:/program files/microchip/xc32/v4.60/bin/bin/../../lib/gcc/pic32c/8.3.1/../../../../pic32c/lib/thumb/v7e-m+fp/hard\libpic32c.a(pic32_data_init_copy.o)
 .data          0x0000000000000000        0x0 c:/program files/microchip/xc32/v4.60/bin/bin/../../lib/gcc/pic32c/8.3.1/../../../../pic32c/lib/thumb/v7e-m+fp/hard\libpic32c.a(pic32_data_init_copy.o)
 .bss           0x0000000000000000        0x0 c:/program files/microchip/xc32/v4.60/bin/bin/../../lib/gcc/pic32c/8.3.1/../../../../pic32c/lib/thumb/v7e-m+fp/hard\libpic32c.a(pic32_data_init_copy.o)
 .xc_stack_usage
                0x0000000000000000       0x1a c:/program files/microchip/xc32/v4.60/bin/bin/../../lib/gcc/pic32c/8.3.1/../../../../pic32c/lib/thumb/v7e-m+fp/hard\libpic32c.a(pic32_data_init_copy.o)
 .xc_stack_usage.hdr
                0x0000000000000000        0xe c:/program files/microchip/xc32/v4.60/bin/bin/../../lib/gcc/pic32c/8.3.1/../../../../pic32c/lib/thumb/v7e-m+fp/hard\libpic32c.a(pic32_data_init_copy.o)

Memory Configuration

Name             Origin             Length             Attributes
boot_rom         0x0000000000000000 0x0000000000005e00 xrl
pds              0x0000000001000000 0x0000000000004000 xr
rom              0x0000000001004000 0x00000000000fc000 xrl
ram              0x0000000020000000 0x0000000000020000 xw !r
bkupram          0x0000000044014000 0x0000000000002000
config_00045F80  0x0000000000045f80 0x0000000000000004
config_00045E80  0x0000000000045e80 0x0000000000000004
config_00045F84  0x0000000000045f84 0x0000000000000004
config_00045F88  0x0000000000045f88 0x0000000000000004
config_00045E8C  0x0000000000045e8c 0x0000000000000004
config_00045E90  0x0000000000045e90 0x0000000000000004
config_00045E98  0x0000000000045e98 0x0000000000000004
config_00045E94  0x0000000000045e94 0x0000000000000004
config_00045F98  0x0000000000045f98 0x0000000000000004
config_00045E84  0x0000000000045e84 0x0000000000000004
config_00045E9C  0x0000000000045e9c 0x0000000000000004
config_00045EB0  0x0000000000045eb0 0x0000000000000004
config_00045F9C  0x0000000000045f9c 0x0000000000000004
config_00045FB0  0x0000000000045fb0 0x0000000000000004
config_00045E88  0x0000000000045e88 0x0000000000000004
config_00045EB4  0x0000000000045eb4 0x0000000000000004
config_00045FB8  0x0000000000045fb8 0x0000000000000004
config_00045FB4  0x0000000000045fb4 0x0000000000000004
config_00045FBC  0x0000000000045fbc 0x0000000000000004
config_00045F8C  0x0000000000045f8c 0x0000000000000004
config_00045EB8  0x0000000000045eb8 0x0000000000000004
config_00045F90  0x0000000000045f90 0x0000000000000004
config_00045EBC  0x0000000000045ebc 0x0000000000000004
config_00045F94  0x0000000000045f94 0x0000000000000004
*default*        0x0000000000000000 0xffffffffffffffff

Linker script and memory map

LOAD c:/program files/microchip/xc32/v4.60/bin/bin/../../lib/gcc/pic32c/8.3.1/thumb/v7e-m+fp/hard/crti.o
LOAD c:/program files/microchip/xc32/v4.60/bin/bin/../../lib/gcc/pic32c/8.3.1/thumb/v7e-m+fp/hard/crtbegin.o
LOAD build/default/production/_ext/1434821282/bsp.o
LOAD build/default/production/_ext/1726652707/MCHP_Crypto_Aead_WolfCryptWrapper.o
LOAD build/default/production/_ext/1726652707/MCHP_Crypto_RNG.o
LOAD build/default/production/_ext/1726652707/MCHP_Crypto_Hash_WolfcryptWrapper.o
LOAD build/default/production/_ext/1726652707/MCHP_Crypto_DigSign.o
LOAD build/default/production/_ext/1726652707/MCHP_Crypto_Kas.o
LOAD build/default/production/_ext/1726652707/MCHP_Crypto_Mac_WolfCryptWrapper.o
LOAD build/default/production/_ext/1726652707/MCHP_Crypto_DigSign_WolfcryptWrapper.o
LOAD build/default/production/_ext/1726652707/MCHP_Crypto_Kas_WolfcryptWrapper.o
LOAD build/default/production/_ext/1726652707/MCHP_Crypto_RNG_WolfcryptWrapper.o
LOAD build/default/production/_ext/1726652707/MCHP_Crypto_Sym_WolfcryptWrapper.o
LOAD build/default/production/_ext/1726652707/MCHP_Crypto_Aead_Cipher.o
LOAD build/default/production/_ext/1726652707/MCHP_Crypto_Hash.o
LOAD build/default/production/_ext/1726652707/MCHP_Crypto_Mac_Cipher.o
LOAD build/default/production/_ext/1726652707/MCHP_Crypto_Sym_Cipher.o
LOAD build/default/production/_ext/745501718/pal.o
LOAD build/default/production/_ext/957911548/phy_tx_frame_done_cb.o
LOAD build/default/production/_ext/957911548/phy_ed_end_cb.o
LOAD build/default/production/_ext/957911548/phy_task.o
LOAD build/default/production/_ext/957911548/phy_rx_frame_cb.o
LOAD build/default/production/_ext/1374435801/bmm.o
LOAD build/default/production/_ext/874725666/qmm.o
LOAD build/default/production/_ext/1014741959/drv_plc_boot.o
LOAD build/default/production/_ext/1014741959/drv_plc_hal.o
LOAD build/default/production/_ext/1089588495/drv_g3_macrt_bin.o
LOAD build/default/production/_ext/410113559/drv_g3_macrt_local_comm.o
LOAD build/default/production/_ext/410113559/drv_g3_macrt.o
LOAD build/default/production/_ext/1033058136/helpers.o
LOAD build/default/production/_ext/1033058136/tcpip_notify.o
LOAD build/default/production/_ext/1033058136/dhcp.o
LOAD build/default/production/_ext/1033058136/ndp.o
LOAD build/default/production/_ext/1033058136/udp.o
LOAD build/default/production/_ext/1033058136/tcpip_packet.o
LOAD build/default/production/_ext/1033058136/ipv6.o
LOAD build/default/production/_ext/1033058136/icmpv6.o
LOAD build/default/production/_ext/1033058136/dns.o
LOAD build/default/production/_ext/1033058136/tcpip_manager.o
LOAD build/default/production/_ext/1033058136/oahash.o
LOAD build/default/production/_ext/1033058136/tcpip_helpers.o
LOAD build/default/production/_ext/1033058136/tcpip_heap_alloc.o
LOAD build/default/production/_ext/1033058136/tcpip_heap_internal.o
LOAD build/default/production/_ext/1033058136/hash_fnv.o
LOAD build/default/production/_ext/1529399856/osal_freertos.o
LOAD build/default/production/_ext/1529399856/osal_freertos_extend.o
LOAD build/default/production/_ext/60165520/plib_clk.o
LOAD build/default/production/_ext/1865131932/plib_cmcc.o
LOAD build/default/production/_ext/1865161661/plib_dmac.o
LOAD build/default/production/_ext/60167341/plib_eic.o
LOAD build/default/production/_ext/1986646378/plib_evsys.o
LOAD build/default/production/_ext/1865254177/plib_gpio.o
LOAD build/default/production/_ext/1865468468/plib_nvic.o
LOAD build/default/production/_ext/60176403/plib_nvm.o
LOAD build/default/production/_ext/17022449/plib_sercom2_spi_master.o
LOAD build/default/production/_ext/504274921/plib_sercom1_usart.o
LOAD build/default/production/_ext/829342655/plib_tc0.o
LOAD build/default/production/_ext/1865643529/plib_trng.o
LOAD build/default/production/_ext/60184501/plib_wdt.o
LOAD build/default/production/_ext/2064362748/srv_pcoup.o
LOAD build/default/production/_ext/1036423743/srv_pcrc.o
LOAD build/default/production/_ext/2065812886/srv_queue.o
LOAD build/default/production/_ext/373899042/srv_random.o
LOAD build/default/production/_ext/2135967589/cipher_wrapper.o
LOAD build/default/production/_ext/2135967589/aes_wrapper.o
LOAD build/default/production/_ext/1534551086/lbp_encode_decode.o
LOAD build/default/production/_ext/1534551086/lbp_dev.o
LOAD build/default/production/_ext/1534551086/routing_wrapper.o
LOAD build/default/production/_ext/1534551086/eap_psk.o
LOAD build/default/production/_ext/1632721610/mac_common.o
LOAD build/default/production/_ext/1570337448/mac_wrapper.o
LOAD build/default/production/_ext/710515956/drv_mac_g3adp.o
LOAD build/default/production/_ext/977769160/pal_plc.o
LOAD build/default/production/_ext/1278466877/pal_rf.o
LOAD build/default/production/_ext/163028504/xc32_monitor.o
LOAD build/default/production/_ext/1014039709/sys_cache.o
LOAD build/default/production/_ext/1832805299/sys_console_uart.o
LOAD build/default/production/_ext/1832805299/sys_console.o
LOAD build/default/production/_ext/944882569/sys_debug.o
LOAD build/default/production/_ext/14461671/sys_dma.o
LOAD build/default/production/_ext/1881668453/sys_int.o
LOAD build/default/production/_ext/101884895/sys_time.o
LOAD build/default/production/_ext/753841488/sys_time_h2_adapter.o
LOAD build/default/production/_ext/1171490990/tasks.o
LOAD build/default/production/_ext/1171490990/interrupts.o
LOAD build/default/production/_ext/1171490990/exceptions.o
LOAD build/default/production/_ext/1171490990/initialization.o
LOAD build/default/production/_ext/1171490990/libc_syscalls.o
LOAD build/default/production/_ext/1171490990/startup_xc32.o
LOAD build/default/production/_ext/1171490990/freertos_hooks.o
LOAD build/default/production/_ext/246609638/port.o
LOAD build/default/production/_ext/1665200909/heap_4.o
LOAD build/default/production/_ext/404212886/list.o
LOAD build/default/production/_ext/404212886/stream_buffer.o
LOAD build/default/production/_ext/404212886/croutine.o
LOAD build/default/production/_ext/404212886/event_groups.o
LOAD build/default/production/_ext/404212886/timers.o
LOAD build/default/production/_ext/404212886/FreeRTOS_tasks.o
LOAD build/default/production/_ext/404212886/queue.o
LOAD build/default/production/_ext/193597431/pic32mz-crypt.o
LOAD build/default/production/_ext/1716827871/hpke.o
LOAD build/default/production/_ext/1716827871/cmac.o
LOAD build/default/production/_ext/1716827871/ext_xmss.o
LOAD build/default/production/_ext/1716827871/fe_operations.o
LOAD build/default/production/_ext/1716827871/wc_lms.o
LOAD build/default/production/_ext/1716827871/rc2.o
LOAD build/default/production/_ext/1716827871/coding.o
LOAD build/default/production/_ext/1716827871/sha256.o
LOAD build/default/production/_ext/1716827871/sp_sm2_c64.o
LOAD build/default/production/_ext/1716827871/ge_operations.o
LOAD build/default/production/_ext/1716827871/fe_448.o
LOAD build/default/production/_ext/1716827871/logging.o
LOAD build/default/production/_ext/1716827871/ecc_fp.o
LOAD build/default/production/_ext/1716827871/fe_low_mem.o
LOAD build/default/production/_ext/1716827871/blake2b.o
LOAD build/default/production/_ext/1716827871/sm2.o
LOAD build/default/production/_ext/1716827871/blake2s.o
LOAD build/default/production/_ext/1716827871/wc_xmss_impl.o
LOAD build/default/production/_ext/1716827871/camellia.o
LOAD build/default/production/_ext/1716827871/wolfevent.o
LOAD build/default/production/_ext/1716827871/chacha20_poly1305.o
LOAD build/default/production/_ext/1716827871/integer.o
LOAD build/default/production/_ext/1716827871/wc_kyber_poly.o
LOAD build/default/production/_ext/1716827871/sha3.o
LOAD build/default/production/_ext/1716827871/random.o
LOAD build/default/production/_ext/1716827871/ext_kyber.o
LOAD build/default/production/_ext/1716827871/ed448.o
LOAD build/default/production/_ext/1716827871/eccsi.o
LOAD build/default/production/_ext/1716827871/signature.o
LOAD build/default/production/_ext/1716827871/memory.o
LOAD build/default/production/_ext/1716827871/chacha.o
LOAD build/default/production/_ext/1716827871/sp_arm32.o
LOAD build/default/production/_ext/1716827871/sp_sm2_armthumb.o
LOAD build/default/production/_ext/1716827871/sp_int.o
LOAD build/default/production/_ext/1716827871/dsa.o
LOAD build/default/production/_ext/1716827871/sp_cortexm.o
LOAD build/default/production/_ext/1716827871/cryptocb.o
LOAD build/default/production/_ext/1716827871/sp_armthumb.o
LOAD build/default/production/_ext/1716827871/aes.o
LOAD build/default/production/_ext/1716827871/cpuid.o
LOAD build/default/production/_ext/1716827871/sha512.o
LOAD build/default/production/_ext/1716827871/srp.o
LOAD build/default/production/_ext/1716827871/dh.o
LOAD build/default/production/_ext/1716827871/sp_sm2_arm64.o
LOAD build/default/production/_ext/1716827871/sp_x86_64.o
LOAD build/default/production/_ext/1716827871/tfm.o
LOAD build/default/production/_ext/1716827871/sp_c32.o
LOAD build/default/production/_ext/1716827871/wc_xmss.o
LOAD build/default/production/_ext/1716827871/sakke.o
LOAD build/default/production/_ext/1716827871/sha.o
LOAD build/default/production/_ext/1716827871/hmac.o
LOAD build/default/production/_ext/1716827871/sp_sm2_arm32.o
LOAD build/default/production/_ext/1716827871/wc_pkcs11.o
LOAD build/default/production/_ext/1716827871/hash.o
LOAD build/default/production/_ext/1716827871/compress.o
LOAD build/default/production/_ext/1716827871/ripemd.o
LOAD build/default/production/_ext/1716827871/des3.o
LOAD build/default/production/_ext/1716827871/sp_sm2_x86_64.o
LOAD build/default/production/_ext/1716827871/poly1305.o
LOAD build/default/production/_ext/1716827871/pkcs12.o
LOAD build/default/production/_ext/1716827871/pkcs7.o
LOAD build/default/production/_ext/1716827871/pwdbased.o
LOAD build/default/production/_ext/1716827871/ed25519.o
LOAD build/default/production/_ext/1716827871/sp_arm64.o
LOAD build/default/production/_ext/1716827871/sp_c64.o
LOAD build/default/production/_ext/1716827871/wc_kyber.o
LOAD build/default/production/_ext/1716827871/error.o
LOAD build/default/production/_ext/1716827871/asm.o
LOAD build/default/production/_ext/1716827871/sm3.o
LOAD build/default/production/_ext/1716827871/sphincs.o
LOAD build/default/production/_ext/1716827871/sp_sm2_cortexm.o
LOAD build/default/production/_ext/1716827871/md4.o
LOAD build/default/production/_ext/1716827871/ecc.o
LOAD build/default/production/_ext/1716827871/asn.o
LOAD build/default/production/_ext/1716827871/ge_448.o
LOAD build/default/production/_ext/1716827871/sm4.o
LOAD build/default/production/_ext/1716827871/wc_port.o
LOAD build/default/production/_ext/1716827871/md5.o
LOAD build/default/production/_ext/1716827871/curve448.o
LOAD build/default/production/_ext/1716827871/wolfmath.o
LOAD build/default/production/_ext/1716827871/rsa.o
LOAD build/default/production/_ext/1716827871/falcon.o
LOAD build/default/production/_ext/1716827871/siphash.o
LOAD build/default/production/_ext/1716827871/ext_lms.o
LOAD build/default/production/_ext/1716827871/kdf.o
LOAD build/default/production/_ext/1716827871/arc4.o
LOAD build/default/production/_ext/1716827871/dilithium.o
LOAD build/default/production/_ext/1716827871/wc_encrypt.o
LOAD build/default/production/_ext/1716827871/curve25519.o
LOAD build/default/production/_ext/1716827871/md2.o
LOAD build/default/production/_ext/1716827871/wc_dsp.o
LOAD build/default/production/_ext/1716827871/sp_sm2_c32.o
LOAD build/default/production/_ext/1716827871/sp_dsp32.o
LOAD build/default/production/_ext/1716827871/ge_low_mem.o
LOAD build/default/production/_ext/1716827871/wc_lms_impl.o
LOAD build/default/production/_ext/1664057780/misc.o
LOAD build/default/production/_ext/1664057780/evp.o
LOAD build/default/production/_ext/1360937237/app_storage_wbz451h.o
LOAD build/default/production/_ext/1360937237/app.o
LOAD build/default/production/_ext/1360937237/app_user_edits.o
LOAD build/default/production/_ext/1360937237/app_idle_task.o
LOAD build/default/production/_ext/1360937237/app_udp_responder.o
LOAD build/default/production/_ext/1360937237/app_tcpip_management.o
LOAD build/default/production/_ext/1360937237/app_g3_management.o
LOAD build/default/production/_ext/1360937237/main.o
LOAD build/default/production/_ext/1360937237/app_matrix_led.o
LOAD ../src/config/default/stack/g3/mac/mac_plc/g3_lib_mac_plc.a
LOAD ../src/config/default/stack/g3/adaptation/g3_lib_adp.a
LOAD ../src/config/default/driver/lib/lib-ieee802154_phy_pic32cxbz-v1.2.0.a
LOAD ../src/config/default/stack/g3/adaptation/g3_lib_loadng.a
LOAD ../src/config/default/stack/g3/mac/mac_rf/g3_lib_mac_rf.a
LOAD ../src/config/default/driver/pds/pds.a
LOAD ../src/config/default/driver/device_support/pic32cx_bz2_device_support.a
                0x0000000000000001                __MPLAB_BUILD = 0x1

.bkupram_data
 *(.bkupram_data .bkupram_data.*)

.bkupram_bss
 *(.bkupram_bss .bkupram_bss.*)
 *(.pbss .pbss.*)
                0x0000000001100000                __rom_end = (ORIGIN (rom) + LENGTH (rom))
                0x0000000020020000                __ram_end = (ORIGIN (ram) + LENGTH (ram))

.config_00045F80
 *(.config_00045F80)

.config_00045E80
 *(.config_00045E80)

.config_00045F84
 *(.config_00045F84)

.config_00045F88
                0x0000000000045f88        0x4
 *(.config_00045F88)
 .config_00045F88
                0x0000000000045f88        0x4 build/default/production/_ext/1171490990/initialization.o
                0x0000000000045f88                __config_00045F88

.config_00045E8C
 *(.config_00045E8C)

.config_00045E90
 *(.config_00045E90)

.config_00045E98
 *(.config_00045E98)

.config_00045E94
 *(.config_00045E94)

.config_00045F98
                0x0000000000045f98        0x4
 *(.config_00045F98)
 .config_00045F98
                0x0000000000045f98        0x4 build/default/production/_ext/1171490990/initialization.o
                0x0000000000045f98                __config_00045F98

.config_00045E84
 *(.config_00045E84)

.config_00045E9C
 *(.config_00045E9C)

.config_00045EB0
 *(.config_00045EB0)

.config_00045F9C
                0x0000000000045f9c        0x4
 *(.config_00045F9C)
 .config_00045F9C
                0x0000000000045f9c        0x4 build/default/production/_ext/1171490990/initialization.o
                0x0000000000045f9c                __config_00045F9C

.config_00045FB0
 *(.config_00045FB0)

.config_00045E88
 *(.config_00045E88)

.config_00045EB4
 *(.config_00045EB4)

.config_00045FB8
 *(.config_00045FB8)

.config_00045FB4
 *(.config_00045FB4)

.config_00045FBC
                0x0000000000045fbc        0x4
 *(.config_00045FBC)
 .config_00045FBC
                0x0000000000045fbc        0x4 build/default/production/_ext/1171490990/initialization.o
                0x0000000000045fbc                __config_00045FBC

.config_00045F8C
                0x0000000000045f8c        0x4
 *(.config_00045F8C)
 .config_00045F8C
                0x0000000000045f8c        0x4 build/default/production/_ext/1171490990/initialization.o
                0x0000000000045f8c                __config_00045F8C

.config_00045EB8
 *(.config_00045EB8)

.config_00045F90
                0x0000000000045f90        0x4
 *(.config_00045F90)
 .config_00045F90
                0x0000000000045f90        0x4 build/default/production/_ext/1171490990/initialization.o
                0x0000000000045f90                __config_00045F90

.config_00045EBC
 *(.config_00045EBC)

.config_00045F94
                0x0000000000045f94        0x4
 *(.config_00045F94)
 .config_00045F94
                0x0000000000045f94        0x4 build/default/production/_ext/1171490990/initialization.o
                0x0000000000045f94                __config_00045F94

.vectors        0x0000000000000000       0xe0
                0x0000000000000000                . = ALIGN (0x4)
                0x0000000000000000                _sfixed = .
 *(.vectors .vectors.* .vectors_default .vectors_default.*)
 .vectors       0x0000000000000000       0xe0 build/default/production/_ext/1171490990/interrupts.o
                0x0000000000000000                exception_table
 *(.isr_vector)
 *(.reset*)
 *(.after_vectors)

.dnvMem         0x0000000001000000        0x0
                0x0000000001000000                __d_nv_mem_start = .
                0x0000000001004000                __d_nv_mem_end = (ORIGIN (pds) + LENGTH (pds))

.text           0x0000000001004000       0x30
                0x0000000001004000                PROVIDE (__pds_ff_start = .)
 *(.pds_ff .pds_ff.*)
 .pds_ff        0x0000000001004000       0x10 build/default/production/_ext/1360937237/app_storage_wbz451h.o
                0x0000000001004000                pds_ff_APP_STORAGE_PDS_ITEM_1
                [!provide]                        PROVIDE (__pds_ff_end = .)
                0x0000000001004010                PROVIDE (__pds_fd_start = .)
 *(.pds_fd .pds_fd.*)
                [!provide]                        PROVIDE (__pds_fd_end = .)
                0x0000000001004010                . = ALIGN (0x4)
 *(.glue_7t)
 .glue_7t       0x0000000001004010        0x0 linker stubs
 *(.glue_7)
 .glue_7        0x0000000001004010        0x0 linker stubs
 *(.gnu.linkonce.r.*)
 *(.ARM.extab* .gnu.linkonce.armextab.*)
                0x0000000001004010                . = ALIGN (0x4)
 *(.init)
 .init          0x0000000001004010        0x4 c:/program files/microchip/xc32/v4.60/bin/bin/../../lib/gcc/pic32c/8.3.1/thumb/v7e-m+fp/hard/crti.o
                0x0000000001004010                _init
 .init          0x0000000001004014        0x8 c:/program files/microchip/xc32/v4.60/bin/bin/../../lib/gcc/pic32c/8.3.1/thumb/v7e-m+fp/hard/crtn.o
                0x000000000100401c                . = ALIGN (0x4)
                0x000000000100401c                __preinit_array_start = .
 *(.preinit_array)
                0x000000000100401c                __preinit_array_end = .
                0x000000000100401c                . = ALIGN (0x4)
                0x000000000100401c                __init_array_start = .
 *(SORT_BY_NAME(.init_array.*))
 *(.init_array)
 .init_array    0x000000000100401c        0x4 c:/program files/microchip/xc32/v4.60/bin/bin/../../lib/gcc/pic32c/8.3.1/thumb/v7e-m+fp/hard/crtbegin.o
                0x0000000001004020                __init_array_end = .
                0x0000000001004020                . = ALIGN (0x4)
 *crtbegin.o(.ctors)
 *(EXCLUDE_FILE(*crtend.o) .ctors)
 *(SORT_BY_NAME(.ctors.*))
 *crtend.o(.ctors)
                0x0000000001004020                . = ALIGN (0x4)
 *(.fini)
 .fini          0x0000000001004020        0x4 c:/program files/microchip/xc32/v4.60/bin/bin/../../lib/gcc/pic32c/8.3.1/thumb/v7e-m+fp/hard/crti.o
                0x0000000001004020                _fini
 .fini          0x0000000001004024        0x8 c:/program files/microchip/xc32/v4.60/bin/bin/../../lib/gcc/pic32c/8.3.1/thumb/v7e-m+fp/hard/crtn.o
                0x000000000100402c                . = ALIGN (0x4)
                0x000000000100402c                __fini_array_start = .
 *(.fini_array)
 .fini_array    0x000000000100402c        0x4 c:/program files/microchip/xc32/v4.60/bin/bin/../../lib/gcc/pic32c/8.3.1/thumb/v7e-m+fp/hard/crtbegin.o
 *(SORT_BY_NAME(.fini_array.*))
                0x0000000001004030                __fini_array_end = .
 *crtbegin.o(.dtors)
 *(EXCLUDE_FILE(*crtend.o) .dtors)
 *(SORT_BY_NAME(.dtors.*))
 *crtend.o(.dtors)
                0x0000000001004030                . = ALIGN (0x4)
                0x0000000001004030                _efixed = .
                [!provide]                        PROVIDE (__exidx_start = .)

.ARM.exidx      0x0000000001004030        0x8
 *(.ARM.exidx* .gnu.linkonce.armexidx.*)
 .ARM.exidx     0x0000000001004030        0x8 c:/program files/microchip/xc32/v4.60/bin/bin/../../lib/gcc/pic32c/8.3.1/thumb/v7e-m+fp/hard\libgcc.a(_udivmoddi4.o)
                [!provide]                        PROVIDE (__exidx_end = .)
                0x0000000001004038                . = ALIGN (0x4)
                0x0000000001004038                _etext = .

.bss            0x0000000020000000     0x1968
                0x0000000020000000                . = ALIGN (0x4)
                0x0000000020000000                __bss_start__ = .
                0x0000000020000000                _sbss = .
                0x0000000020000000                _szero = .
 *(COMMON)
 COMMON         0x0000000020000000       0x34 build/default/production/_ext/1632721610/mac_common.o
                0x0000000020000000                macMibCommon
 COMMON         0x0000000020000034        0x4 build/default/production/_ext/944882569/sys_debug.o
                0x0000000020000034                gblErrLvl
 COMMON         0x0000000020000038       0x14 build/default/production/_ext/1171490990/tasks.o
                0x0000000020000038                xAPP_TCPIP_MANAGEMENT_Tasks
                0x000000002000003c                xPHY_Tasks
                0x0000000020000040                xAPP_UDP_RESPONDER_Tasks
                0x0000000020000044                xAPP_STORAGE_WBZ451H_Tasks
                0x0000000020000048                xAPP_G3_MANAGEMENT_Tasks
 COMMON         0x000000002000004c       0x64 build/default/production/_ext/1171490990/initialization.o
                0x000000002000004c                semPhyInternalHandler
                0x0000000020000050                sysObj
                0x000000002000006c                osalAPIList
 COMMON         0x00000000200000b0       0x1c build/default/production/_ext/1360937237/app_storage_wbz451h.o
                0x00000000200000b0                app_storage_wbz451hData
                0x00000000200000c8                appStorageSemaphoreID
 COMMON         0x00000000200000cc        0x8 build/default/production/_ext/1360937237/app_udp_responder.o
                0x00000000200000cc                app_udp_responderData
 COMMON         0x00000000200000d4       0x3c build/default/production/_ext/1360937237/app_tcpip_management.o
                0x00000000200000d4                app_tcpip_managementData
 COMMON         0x0000000020000110       0x2c build/default/production/_ext/1360937237/app_g3_management.o
                0x0000000020000110                app_g3_managementData
 COMMON         0x000000002000013c     0x181c build/default/production/_ext/1360937237/app_matrix_led.o
                0x000000002000013c                matrix
                0x000000002000193c                app_matrix_ledData
 COMMON         0x0000000020001958        0x1 ../src/config/default/driver/device_support/pic32cx_bz2_device_support.a(info_block.o)
                0x0000000020001958                g_ib_RssiOffset
 *fill*         0x0000000020001959        0x3 
 COMMON         0x000000002000195c        0xc ../src/config/default/driver/device_support/pic32cx_bz2_device_support.a(rf_system.o)
                0x000000002000195c                g_hpaEnable
                0x000000002000195d                g_validFactoryCalTemp
                0x000000002000195e                g_lastTemperatureDegreeC
                0x0000000020001960                g_vrefComp
                0x0000000020001964                g_nextCalTime
                0x0000000020001968                . = ALIGN (0x4)
                0x0000000020001968                __bss_end__ = .
                0x0000000020001968                _ebss = .
                0x0000000020001968                _ezero = .
                0x0000000020001968                . = ALIGN (0x4)
                0x0000000020001968                _end = .
                0x000000002001ffff                _ram_end_ = ((ORIGIN (ram) + LENGTH (ram)) - 0x1)
                0x0000000000003c00                _min_heap_size = 0x3c00
START GROUP
LOAD c:/program files/microchip/xc32/v4.60/bin/bin/../../lib/gcc/pic32c/8.3.1/../../../../pic32c/lib/thumb/v7e-m+fp/hard\libpic32c.a
LOAD c:/program files/microchip/xc32/v4.60/bin/bin/../../lib/gcc/pic32c/8.3.1/../../../../pic32c/lib/thumb/v7e-m+fp/hard\libc-size-musl.a
LOAD c:/program files/microchip/xc32/v4.60/bin/bin/../../lib/gcc/pic32c/8.3.1/../../../../pic32c/lib/thumb/v7e-m+fp/hard\liblmalloc-musl.a
LOAD c:/program files/microchip/xc32/v4.60/bin/bin/../../lib/gcc/pic32c/8.3.1/../../../../pic32c/lib/thumb/v7e-m+fp/hard\libm-fast-emfloat.a
LOAD c:/program files/microchip/xc32/v4.60/bin/bin/../../lib/gcc/pic32c/8.3.1/../../../../pic32c/lib/thumb/v7e-m+fp/hard\libm-musl.a
LOAD c:/program files/microchip/xc32/v4.60/bin/bin/../../lib/gcc/pic32c/8.3.1/../../../../pic32c/lib/thumb/v7e-m+fp/hard\libc-musl.a
LOAD c:/program files/microchip/xc32/v4.60/bin/bin/../../lib/gcc/pic32c/8.3.1/../../../../pic32c/lib/thumb/v7e-m+fp/hard\libm-fast-emfloat.a
LOAD c:/program files/microchip/xc32/v4.60/bin/bin/../../lib/gcc/pic32c/8.3.1/../../../../pic32c/lib/thumb/v7e-m+fp/hard\libm-musl.a
LOAD c:/program files/microchip/xc32/v4.60/bin/bin/../../lib/gcc/pic32c/8.3.1/thumb/v7e-m+fp/hard\libgcc.a
END GROUP
LOAD c:/program files/microchip/xc32/v4.60/bin/bin/../../lib/gcc/pic32c/8.3.1/thumb/v7e-m+fp/hard/crtend.o
LOAD c:/program files/microchip/xc32/v4.60/bin/bin/../../lib/gcc/pic32c/8.3.1/thumb/v7e-m+fp/hard/crtn.o
OUTPUT(dist/default/production/g3_device_udp_wbz451h_pl460.X.production.elf elf32-littlearm)
LOAD data_init
LOAD stack

.ARM.attributes
                0x0000000000000000       0x32
 .ARM.attributes
                0x0000000000000000       0x1e c:/program files/microchip/xc32/v4.60/bin/bin/../../lib/gcc/pic32c/8.3.1/thumb/v7e-m+fp/hard/crti.o
 .ARM.attributes
                0x000000000000001e       0x34 c:/program files/microchip/xc32/v4.60/bin/bin/../../lib/gcc/pic32c/8.3.1/thumb/v7e-m+fp/hard/crtbegin.o
 .ARM.attributes
                0x0000000000000052       0x34 build/default/production/_ext/1434821282/bsp.o
 .ARM.attributes
                0x0000000000000086       0x34 build/default/production/_ext/1726652707/MCHP_Crypto_Aead_WolfCryptWrapper.o
 .ARM.attributes
                0x00000000000000ba       0x34 build/default/production/_ext/1726652707/MCHP_Crypto_Mac_WolfCryptWrapper.o
 .ARM.attributes
                0x00000000000000ee       0x34 build/default/production/_ext/1726652707/MCHP_Crypto_Sym_WolfcryptWrapper.o
 .ARM.attributes
                0x0000000000000122       0x34 build/default/production/_ext/1726652707/MCHP_Crypto_Aead_Cipher.o
 .ARM.attributes
                0x0000000000000156       0x34 build/default/production/_ext/1726652707/MCHP_Crypto_Mac_Cipher.o
 .ARM.attributes
                0x000000000000018a       0x34 build/default/production/_ext/1726652707/MCHP_Crypto_Sym_Cipher.o
 .ARM.attributes
                0x00000000000001be       0x34 build/default/production/_ext/745501718/pal.o
 .ARM.attributes
                0x00000000000001f2       0x34 build/default/production/_ext/957911548/phy_ed_end_cb.o
 .ARM.attributes
                0x0000000000000226       0x34 build/default/production/_ext/957911548/phy_task.o
 .ARM.attributes
                0x000000000000025a       0x34 build/default/production/_ext/957911548/phy_rx_frame_cb.o
 .ARM.attributes
                0x000000000000028e       0x34 build/default/production/_ext/1374435801/bmm.o
 .ARM.attributes
                0x00000000000002c2       0x34 build/default/production/_ext/874725666/qmm.o
 .ARM.attributes
                0x00000000000002f6       0x34 build/default/production/_ext/1014741959/drv_plc_boot.o
 .ARM.attributes
                0x000000000000032a       0x34 build/default/production/_ext/1014741959/drv_plc_hal.o
 .ARM.attributes
                0x000000000000035e       0x20 build/default/production/_ext/1089588495/drv_g3_macrt_bin.o
 .ARM.attributes
                0x000000000000037e       0x34 build/default/production/_ext/410113559/drv_g3_macrt_local_comm.o
 .ARM.attributes
                0x00000000000003b2       0x34 build/default/production/_ext/410113559/drv_g3_macrt.o
 .ARM.attributes
                0x00000000000003e6       0x34 build/default/production/_ext/1033058136/helpers.o
 .ARM.attributes
                0x000000000000041a       0x34 build/default/production/_ext/1033058136/tcpip_notify.o
 .ARM.attributes
                0x000000000000044e       0x34 build/default/production/_ext/1033058136/ndp.o
 .ARM.attributes
                0x0000000000000482       0x34 build/default/production/_ext/1033058136/udp.o
 .ARM.attributes
                0x00000000000004b6       0x34 build/default/production/_ext/1033058136/tcpip_packet.o
 .ARM.attributes
                0x00000000000004ea       0x34 build/default/production/_ext/1033058136/ipv6.o
 .ARM.attributes
                0x000000000000051e       0x34 build/default/production/_ext/1033058136/icmpv6.o
 .ARM.attributes
                0x0000000000000552       0x34 build/default/production/_ext/1033058136/tcpip_manager.o
 .ARM.attributes
                0x0000000000000586       0x34 build/default/production/_ext/1033058136/tcpip_helpers.o
 .ARM.attributes
                0x00000000000005ba       0x34 build/default/production/_ext/1033058136/tcpip_heap_alloc.o
 .ARM.attributes
                0x00000000000005ee       0x34 build/default/production/_ext/1033058136/tcpip_heap_internal.o
 .ARM.attributes
                0x0000000000000622       0x34 build/default/production/_ext/1529399856/osal_freertos.o
 .ARM.attributes
                0x0000000000000656       0x34 build/default/production/_ext/1529399856/osal_freertos_extend.o
 .ARM.attributes
                0x000000000000068a       0x34 build/default/production/_ext/60165520/plib_clk.o
 .ARM.attributes
                0x00000000000006be       0x34 build/default/production/_ext/1865161661/plib_dmac.o
 .ARM.attributes
                0x00000000000006f2       0x34 build/default/production/_ext/60167341/plib_eic.o
 .ARM.attributes
                0x0000000000000726       0x34 build/default/production/_ext/1986646378/plib_evsys.o
 .ARM.attributes
                0x000000000000075a       0x34 build/default/production/_ext/1865254177/plib_gpio.o
 .ARM.attributes
                0x000000000000078e       0x34 build/default/production/_ext/1865468468/plib_nvic.o
 .ARM.attributes
                0x00000000000007c2       0x34 build/default/production/_ext/60176403/plib_nvm.o
 .ARM.attributes
                0x00000000000007f6       0x34 build/default/production/_ext/17022449/plib_sercom2_spi_master.o
 .ARM.attributes
                0x000000000000082a       0x34 build/default/production/_ext/504274921/plib_sercom1_usart.o
 .ARM.attributes
                0x000000000000085e       0x34 build/default/production/_ext/829342655/plib_tc0.o
 .ARM.attributes
                0x0000000000000892       0x34 build/default/production/_ext/1865643529/plib_trng.o
 .ARM.attributes
                0x00000000000008c6       0x34 build/default/production/_ext/60184501/plib_wdt.o
 .ARM.attributes
                0x00000000000008fa       0x34 build/default/production/_ext/2064362748/srv_pcoup.o
 .ARM.attributes
                0x000000000000092e       0x34 build/default/production/_ext/2065812886/srv_queue.o
 .ARM.attributes
                0x0000000000000962       0x34 build/default/production/_ext/373899042/srv_random.o
 .ARM.attributes
                0x0000000000000996       0x34 build/default/production/_ext/2135967589/cipher_wrapper.o
 .ARM.attributes
                0x00000000000009ca       0x34 build/default/production/_ext/2135967589/aes_wrapper.o
 .ARM.attributes
                0x00000000000009fe       0x34 build/default/production/_ext/1534551086/lbp_encode_decode.o
 .ARM.attributes
                0x0000000000000a32       0x34 build/default/production/_ext/1534551086/lbp_dev.o
 .ARM.attributes
                0x0000000000000a66       0x34 build/default/production/_ext/1534551086/routing_wrapper.o
 .ARM.attributes
                0x0000000000000a9a       0x34 build/default/production/_ext/1534551086/eap_psk.o
 .ARM.attributes
                0x0000000000000ace       0x34 build/default/production/_ext/1632721610/mac_common.o
 .ARM.attributes
                0x0000000000000b02       0x34 build/default/production/_ext/1570337448/mac_wrapper.o
 .ARM.attributes
                0x0000000000000b36       0x34 build/default/production/_ext/710515956/drv_mac_g3adp.o
 .ARM.attributes
                0x0000000000000b6a       0x34 build/default/production/_ext/977769160/pal_plc.o
 .ARM.attributes
                0x0000000000000b9e       0x34 build/default/production/_ext/1278466877/pal_rf.o
 .ARM.attributes
                0x0000000000000bd2       0x34 build/default/production/_ext/1832805299/sys_console_uart.o
 .ARM.attributes
                0x0000000000000c06       0x34 build/default/production/_ext/1832805299/sys_console.o
 .ARM.attributes
                0x0000000000000c3a       0x34 build/default/production/_ext/944882569/sys_debug.o
 .ARM.attributes
                0x0000000000000c6e       0x34 build/default/production/_ext/14461671/sys_dma.o
 .ARM.attributes
                0x0000000000000ca2       0x34 build/default/production/_ext/1881668453/sys_int.o
 .ARM.attributes
                0x0000000000000cd6       0x34 build/default/production/_ext/101884895/sys_time.o
 .ARM.attributes
                0x0000000000000d0a       0x34 build/default/production/_ext/753841488/sys_time_h2_adapter.o
 .ARM.attributes
                0x0000000000000d3e       0x34 build/default/production/_ext/1171490990/tasks.o
 .ARM.attributes
                0x0000000000000d72       0x34 build/default/production/_ext/1171490990/interrupts.o
 .ARM.attributes
                0x0000000000000da6       0x34 build/default/production/_ext/1171490990/exceptions.o
 .ARM.attributes
                0x0000000000000dda       0x34 build/default/production/_ext/1171490990/initialization.o
 .ARM.attributes
                0x0000000000000e0e       0x34 build/default/production/_ext/1171490990/startup_xc32.o
 .ARM.attributes
                0x0000000000000e42       0x34 build/default/production/_ext/1171490990/freertos_hooks.o
 .ARM.attributes
                0x0000000000000e76       0x34 build/default/production/_ext/246609638/port.o
 .ARM.attributes
                0x0000000000000eaa       0x34 build/default/production/_ext/1665200909/heap_4.o
 .ARM.attributes
                0x0000000000000ede       0x34 build/default/production/_ext/404212886/list.o
 .ARM.attributes
                0x0000000000000f12       0x34 build/default/production/_ext/404212886/FreeRTOS_tasks.o
 .ARM.attributes
                0x0000000000000f46       0x34 build/default/production/_ext/404212886/queue.o
 .ARM.attributes
                0x0000000000000f7a       0x34 build/default/production/_ext/1716827871/cmac.o
 .ARM.attributes
                0x0000000000000fae       0x34 build/default/production/_ext/1716827871/sha256.o
 .ARM.attributes
                0x0000000000000fe2       0x34 build/default/production/_ext/1716827871/random.o
 .ARM.attributes
                0x0000000000001016       0x34 build/default/production/_ext/1716827871/aes.o
 .ARM.attributes
                0x000000000000104a       0x34 build/default/production/_ext/1664057780/misc.o
 .ARM.attributes
                0x000000000000107e       0x34 build/default/production/_ext/1360937237/app_storage_wbz451h.o
 .ARM.attributes
                0x00000000000010b2       0x34 build/default/production/_ext/1360937237/app_idle_task.o
 .ARM.attributes
                0x00000000000010e6       0x34 build/default/production/_ext/1360937237/app_udp_responder.o
 .ARM.attributes
                0x000000000000111a       0x34 build/default/production/_ext/1360937237/app_tcpip_management.o
 .ARM.attributes
                0x000000000000114e       0x34 build/default/production/_ext/1360937237/app_g3_management.o
 .ARM.attributes
                0x0000000000001182       0x34 build/default/production/_ext/1360937237/main.o
 .ARM.attributes
                0x00000000000011b6       0x34 build/default/production/_ext/1360937237/app_matrix_led.o
 .ARM.attributes
                0x00000000000011ea       0x34 ../src/config/default/stack/g3/mac/mac_plc/g3_lib_mac_plc.a(MacLow.o)
 .ARM.attributes
                0x000000000000121e       0x34 ../src/config/default/stack/g3/mac/mac_plc/g3_lib_mac_plc.a(MacMib.o)
 .ARM.attributes
                0x0000000000001252       0x34 ../src/config/default/stack/g3/mac/mac_plc/g3_lib_mac_plc.a(MacSublayer.o)
 .ARM.attributes
                0x0000000000001286       0x34 ../src/config/default/stack/g3/mac/mac_plc/g3_lib_mac_plc.a(MacConstants.o)
 .ARM.attributes
                0x00000000000012ba       0x34 ../src/config/default/stack/g3/adaptation/g3_lib_adp.a(Adp.o)
 .ARM.attributes
                0x00000000000012ee       0x34 ../src/config/default/stack/g3/adaptation/g3_lib_adp.a(AdpCommon.o)
 .ARM.attributes
                0x0000000000001322       0x34 ../src/config/default/stack/g3/adaptation/g3_lib_adp.a(AdpData.o)
 .ARM.attributes
                0x0000000000001356       0x34 ../src/config/default/stack/g3/adaptation/g3_lib_adp.a(AdpDiscovery.o)
 .ARM.attributes
                0x000000000000138a       0x34 ../src/config/default/stack/g3/adaptation/g3_lib_adp.a(AdpGetSet.o)
 .ARM.attributes
                0x00000000000013be       0x34 ../src/config/default/stack/g3/adaptation/g3_lib_adp.a(AdpLbp.o)
 .ARM.attributes
                0x00000000000013f2       0x34 ../src/config/default/stack/g3/adaptation/g3_lib_adp.a(AdpMacInterface.o)
 .ARM.attributes
                0x0000000000001426       0x34 ../src/config/default/stack/g3/adaptation/g3_lib_adp.a(AdpNetwork.o)
 .ARM.attributes
                0x000000000000145a       0x34 ../src/config/default/stack/g3/adaptation/g3_lib_adp.a(AdpReset.o)
 .ARM.attributes
                0x000000000000148e       0x34 ../src/config/default/stack/g3/adaptation/g3_lib_adp.a(AdpRouteDiscovery.o)
 .ARM.attributes
                0x00000000000014c2       0x34 ../src/config/default/stack/g3/adaptation/g3_lib_adp.a(Proto6Lowpan.o)
 .ARM.attributes
                0x00000000000014f6       0x34 ../src/config/default/stack/g3/adaptation/g3_lib_adp.a(ProtoRFC6282.o)
 .ARM.attributes
                0x000000000000152a       0x34 ../src/config/default/driver/lib/lib-ieee802154_phy_pic32cxbz-v1.2.0.a(phy.o)
 .ARM.attributes
                0x000000000000155e       0x34 ../src/config/default/driver/lib/lib-ieee802154_phy_pic32cxbz-v1.2.0.a(phy_ed.o)
 .ARM.attributes
                0x0000000000001592       0x34 ../src/config/default/driver/lib/lib-ieee802154_phy_pic32cxbz-v1.2.0.a(phy_helper.o)
 .ARM.attributes
                0x00000000000015c6       0x34 ../src/config/default/driver/lib/lib-ieee802154_phy_pic32cxbz-v1.2.0.a(phy_init.o)
 .ARM.attributes
                0x00000000000015fa       0x34 ../src/config/default/driver/lib/lib-ieee802154_phy_pic32cxbz-v1.2.0.a(phy_irq_handler.o)
 .ARM.attributes
                0x000000000000162e       0x34 ../src/config/default/driver/lib/lib-ieee802154_phy_pic32cxbz-v1.2.0.a(phy_pib.o)
 .ARM.attributes
                0x0000000000001662       0x34 ../src/config/default/driver/lib/lib-ieee802154_phy_pic32cxbz-v1.2.0.a(phy_pwr_mgmt.o)
 .ARM.attributes
                0x0000000000001696       0x34 ../src/config/default/driver/lib/lib-ieee802154_phy_pic32cxbz-v1.2.0.a(phy_rx.o)
 .ARM.attributes
                0x00000000000016ca       0x34 ../src/config/default/driver/lib/lib-ieee802154_phy_pic32cxbz-v1.2.0.a(phy_rx_enable.o)
 .ARM.attributes
                0x00000000000016fe       0x34 ../src/config/default/driver/lib/lib-ieee802154_phy_pic32cxbz-v1.2.0.a(phy_tx.o)
 .ARM.attributes
                0x0000000000001732       0x34 ../src/config/default/driver/lib/lib-ieee802154_phy_pic32cxbz-v1.2.0.a(tfa.o)
 .ARM.attributes
                0x0000000000001766       0x34 ../src/config/default/driver/lib/lib-ieee802154_phy_pic32cxbz-v1.2.0.a(phy_frame_handling.o)
 .ARM.attributes
                0x000000000000179a       0x34 ../src/config/default/stack/g3/adaptation/g3_lib_loadng.a(ProtoLoadNg.o)
 .ARM.attributes
                0x00000000000017ce       0x34 ../src/config/default/stack/g3/adaptation/g3_lib_loadng.a(ProtoLoadNg_GetSet.o)
 .ARM.attributes
                0x0000000000001802       0x34 ../src/config/default/stack/g3/adaptation/g3_lib_loadng.a(ProtoLoadNg_RouteCost.o)
 .ARM.attributes
                0x0000000000001836       0x34 ../src/config/default/stack/g3/adaptation/g3_lib_loadng.a(ProtoLoadNg_RouteCost_CapacityMetric.o)
 .ARM.attributes
                0x000000000000186a       0x34 ../src/config/default/stack/g3/adaptation/g3_lib_loadng.a(ProtoLoadNg_RouteCost_CompositeMetric.o)
 .ARM.attributes
                0x000000000000189e       0x34 ../src/config/default/stack/g3/adaptation/g3_lib_loadng.a(ProtoLoadNg_RouteCost_HopCount.o)
 .ARM.attributes
                0x00000000000018d2       0x34 ../src/config/default/stack/g3/mac/mac_rf/g3_lib_mac_rf.a(MacRfLow.o)
 .ARM.attributes
                0x0000000000001906       0x34 ../src/config/default/stack/g3/mac/mac_rf/g3_lib_mac_rf.a(MacRfMib.o)
 .ARM.attributes
                0x000000000000193a       0x34 ../src/config/default/stack/g3/mac/mac_rf/g3_lib_mac_rf.a(MacRfSublayer.o)
 .ARM.attributes
                0x000000000000196e       0x34 ../src/config/default/driver/pds/pds.a(wlPdsDataServer.o)
 .ARM.attributes
                0x00000000000019a2       0x34 ../src/config/default/driver/pds/pds.a(wlPdsInit.o)
 .ARM.attributes
                0x00000000000019d6       0x34 ../src/config/default/driver/pds/pds.a(D_Nv.o)
 .ARM.attributes
                0x0000000000001a0a       0x34 ../src/config/default/driver/pds/pds.a(S_Nv-Chimera.o)
 .ARM.attributes
                0x0000000000001a3e       0x34 ../src/config/default/driver/device_support/pic32cx_bz2_device_support.a(info_block.o)
 .ARM.attributes
                0x0000000000001a72       0x34 ../src/config/default/driver/device_support/pic32cx_bz2_device_support.a(rf_system.o)
 .ARM.attributes
                0x0000000000001aa6       0x34 ../src/config/default/driver/device_support/pic32cx_bz2_device_support.a(info_block_plat.o)
 .ARM.attributes
                0x0000000000001ada       0x34 ../src/config/default/driver/device_support/pic32cx_bz2_device_support.a(pmu_dvr.o)
 .ARM.attributes
                0x0000000000001b0e       0x34 ../src/config/default/driver/device_support/pic32cx_bz2_device_support.a(rf.o)
 .ARM.attributes
                0x0000000000001b42       0x34 c:/program files/microchip/xc32/v4.60/bin/bin/../../lib/gcc/pic32c/8.3.1/../../../../pic32c/lib/thumb/v7e-m+fp/hard\libpic32c.a(data_init.o)
 .ARM.attributes
                0x0000000000001b76       0x36 c:/program files/microchip/xc32/v4.60/bin/bin/../../lib/gcc/pic32c/8.3.1/../../../../pic32c/lib/thumb/v7e-m+fp/hard\libc-size-musl.a(memcmp.o)
 .ARM.attributes
                0x0000000000001bac       0x36 c:/program files/microchip/xc32/v4.60/bin/bin/../../lib/gcc/pic32c/8.3.1/../../../../pic32c/lib/thumb/v7e-m+fp/hard\libc-size-musl.a(memcpy.o)
 .ARM.attributes
                0x0000000000001be2       0x36 c:/program files/microchip/xc32/v4.60/bin/bin/../../lib/gcc/pic32c/8.3.1/../../../../pic32c/lib/thumb/v7e-m+fp/hard\libc-size-musl.a(memmove.o)
 .ARM.attributes
                0x0000000000001c18       0x36 c:/program files/microchip/xc32/v4.60/bin/bin/../../lib/gcc/pic32c/8.3.1/../../../../pic32c/lib/thumb/v7e-m+fp/hard\libc-size-musl.a(memset.o)
 .ARM.attributes
                0x0000000000001c4e       0x36 c:/program files/microchip/xc32/v4.60/bin/bin/../../lib/gcc/pic32c/8.3.1/../../../../pic32c/lib/thumb/v7e-m+fp/hard\libc-size-musl.a(strlen.o)
 .ARM.attributes
                0x0000000000001c84       0x36 c:/program files/microchip/xc32/v4.60/bin/bin/../../lib/gcc/pic32c/8.3.1/../../../../pic32c/lib/thumb/v7e-m+fp/hard\libc-size-musl.a(strcmp.o)
 .ARM.attributes
                0x0000000000001cba       0x36 c:/program files/microchip/xc32/v4.60/bin/bin/../../lib/gcc/pic32c/8.3.1/../../../../pic32c/lib/thumb/v7e-m+fp/hard\libc-size-musl.a(strncpy.o)
 .ARM.attributes
                0x0000000000001cf0       0x36 c:/program files/microchip/xc32/v4.60/bin/bin/../../lib/gcc/pic32c/8.3.1/../../../../pic32c/lib/thumb/v7e-m+fp/hard\libc-size-musl.a(strrchr.o)
 .ARM.attributes
                0x0000000000001d26       0x36 c:/program files/microchip/xc32/v4.60/bin/bin/../../lib/gcc/pic32c/8.3.1/../../../../pic32c/lib/thumb/v7e-m+fp/hard\libc-size-musl.a(memrchr.o)
 .ARM.attributes
                0x0000000000001d5c       0x36 c:/program files/microchip/xc32/v4.60/bin/bin/../../lib/gcc/pic32c/8.3.1/../../../../pic32c/lib/thumb/v7e-m+fp/hard\libc-size-musl.a(stpncpy.o)
 .ARM.attributes
                0x0000000000001d92       0x36 c:/program files/microchip/xc32/v4.60/bin/bin/../../lib/gcc/pic32c/8.3.1/../../../../pic32c/lib/thumb/v7e-m+fp/hard\liblmalloc-musl.a(lite_free.o)
 .ARM.attributes
                0x0000000000001dc8       0x36 c:/program files/microchip/xc32/v4.60/bin/bin/../../lib/gcc/pic32c/8.3.1/../../../../pic32c/lib/thumb/v7e-m+fp/hard\liblmalloc-musl.a(lite_malloc.o)
 .ARM.attributes
                0x0000000000001dfe       0x34 c:/program files/microchip/xc32/v4.60/bin/bin/../../lib/gcc/pic32c/8.3.1/../../../../pic32c/lib/thumb/v7e-m+fp/hard\libm-fast-emfloat.a(round.o)
 .ARM.attributes
                0x0000000000001e32       0x34 c:/program files/microchip/xc32/v4.60/bin/bin/../../lib/gcc/pic32c/8.3.1/../../../../pic32c/lib/thumb/v7e-m+fp/hard\libm-fast-emfloat.a(log.o)
 .ARM.attributes
                0x0000000000001e66       0x34 c:/program files/microchip/xc32/v4.60/bin/bin/../../lib/gcc/pic32c/8.3.1/../../../../pic32c/lib/thumb/v7e-m+fp/hard\libm-fast-emfloat.a(pow.o)
 .ARM.attributes
                0x0000000000001e9a       0x34 c:/program files/microchip/xc32/v4.60/bin/bin/../../lib/gcc/pic32c/8.3.1/../../../../pic32c/lib/thumb/v7e-m+fp/hard\libm-fast-emfloat.a(__SEGGER_RTL_float64_Log.o)
 .ARM.attributes
                0x0000000000001ece       0x20 c:/program files/microchip/xc32/v4.60/bin/bin/../../lib/gcc/pic32c/8.3.1/../../../../pic32c/lib/thumb/v7e-m+fp/hard\libm-fast-emfloat.a(__aeabi_dadd.o)
 .ARM.attributes
                0x0000000000001eee       0x20 c:/program files/microchip/xc32/v4.60/bin/bin/../../lib/gcc/pic32c/8.3.1/../../../../pic32c/lib/thumb/v7e-m+fp/hard\libm-fast-emfloat.a(__aeabi_dsub.o)
 .ARM.attributes
                0x0000000000001f0e       0x20 c:/program files/microchip/xc32/v4.60/bin/bin/../../lib/gcc/pic32c/8.3.1/../../../../pic32c/lib/thumb/v7e-m+fp/hard\libm-fast-emfloat.a(__aeabi_dmul.o)
 .ARM.attributes
                0x0000000000001f2e       0x20 c:/program files/microchip/xc32/v4.60/bin/bin/../../lib/gcc/pic32c/8.3.1/../../../../pic32c/lib/thumb/v7e-m+fp/hard\libm-fast-emfloat.a(__aeabi_ddiv.o)
 .ARM.attributes
                0x0000000000001f4e       0x20 c:/program files/microchip/xc32/v4.60/bin/bin/../../lib/gcc/pic32c/8.3.1/../../../../pic32c/lib/thumb/v7e-m+fp/hard\libm-fast-emfloat.a(__aeabi_dcmpeq.o)
 .ARM.attributes
                0x0000000000001f6e       0x20 c:/program files/microchip/xc32/v4.60/bin/bin/../../lib/gcc/pic32c/8.3.1/../../../../pic32c/lib/thumb/v7e-m+fp/hard\libm-fast-emfloat.a(__aeabi_dcmpgt.o)
 .ARM.attributes
                0x0000000000001f8e       0x20 c:/program files/microchip/xc32/v4.60/bin/bin/../../lib/gcc/pic32c/8.3.1/../../../../pic32c/lib/thumb/v7e-m+fp/hard\libm-fast-emfloat.a(__aeabi_dcmplt.o)
 .ARM.attributes
                0x0000000000001fae       0x20 c:/program files/microchip/xc32/v4.60/bin/bin/../../lib/gcc/pic32c/8.3.1/../../../../pic32c/lib/thumb/v7e-m+fp/hard\libm-fast-emfloat.a(__aeabi_d2iz.o)
 .ARM.attributes
                0x0000000000001fce       0x20 c:/program files/microchip/xc32/v4.60/bin/bin/../../lib/gcc/pic32c/8.3.1/../../../../pic32c/lib/thumb/v7e-m+fp/hard\libm-fast-emfloat.a(__aeabi_d2uiz.o)
 .ARM.attributes
                0x0000000000001fee       0x20 c:/program files/microchip/xc32/v4.60/bin/bin/../../lib/gcc/pic32c/8.3.1/../../../../pic32c/lib/thumb/v7e-m+fp/hard\libm-fast-emfloat.a(__aeabi_i2d.o)
 .ARM.attributes
                0x000000000000200e       0x20 c:/program files/microchip/xc32/v4.60/bin/bin/../../lib/gcc/pic32c/8.3.1/../../../../pic32c/lib/thumb/v7e-m+fp/hard\libm-fast-emfloat.a(__aeabi_ui2d.o)
 .ARM.attributes
                0x000000000000202e       0x20 c:/program files/microchip/xc32/v4.60/bin/bin/../../lib/gcc/pic32c/8.3.1/../../../../pic32c/lib/thumb/v7e-m+fp/hard\libm-fast-emfloat.a(__aeabi_f2d.o)
 .ARM.attributes
                0x000000000000204e       0x20 c:/program files/microchip/xc32/v4.60/bin/bin/../../lib/gcc/pic32c/8.3.1/../../../../pic32c/lib/thumb/v7e-m+fp/hard\libm-fast-emfloat.a(__aeabi_d2f.o)
 .ARM.attributes
                0x000000000000206e       0x34 c:/program files/microchip/xc32/v4.60/bin/bin/../../lib/gcc/pic32c/8.3.1/../../../../pic32c/lib/thumb/v7e-m+fp/hard\libm-fast-emfloat.a(__SEGGER_RTL_float64_PolyEvalP.o)
 .ARM.attributes
                0x00000000000020a2       0x34 c:/program files/microchip/xc32/v4.60/bin/bin/../../lib/gcc/pic32c/8.3.1/../../../../pic32c/lib/thumb/v7e-m+fp/hard\libm-fast-emfloat.a(__SEGGER_RTL_float64_PolyEvalQ.o)
 .ARM.attributes
                0x00000000000020d6       0x34 c:/program files/microchip/xc32/v4.60/bin/bin/../../lib/gcc/pic32c/8.3.1/../../../../pic32c/lib/thumb/v7e-m+fp/hard\libm-fast-emfloat.a(ldexp.o)
 .ARM.attributes
                0x000000000000210a       0x34 c:/program files/microchip/xc32/v4.60/bin/bin/../../lib/gcc/pic32c/8.3.1/../../../../pic32c/lib/thumb/v7e-m+fp/hard\libm-fast-emfloat.a(frexp.o)
 .ARM.attributes
                0x000000000000213e       0x34 c:/program files/microchip/xc32/v4.60/bin/bin/../../lib/gcc/pic32c/8.3.1/../../../../pic32c/lib/thumb/v7e-m+fp/hard\libm-fast-emfloat.a(exp.o)
 .ARM.attributes
                0x0000000000002172       0x36 c:/program files/microchip/xc32/v4.60/bin/bin/../../lib/gcc/pic32c/8.3.1/../../../../pic32c/lib/thumb/v7e-m+fp/hard\libc-musl.a(isxdigit.o)
 .ARM.attributes
                0x00000000000021a8       0x36 c:/program files/microchip/xc32/v4.60/bin/bin/../../lib/gcc/pic32c/8.3.1/../../../../pic32c/lib/thumb/v7e-m+fp/hard\libc-musl.a(tolower.o)
 .ARM.attributes
                0x00000000000021de       0x36 c:/program files/microchip/xc32/v4.60/bin/bin/../../lib/gcc/pic32c/8.3.1/../../../../pic32c/lib/thumb/v7e-m+fp/hard\libc-musl.a(toupper.o)
 .ARM.attributes
                0x0000000000002214       0x36 c:/program files/microchip/xc32/v4.60/bin/bin/../../lib/gcc/pic32c/8.3.1/../../../../pic32c/lib/thumb/v7e-m+fp/hard\libc-musl.a(__libc_start_main.o)
 .ARM.attributes
                0x000000000000224a       0x34 c:/program files/microchip/xc32/v4.60/bin/bin/../../lib/gcc/pic32c/8.3.1/../../../../pic32c/lib/thumb/v7e-m+fp/hard\libc-musl.a(__errno_location.o)
 .ARM.attributes
                0x000000000000227e       0x34 c:/program files/microchip/xc32/v4.60/bin/bin/../../lib/gcc/pic32c/8.3.1/../../../../pic32c/lib/thumb/v7e-m+fp/hard\libc-musl.a(libc.o)
 .ARM.attributes
                0x00000000000022b2       0x36 c:/program files/microchip/xc32/v4.60/bin/bin/../../lib/gcc/pic32c/8.3.1/../../../../pic32c/lib/thumb/v7e-m+fp/hard\libc-musl.a(expand_heap.o)
 .ARM.attributes
                0x00000000000022e8       0x36 c:/program files/microchip/xc32/v4.60/bin/bin/../../lib/gcc/pic32c/8.3.1/../../../../pic32c/lib/thumb/v7e-m+fp/hard\libc-musl.a(rand.o)
 .ARM.attributes
                0x000000000000231e       0x36 c:/program files/microchip/xc32/v4.60/bin/bin/../../lib/gcc/pic32c/8.3.1/../../../../pic32c/lib/thumb/v7e-m+fp/hard\libc-musl.a(vsnprintf.o)
 .ARM.attributes
                0x0000000000002354       0x36 c:/program files/microchip/xc32/v4.60/bin/bin/../../lib/gcc/pic32c/8.3.1/../../../../pic32c/lib/thumb/v7e-m+fp/hard\libc-musl.a(snprintf.o)
 .ARM.attributes
                0x000000000000238a       0x36 c:/program files/microchip/xc32/v4.60/bin/bin/../../lib/gcc/pic32c/8.3.1/../../../../pic32c/lib/thumb/v7e-m+fp/hard\libc-musl.a(sprintf.o)
 .ARM.attributes
                0x00000000000023c0       0x36 c:/program files/microchip/xc32/v4.60/bin/bin/../../lib/gcc/pic32c/8.3.1/../../../../pic32c/lib/thumb/v7e-m+fp/hard\libc-musl.a(vsprintf.o)
 .ARM.attributes
                0x00000000000023f6       0x36 c:/program files/microchip/xc32/v4.60/bin/bin/../../lib/gcc/pic32c/8.3.1/../../../../pic32c/lib/thumb/v7e-m+fp/hard\libc-musl.a(strtol.o)
 .ARM.attributes
                0x000000000000242c       0x34 c:/program files/microchip/xc32/v4.60/bin/bin/../../lib/gcc/pic32c/8.3.1/../../../../pic32c/lib/thumb/v7e-m+fp/hard\libc-musl.a(__environ.o)
 .ARM.attributes
                0x0000000000002460       0x36 c:/program files/microchip/xc32/v4.60/bin/bin/../../lib/gcc/pic32c/8.3.1/../../../../pic32c/lib/thumb/v7e-m+fp/hard\libc-musl.a(intscan.o)
 .ARM.attributes
                0x0000000000002496       0x36 c:/program files/microchip/xc32/v4.60/bin/bin/../../lib/gcc/pic32c/8.3.1/../../../../pic32c/lib/thumb/v7e-m+fp/hard\libc-musl.a(shgetc.o)
 .ARM.attributes
                0x00000000000024cc       0x36 c:/program files/microchip/xc32/v4.60/bin/bin/../../lib/gcc/pic32c/8.3.1/../../../../pic32c/lib/thumb/v7e-m+fp/hard\libc-musl.a(__uflow.o)
 .ARM.attributes
                0x0000000000002502       0x36 c:/program files/microchip/xc32/v4.60/bin/bin/../../lib/gcc/pic32c/8.3.1/../../../../pic32c/lib/thumb/v7e-m+fp/hard\libc-musl.a(vfprintf.o)
 .ARM.attributes
                0x0000000000002538       0x36 c:/program files/microchip/xc32/v4.60/bin/bin/../../lib/gcc/pic32c/8.3.1/../../../../pic32c/lib/thumb/v7e-m+fp/hard\libc-musl.a(__toread.o)
 .ARM.attributes
                0x000000000000256e       0x36 c:/program files/microchip/xc32/v4.60/bin/bin/../../lib/gcc/pic32c/8.3.1/../../../../pic32c/lib/thumb/v7e-m+fp/hard\libc-musl.a(__pop_float.o)
 .ARM.attributes
                0x00000000000025a4       0x36 c:/program files/microchip/xc32/v4.60/bin/bin/../../lib/gcc/pic32c/8.3.1/../../../../pic32c/lib/thumb/v7e-m+fp/hard\libc-musl.a(__pop_int.o)
 .ARM.attributes
                0x00000000000025da       0x36 c:/program files/microchip/xc32/v4.60/bin/bin/../../lib/gcc/pic32c/8.3.1/../../../../pic32c/lib/thumb/v7e-m+fp/hard\libc-musl.a(__pop_ptr.o)
 .ARM.attributes
                0x0000000000002610       0x36 c:/program files/microchip/xc32/v4.60/bin/bin/../../lib/gcc/pic32c/8.3.1/../../../../pic32c/lib/thumb/v7e-m+fp/hard\libc-musl.a(__printf_core.o)
 .ARM.attributes
                0x0000000000002646       0x36 c:/program files/microchip/xc32/v4.60/bin/bin/../../lib/gcc/pic32c/8.3.1/../../../../pic32c/lib/thumb/v7e-m+fp/hard\libc-musl.a(atoi.o)
 .ARM.attributes
                0x000000000000267c       0x36 c:/program files/microchip/xc32/v4.60/bin/bin/../../lib/gcc/pic32c/8.3.1/../../../../pic32c/lib/thumb/v7e-m+fp/hard\libc-musl.a(__fmt_a.o)
 .ARM.attributes
                0x00000000000026b2       0x36 c:/program files/microchip/xc32/v4.60/bin/bin/../../lib/gcc/pic32c/8.3.1/../../../../pic32c/lib/thumb/v7e-m+fp/hard\libc-musl.a(__fmt_d.o)
 .ARM.attributes
                0x00000000000026e8       0x36 c:/program files/microchip/xc32/v4.60/bin/bin/../../lib/gcc/pic32c/8.3.1/../../../../pic32c/lib/thumb/v7e-m+fp/hard\libc-musl.a(__fmt_fp.o)
 .ARM.attributes
                0x000000000000271e       0x36 c:/program files/microchip/xc32/v4.60/bin/bin/../../lib/gcc/pic32c/8.3.1/../../../../pic32c/lib/thumb/v7e-m+fp/hard\libc-musl.a(__fmt_o.o)
 .ARM.attributes
                0x0000000000002754       0x36 c:/program files/microchip/xc32/v4.60/bin/bin/../../lib/gcc/pic32c/8.3.1/../../../../pic32c/lib/thumb/v7e-m+fp/hard\libc-musl.a(__fmt_s.o)
 .ARM.attributes
                0x000000000000278a       0x36 c:/program files/microchip/xc32/v4.60/bin/bin/../../lib/gcc/pic32c/8.3.1/../../../../pic32c/lib/thumb/v7e-m+fp/hard\libc-musl.a(__fmt_u.o)
 .ARM.attributes
                0x00000000000027c0       0x36 c:/program files/microchip/xc32/v4.60/bin/bin/../../lib/gcc/pic32c/8.3.1/../../../../pic32c/lib/thumb/v7e-m+fp/hard\libc-musl.a(__fmt_x.o)
 .ARM.attributes
                0x00000000000027f6       0x36 c:/program files/microchip/xc32/v4.60/bin/bin/../../lib/gcc/pic32c/8.3.1/../../../../pic32c/lib/thumb/v7e-m+fp/hard\libc-musl.a(__cvt_u.o)
 .ARM.attributes
                0x000000000000282c       0x34 c:/program files/microchip/xc32/v4.60/bin/bin/../../lib/gcc/pic32c/8.3.1/../../../../pic32c/lib/thumb/v7e-m+fp/hard\libm-fast-emfloat.a(fma.o)
 .ARM.attributes
                0x0000000000002860       0x34 c:/program files/microchip/xc32/v4.60/bin/bin/../../lib/gcc/pic32c/8.3.1/../../../../pic32c/lib/thumb/v7e-m+fp/hard\libm-fast-emfloat.a(floor.o)
 .ARM.attributes
                0x0000000000002894       0x20 c:/program files/microchip/xc32/v4.60/bin/bin/../../lib/gcc/pic32c/8.3.1/../../../../pic32c/lib/thumb/v7e-m+fp/hard\libm-fast-emfloat.a(__aeabi_dcmple.o)
 .ARM.attributes
                0x00000000000028b4       0x1e c:/program files/microchip/xc32/v4.60/bin/bin/../../lib/gcc/pic32c/8.3.1/thumb/v7e-m+fp/hard\libgcc.a(_aeabi_uldivmod.o)
 .ARM.attributes
                0x00000000000028d2       0x34 c:/program files/microchip/xc32/v4.60/bin/bin/../../lib/gcc/pic32c/8.3.1/thumb/v7e-m+fp/hard\libgcc.a(_udivmoddi4.o)
 .ARM.attributes
                0x0000000000002906       0x1e c:/program files/microchip/xc32/v4.60/bin/bin/../../lib/gcc/pic32c/8.3.1/thumb/v7e-m+fp/hard\libgcc.a(_dvmd_tls.o)
 .ARM.attributes
                0x0000000000002924       0x34 c:/program files/microchip/xc32/v4.60/bin/bin/../../lib/gcc/pic32c/8.3.1/../../../../pic32c/lib/thumb/v7e-m+fp/hard\libpic32c.a(sbrk.o)
 .ARM.attributes
                0x0000000000002958       0x36 c:/program files/microchip/xc32/v4.60/bin/bin/../../lib/gcc/pic32c/8.3.1/../../../../pic32c/lib/thumb/v7e-m+fp/hard\libc-size-musl.a(strcpy.o)
 .ARM.attributes
                0x000000000000298e       0x36 c:/program files/microchip/xc32/v4.60/bin/bin/../../lib/gcc/pic32c/8.3.1/../../../../pic32c/lib/thumb/v7e-m+fp/hard\libc-size-musl.a(stpcpy.o)
 .ARM.attributes
                0x00000000000029c4       0x1e c:/program files/microchip/xc32/v4.60/bin/bin/../../lib/gcc/pic32c/8.3.1/thumb/v7e-m+fp/hard/crtn.o
 .ARM.attributes
                0x00000000000029e2       0x34 c:/program files/microchip/xc32/v4.60/bin/bin/../../lib/gcc/pic32c/8.3.1/../../../../pic32c/lib/thumb/v7e-m+fp/hard\libpic32c.a(pic32_data_init_clear.o)
 .ARM.attributes
                0x0000000000002a16       0x34 c:/program files/microchip/xc32/v4.60/bin/bin/../../lib/gcc/pic32c/8.3.1/../../../../pic32c/lib/thumb/v7e-m+fp/hard\libpic32c.a(pic32_data_init_copy.o)

.comment        0x0000000000000000       0xd4
 .comment       0x0000000000000000       0x2b c:/program files/microchip/xc32/v4.60/bin/bin/../../lib/gcc/pic32c/8.3.1/thumb/v7e-m+fp/hard/crtbegin.o
                                         0x2c (size before relaxing)
 .comment       0x000000000000002b       0x2c build/default/production/_ext/1434821282/bsp.o
 .comment       0x000000000000002b       0x2c build/default/production/_ext/1726652707/MCHP_Crypto_Aead_WolfCryptWrapper.o
 .comment       0x000000000000002b       0x2c build/default/production/_ext/1726652707/MCHP_Crypto_Mac_WolfCryptWrapper.o
 .comment       0x000000000000002b       0x2c build/default/production/_ext/1726652707/MCHP_Crypto_Sym_WolfcryptWrapper.o
 .comment       0x000000000000002b       0x2c build/default/production/_ext/1726652707/MCHP_Crypto_Aead_Cipher.o
 .comment       0x000000000000002b       0x2c build/default/production/_ext/1726652707/MCHP_Crypto_Mac_Cipher.o
 .comment       0x000000000000002b       0x2c build/default/production/_ext/1726652707/MCHP_Crypto_Sym_Cipher.o
 .comment       0x000000000000002b       0x2c build/default/production/_ext/745501718/pal.o
 .comment       0x000000000000002b       0x2c build/default/production/_ext/957911548/phy_ed_end_cb.o
 .comment       0x000000000000002b       0x2c build/default/production/_ext/957911548/phy_task.o
 .comment       0x000000000000002b       0x2c build/default/production/_ext/957911548/phy_rx_frame_cb.o
 .comment       0x000000000000002b       0x2c build/default/production/_ext/1374435801/bmm.o
 .comment       0x000000000000002b       0x2c build/default/production/_ext/874725666/qmm.o
 .comment       0x000000000000002b       0x2c build/default/production/_ext/1014741959/drv_plc_boot.o
 .comment       0x000000000000002b       0x2c build/default/production/_ext/1014741959/drv_plc_hal.o
 .comment       0x000000000000002b       0x2c build/default/production/_ext/410113559/drv_g3_macrt_local_comm.o
 .comment       0x000000000000002b       0x2c build/default/production/_ext/410113559/drv_g3_macrt.o
 .comment       0x000000000000002b       0x2c build/default/production/_ext/1033058136/helpers.o
 .comment       0x000000000000002b       0x2c build/default/production/_ext/1033058136/tcpip_notify.o
 .comment       0x000000000000002b       0x2c build/default/production/_ext/1033058136/ndp.o
 .comment       0x000000000000002b       0x2c build/default/production/_ext/1033058136/udp.o
 .comment       0x000000000000002b       0x2c build/default/production/_ext/1033058136/tcpip_packet.o
 .comment       0x000000000000002b       0x2c build/default/production/_ext/1033058136/ipv6.o
 .comment       0x000000000000002b       0x2c build/default/production/_ext/1033058136/icmpv6.o
 .comment       0x000000000000002b       0x2c build/default/production/_ext/1033058136/tcpip_manager.o
 .comment       0x000000000000002b       0x2c build/default/production/_ext/1033058136/tcpip_helpers.o
 .comment       0x000000000000002b       0x2c build/default/production/_ext/1033058136/tcpip_heap_alloc.o
 .comment       0x000000000000002b       0x2c build/default/production/_ext/1033058136/tcpip_heap_internal.o
 .comment       0x000000000000002b       0x2c build/default/production/_ext/1529399856/osal_freertos.o
 .comment       0x000000000000002b       0x2c build/default/production/_ext/1529399856/osal_freertos_extend.o
 .comment       0x000000000000002b       0x2c build/default/production/_ext/60165520/plib_clk.o
 .comment       0x000000000000002b       0x2c build/default/production/_ext/1865161661/plib_dmac.o
 .comment       0x000000000000002b       0x2c build/default/production/_ext/60167341/plib_eic.o
 .comment       0x000000000000002b       0x2c build/default/production/_ext/1986646378/plib_evsys.o
 .comment       0x000000000000002b       0x2c build/default/production/_ext/1865254177/plib_gpio.o
 .comment       0x000000000000002b       0x2c build/default/production/_ext/1865468468/plib_nvic.o
 .comment       0x000000000000002b       0x2c build/default/production/_ext/60176403/plib_nvm.o
 .comment       0x000000000000002b       0x2c build/default/production/_ext/17022449/plib_sercom2_spi_master.o
 .comment       0x000000000000002b       0x2c build/default/production/_ext/504274921/plib_sercom1_usart.o
 .comment       0x000000000000002b       0x2c build/default/production/_ext/829342655/plib_tc0.o
 .comment       0x000000000000002b       0x2c build/default/production/_ext/1865643529/plib_trng.o
 .comment       0x000000000000002b       0x2c build/default/production/_ext/60184501/plib_wdt.o
 .comment       0x000000000000002b       0x2c build/default/production/_ext/2064362748/srv_pcoup.o
 .comment       0x000000000000002b       0x2c build/default/production/_ext/2065812886/srv_queue.o
 .comment       0x000000000000002b       0x2c build/default/production/_ext/373899042/srv_random.o
 .comment       0x000000000000002b       0x2c build/default/production/_ext/2135967589/cipher_wrapper.o
 .comment       0x000000000000002b       0x2c build/default/production/_ext/2135967589/aes_wrapper.o
 .comment       0x000000000000002b       0x2c build/default/production/_ext/1534551086/lbp_encode_decode.o
 .comment       0x000000000000002b       0x2c build/default/production/_ext/1534551086/lbp_dev.o
 .comment       0x000000000000002b       0x2c build/default/production/_ext/1534551086/routing_wrapper.o
 .comment       0x000000000000002b       0x2c build/default/production/_ext/1534551086/eap_psk.o
 .comment       0x000000000000002b       0x2c build/default/production/_ext/1632721610/mac_common.o
 .comment       0x000000000000002b       0x2c build/default/production/_ext/1570337448/mac_wrapper.o
 .comment       0x000000000000002b       0x2c build/default/production/_ext/710515956/drv_mac_g3adp.o
 .comment       0x000000000000002b       0x2c build/default/production/_ext/977769160/pal_plc.o
 .comment       0x000000000000002b       0x2c build/default/production/_ext/1278466877/pal_rf.o
 .comment       0x000000000000002b       0x2c build/default/production/_ext/1832805299/sys_console_uart.o
 .comment       0x000000000000002b       0x2c build/default/production/_ext/1832805299/sys_console.o
 .comment       0x000000000000002b       0x2c build/default/production/_ext/944882569/sys_debug.o
 .comment       0x000000000000002b       0x2c build/default/production/_ext/14461671/sys_dma.o
 .comment       0x000000000000002b       0x2c build/default/production/_ext/1881668453/sys_int.o
 .comment       0x000000000000002b       0x2c build/default/production/_ext/101884895/sys_time.o
 .comment       0x000000000000002b       0x2c build/default/production/_ext/753841488/sys_time_h2_adapter.o
 .comment       0x000000000000002b       0x2c build/default/production/_ext/1171490990/tasks.o
 .comment       0x000000000000002b       0x2c build/default/production/_ext/1171490990/interrupts.o
 .comment       0x000000000000002b       0x2c build/default/production/_ext/1171490990/exceptions.o
 .comment       0x000000000000002b       0x2c build/default/production/_ext/1171490990/initialization.o
 .comment       0x000000000000002b       0x2c build/default/production/_ext/1171490990/startup_xc32.o
 .comment       0x000000000000002b       0x2c build/default/production/_ext/1171490990/freertos_hooks.o
 .comment       0x000000000000002b       0x2c build/default/production/_ext/246609638/port.o
 .comment       0x000000000000002b       0x2c build/default/production/_ext/1665200909/heap_4.o
 .comment       0x000000000000002b       0x2c build/default/production/_ext/404212886/list.o
 .comment       0x000000000000002b       0x2c build/default/production/_ext/404212886/FreeRTOS_tasks.o
 .comment       0x000000000000002b       0x2c build/default/production/_ext/404212886/queue.o
 .comment       0x000000000000002b       0x2c build/default/production/_ext/1716827871/cmac.o
 .comment       0x000000000000002b       0x2c build/default/production/_ext/1716827871/sha256.o
 .comment       0x000000000000002b       0x2c build/default/production/_ext/1716827871/random.o
 .comment       0x000000000000002b       0x2c build/default/production/_ext/1716827871/aes.o
 .comment       0x000000000000002b       0x2c build/default/production/_ext/1664057780/misc.o
 .comment       0x000000000000002b       0x2c build/default/production/_ext/1360937237/app_storage_wbz451h.o
 .comment       0x000000000000002b       0x2c build/default/production/_ext/1360937237/app_idle_task.o
 .comment       0x000000000000002b       0x2c build/default/production/_ext/1360937237/app_udp_responder.o
 .comment       0x000000000000002b       0x2c build/default/production/_ext/1360937237/app_tcpip_management.o
 .comment       0x000000000000002b       0x2c build/default/production/_ext/1360937237/app_g3_management.o
 .comment       0x000000000000002b       0x2c build/default/production/_ext/1360937237/main.o
 .comment       0x000000000000002b       0x2c build/default/production/_ext/1360937237/app_matrix_led.o
 .comment       0x000000000000002b       0x2b ../src/config/default/stack/g3/mac/mac_plc/g3_lib_mac_plc.a(MacLow.o)
                                         0x2c (size before relaxing)
 .comment       0x0000000000000056       0x2c ../src/config/default/stack/g3/mac/mac_plc/g3_lib_mac_plc.a(MacMib.o)
 .comment       0x0000000000000056       0x2c ../src/config/default/stack/g3/mac/mac_plc/g3_lib_mac_plc.a(MacSublayer.o)
 .comment       0x0000000000000056       0x2c ../src/config/default/stack/g3/mac/mac_plc/g3_lib_mac_plc.a(MacConstants.o)
 .comment       0x0000000000000056       0x2c ../src/config/default/stack/g3/adaptation/g3_lib_adp.a(Adp.o)
 .comment       0x0000000000000056       0x2c ../src/config/default/stack/g3/adaptation/g3_lib_adp.a(AdpCommon.o)
 .comment       0x0000000000000056       0x2c ../src/config/default/stack/g3/adaptation/g3_lib_adp.a(AdpData.o)
 .comment       0x0000000000000056       0x2c ../src/config/default/stack/g3/adaptation/g3_lib_adp.a(AdpDiscovery.o)
 .comment       0x0000000000000056       0x2c ../src/config/default/stack/g3/adaptation/g3_lib_adp.a(AdpGetSet.o)
 .comment       0x0000000000000056       0x2c ../src/config/default/stack/g3/adaptation/g3_lib_adp.a(AdpLbp.o)
 .comment       0x0000000000000056       0x2c ../src/config/default/stack/g3/adaptation/g3_lib_adp.a(AdpMacInterface.o)
 .comment       0x0000000000000056       0x2c ../src/config/default/stack/g3/adaptation/g3_lib_adp.a(AdpNetwork.o)
 .comment       0x0000000000000056       0x2c ../src/config/default/stack/g3/adaptation/g3_lib_adp.a(AdpReset.o)
 .comment       0x0000000000000056       0x2c ../src/config/default/stack/g3/adaptation/g3_lib_adp.a(AdpRouteDiscovery.o)
 .comment       0x0000000000000056       0x2c ../src/config/default/stack/g3/adaptation/g3_lib_adp.a(Proto6Lowpan.o)
 .comment       0x0000000000000056       0x2c ../src/config/default/stack/g3/adaptation/g3_lib_adp.a(ProtoRFC6282.o)
 .comment       0x0000000000000056       0x2c ../src/config/default/driver/lib/lib-ieee802154_phy_pic32cxbz-v1.2.0.a(phy.o)
 .comment       0x0000000000000056       0x2c ../src/config/default/driver/lib/lib-ieee802154_phy_pic32cxbz-v1.2.0.a(phy_ed.o)
 .comment       0x0000000000000056       0x2c ../src/config/default/driver/lib/lib-ieee802154_phy_pic32cxbz-v1.2.0.a(phy_helper.o)
 .comment       0x0000000000000056       0x2c ../src/config/default/driver/lib/lib-ieee802154_phy_pic32cxbz-v1.2.0.a(phy_init.o)
 .comment       0x0000000000000056       0x2c ../src/config/default/driver/lib/lib-ieee802154_phy_pic32cxbz-v1.2.0.a(phy_irq_handler.o)
 .comment       0x0000000000000056       0x2c ../src/config/default/driver/lib/lib-ieee802154_phy_pic32cxbz-v1.2.0.a(phy_pib.o)
 .comment       0x0000000000000056       0x2c ../src/config/default/driver/lib/lib-ieee802154_phy_pic32cxbz-v1.2.0.a(phy_pwr_mgmt.o)
 .comment       0x0000000000000056       0x2c ../src/config/default/driver/lib/lib-ieee802154_phy_pic32cxbz-v1.2.0.a(phy_rx.o)
 .comment       0x0000000000000056       0x2c ../src/config/default/driver/lib/lib-ieee802154_phy_pic32cxbz-v1.2.0.a(phy_rx_enable.o)
 .comment       0x0000000000000056       0x2c ../src/config/default/driver/lib/lib-ieee802154_phy_pic32cxbz-v1.2.0.a(phy_tx.o)
 .comment       0x0000000000000056       0x2c ../src/config/default/driver/lib/lib-ieee802154_phy_pic32cxbz-v1.2.0.a(tfa.o)
 .comment       0x0000000000000056       0x2c ../src/config/default/driver/lib/lib-ieee802154_phy_pic32cxbz-v1.2.0.a(phy_frame_handling.o)
 .comment       0x0000000000000056       0x2c ../src/config/default/stack/g3/adaptation/g3_lib_loadng.a(ProtoLoadNg.o)
 .comment       0x0000000000000056       0x2c ../src/config/default/stack/g3/adaptation/g3_lib_loadng.a(ProtoLoadNg_GetSet.o)
 .comment       0x0000000000000056       0x2c ../src/config/default/stack/g3/adaptation/g3_lib_loadng.a(ProtoLoadNg_RouteCost.o)
 .comment       0x0000000000000056       0x2c ../src/config/default/stack/g3/adaptation/g3_lib_loadng.a(ProtoLoadNg_RouteCost_CapacityMetric.o)
 .comment       0x0000000000000056       0x2c ../src/config/default/stack/g3/adaptation/g3_lib_loadng.a(ProtoLoadNg_RouteCost_CompositeMetric.o)
 .comment       0x0000000000000056       0x2c ../src/config/default/stack/g3/adaptation/g3_lib_loadng.a(ProtoLoadNg_RouteCost_HopCount.o)
 .comment       0x0000000000000056       0x2c ../src/config/default/stack/g3/mac/mac_rf/g3_lib_mac_rf.a(MacRfLow.o)
 .comment       0x0000000000000056       0x2c ../src/config/default/stack/g3/mac/mac_rf/g3_lib_mac_rf.a(MacRfMib.o)
 .comment       0x0000000000000056       0x2c ../src/config/default/stack/g3/mac/mac_rf/g3_lib_mac_rf.a(MacRfSublayer.o)
 .comment       0x0000000000000056       0x53 ../src/config/default/driver/pds/pds.a(wlPdsDataServer.o)
                                         0x54 (size before relaxing)
 .comment       0x00000000000000a9       0x54 ../src/config/default/driver/pds/pds.a(wlPdsInit.o)
 .comment       0x00000000000000a9       0x54 ../src/config/default/driver/pds/pds.a(D_Nv.o)
 .comment       0x00000000000000a9       0x54 ../src/config/default/driver/pds/pds.a(S_Nv-Chimera.o)
 .comment       0x00000000000000a9       0x2b ../src/config/default/driver/device_support/pic32cx_bz2_device_support.a(info_block.o)
                                         0x2c (size before relaxing)
 .comment       0x00000000000000d4       0x2c ../src/config/default/driver/device_support/pic32cx_bz2_device_support.a(rf_system.o)
 .comment       0x00000000000000d4       0x2c ../src/config/default/driver/device_support/pic32cx_bz2_device_support.a(info_block_plat.o)
 .comment       0x00000000000000d4       0x2c ../src/config/default/driver/device_support/pic32cx_bz2_device_support.a(pmu_dvr.o)
 .comment       0x00000000000000d4       0x2c ../src/config/default/driver/device_support/pic32cx_bz2_device_support.a(rf.o)
 .comment       0x00000000000000d4       0x2c c:/program files/microchip/xc32/v4.60/bin/bin/../../lib/gcc/pic32c/8.3.1/../../../../pic32c/lib/thumb/v7e-m+fp/hard\libpic32c.a(data_init.o)
 .comment       0x00000000000000d4       0x2c c:/program files/microchip/xc32/v4.60/bin/bin/../../lib/gcc/pic32c/8.3.1/../../../../pic32c/lib/thumb/v7e-m+fp/hard\libc-size-musl.a(memcmp.o)
 .comment       0x00000000000000d4       0x2c c:/program files/microchip/xc32/v4.60/bin/bin/../../lib/gcc/pic32c/8.3.1/../../../../pic32c/lib/thumb/v7e-m+fp/hard\libc-size-musl.a(memcpy.o)
 .comment       0x00000000000000d4       0x2c c:/program files/microchip/xc32/v4.60/bin/bin/../../lib/gcc/pic32c/8.3.1/../../../../pic32c/lib/thumb/v7e-m+fp/hard\libc-size-musl.a(memmove.o)
 .comment       0x00000000000000d4       0x2c c:/program files/microchip/xc32/v4.60/bin/bin/../../lib/gcc/pic32c/8.3.1/../../../../pic32c/lib/thumb/v7e-m+fp/hard\libc-size-musl.a(memset.o)
 .comment       0x00000000000000d4       0x2c c:/program files/microchip/xc32/v4.60/bin/bin/../../lib/gcc/pic32c/8.3.1/../../../../pic32c/lib/thumb/v7e-m+fp/hard\libc-size-musl.a(strlen.o)
 .comment       0x00000000000000d4       0x2c c:/program files/microchip/xc32/v4.60/bin/bin/../../lib/gcc/pic32c/8.3.1/../../../../pic32c/lib/thumb/v7e-m+fp/hard\libc-size-musl.a(strcmp.o)
 .comment       0x00000000000000d4       0x2c c:/program files/microchip/xc32/v4.60/bin/bin/../../lib/gcc/pic32c/8.3.1/../../../../pic32c/lib/thumb/v7e-m+fp/hard\libc-size-musl.a(strncpy.o)
 .comment       0x00000000000000d4       0x2c c:/program files/microchip/xc32/v4.60/bin/bin/../../lib/gcc/pic32c/8.3.1/../../../../pic32c/lib/thumb/v7e-m+fp/hard\libc-size-musl.a(strrchr.o)
 .comment       0x00000000000000d4       0x2c c:/program files/microchip/xc32/v4.60/bin/bin/../../lib/gcc/pic32c/8.3.1/../../../../pic32c/lib/thumb/v7e-m+fp/hard\libc-size-musl.a(memrchr.o)
 .comment       0x00000000000000d4       0x2c c:/program files/microchip/xc32/v4.60/bin/bin/../../lib/gcc/pic32c/8.3.1/../../../../pic32c/lib/thumb/v7e-m+fp/hard\libc-size-musl.a(stpncpy.o)
 .comment       0x00000000000000d4       0x2c c:/program files/microchip/xc32/v4.60/bin/bin/../../lib/gcc/pic32c/8.3.1/../../../../pic32c/lib/thumb/v7e-m+fp/hard\liblmalloc-musl.a(lite_free.o)
 .comment       0x00000000000000d4       0x2c c:/program files/microchip/xc32/v4.60/bin/bin/../../lib/gcc/pic32c/8.3.1/../../../../pic32c/lib/thumb/v7e-m+fp/hard\liblmalloc-musl.a(lite_malloc.o)
 .comment       0x00000000000000d4       0x2c c:/program files/microchip/xc32/v4.60/bin/bin/../../lib/gcc/pic32c/8.3.1/../../../../pic32c/lib/thumb/v7e-m+fp/hard\libm-fast-emfloat.a(round.o)
 .comment       0x00000000000000d4       0x2c c:/program files/microchip/xc32/v4.60/bin/bin/../../lib/gcc/pic32c/8.3.1/../../../../pic32c/lib/thumb/v7e-m+fp/hard\libm-fast-emfloat.a(log.o)
 .comment       0x00000000000000d4       0x2c c:/program files/microchip/xc32/v4.60/bin/bin/../../lib/gcc/pic32c/8.3.1/../../../../pic32c/lib/thumb/v7e-m+fp/hard\libm-fast-emfloat.a(pow.o)
 .comment       0x00000000000000d4       0x2c c:/program files/microchip/xc32/v4.60/bin/bin/../../lib/gcc/pic32c/8.3.1/../../../../pic32c/lib/thumb/v7e-m+fp/hard\libm-fast-emfloat.a(__SEGGER_RTL_float64_Log.o)
 .comment       0x00000000000000d4       0x2c c:/program files/microchip/xc32/v4.60/bin/bin/../../lib/gcc/pic32c/8.3.1/../../../../pic32c/lib/thumb/v7e-m+fp/hard\libm-fast-emfloat.a(__SEGGER_RTL_float64_PolyEvalP.o)
 .comment       0x00000000000000d4       0x2c c:/program files/microchip/xc32/v4.60/bin/bin/../../lib/gcc/pic32c/8.3.1/../../../../pic32c/lib/thumb/v7e-m+fp/hard\libm-fast-emfloat.a(__SEGGER_RTL_float64_PolyEvalQ.o)
 .comment       0x00000000000000d4       0x2c c:/program files/microchip/xc32/v4.60/bin/bin/../../lib/gcc/pic32c/8.3.1/../../../../pic32c/lib/thumb/v7e-m+fp/hard\libm-fast-emfloat.a(ldexp.o)
 .comment       0x00000000000000d4       0x2c c:/program files/microchip/xc32/v4.60/bin/bin/../../lib/gcc/pic32c/8.3.1/../../../../pic32c/lib/thumb/v7e-m+fp/hard\libm-fast-emfloat.a(frexp.o)
 .comment       0x00000000000000d4       0x2c c:/program files/microchip/xc32/v4.60/bin/bin/../../lib/gcc/pic32c/8.3.1/../../../../pic32c/lib/thumb/v7e-m+fp/hard\libm-fast-emfloat.a(exp.o)
 .comment       0x00000000000000d4       0x2c c:/program files/microchip/xc32/v4.60/bin/bin/../../lib/gcc/pic32c/8.3.1/../../../../pic32c/lib/thumb/v7e-m+fp/hard\libc-musl.a(isxdigit.o)
 .comment       0x00000000000000d4       0x2c c:/program files/microchip/xc32/v4.60/bin/bin/../../lib/gcc/pic32c/8.3.1/../../../../pic32c/lib/thumb/v7e-m+fp/hard\libc-musl.a(tolower.o)
 .comment       0x00000000000000d4       0x2c c:/program files/microchip/xc32/v4.60/bin/bin/../../lib/gcc/pic32c/8.3.1/../../../../pic32c/lib/thumb/v7e-m+fp/hard\libc-musl.a(toupper.o)
 .comment       0x00000000000000d4       0x2c c:/program files/microchip/xc32/v4.60/bin/bin/../../lib/gcc/pic32c/8.3.1/../../../../pic32c/lib/thumb/v7e-m+fp/hard\libc-musl.a(__libc_start_main.o)
 .comment       0x00000000000000d4       0x2c c:/program files/microchip/xc32/v4.60/bin/bin/../../lib/gcc/pic32c/8.3.1/../../../../pic32c/lib/thumb/v7e-m+fp/hard\libc-musl.a(__errno_location.o)
 .comment       0x00000000000000d4       0x2c c:/program files/microchip/xc32/v4.60/bin/bin/../../lib/gcc/pic32c/8.3.1/../../../../pic32c/lib/thumb/v7e-m+fp/hard\libc-musl.a(libc.o)
 .comment       0x00000000000000d4       0x2c c:/program files/microchip/xc32/v4.60/bin/bin/../../lib/gcc/pic32c/8.3.1/../../../../pic32c/lib/thumb/v7e-m+fp/hard\libc-musl.a(expand_heap.o)
 .comment       0x00000000000000d4       0x2c c:/program files/microchip/xc32/v4.60/bin/bin/../../lib/gcc/pic32c/8.3.1/../../../../pic32c/lib/thumb/v7e-m+fp/hard\libc-musl.a(rand.o)
 .comment       0x00000000000000d4       0x2c c:/program files/microchip/xc32/v4.60/bin/bin/../../lib/gcc/pic32c/8.3.1/../../../../pic32c/lib/thumb/v7e-m+fp/hard\libc-musl.a(vsnprintf.o)
 .comment       0x00000000000000d4       0x2c c:/program files/microchip/xc32/v4.60/bin/bin/../../lib/gcc/pic32c/8.3.1/../../../../pic32c/lib/thumb/v7e-m+fp/hard\libc-musl.a(snprintf.o)
 .comment       0x00000000000000d4       0x2c c:/program files/microchip/xc32/v4.60/bin/bin/../../lib/gcc/pic32c/8.3.1/../../../../pic32c/lib/thumb/v7e-m+fp/hard\libc-musl.a(sprintf.o)
 .comment       0x00000000000000d4       0x2c c:/program files/microchip/xc32/v4.60/bin/bin/../../lib/gcc/pic32c/8.3.1/../../../../pic32c/lib/thumb/v7e-m+fp/hard\libc-musl.a(vsprintf.o)
 .comment       0x00000000000000d4       0x2c c:/program files/microchip/xc32/v4.60/bin/bin/../../lib/gcc/pic32c/8.3.1/../../../../pic32c/lib/thumb/v7e-m+fp/hard\libc-musl.a(strtol.o)
 .comment       0x00000000000000d4       0x2c c:/program files/microchip/xc32/v4.60/bin/bin/../../lib/gcc/pic32c/8.3.1/../../../../pic32c/lib/thumb/v7e-m+fp/hard\libc-musl.a(__environ.o)
 .comment       0x00000000000000d4       0x2c c:/program files/microchip/xc32/v4.60/bin/bin/../../lib/gcc/pic32c/8.3.1/../../../../pic32c/lib/thumb/v7e-m+fp/hard\libc-musl.a(intscan.o)
 .comment       0x00000000000000d4       0x2c c:/program files/microchip/xc32/v4.60/bin/bin/../../lib/gcc/pic32c/8.3.1/../../../../pic32c/lib/thumb/v7e-m+fp/hard\libc-musl.a(shgetc.o)
 .comment       0x00000000000000d4       0x2c c:/program files/microchip/xc32/v4.60/bin/bin/../../lib/gcc/pic32c/8.3.1/../../../../pic32c/lib/thumb/v7e-m+fp/hard\libc-musl.a(__uflow.o)
 .comment       0x00000000000000d4       0x2c c:/program files/microchip/xc32/v4.60/bin/bin/../../lib/gcc/pic32c/8.3.1/../../../../pic32c/lib/thumb/v7e-m+fp/hard\libc-musl.a(vfprintf.o)
 .comment       0x00000000000000d4       0x2c c:/program files/microchip/xc32/v4.60/bin/bin/../../lib/gcc/pic32c/8.3.1/../../../../pic32c/lib/thumb/v7e-m+fp/hard\libc-musl.a(__toread.o)
 .comment       0x00000000000000d4       0x2c c:/program files/microchip/xc32/v4.60/bin/bin/../../lib/gcc/pic32c/8.3.1/../../../../pic32c/lib/thumb/v7e-m+fp/hard\libc-musl.a(__pop_float.o)
 .comment       0x00000000000000d4       0x2c c:/program files/microchip/xc32/v4.60/bin/bin/../../lib/gcc/pic32c/8.3.1/../../../../pic32c/lib/thumb/v7e-m+fp/hard\libc-musl.a(__pop_int.o)
 .comment       0x00000000000000d4       0x2c c:/program files/microchip/xc32/v4.60/bin/bin/../../lib/gcc/pic32c/8.3.1/../../../../pic32c/lib/thumb/v7e-m+fp/hard\libc-musl.a(__pop_ptr.o)
 .comment       0x00000000000000d4       0x2c c:/program files/microchip/xc32/v4.60/bin/bin/../../lib/gcc/pic32c/8.3.1/../../../../pic32c/lib/thumb/v7e-m+fp/hard\libc-musl.a(__printf_core.o)
 .comment       0x00000000000000d4       0x2c c:/program files/microchip/xc32/v4.60/bin/bin/../../lib/gcc/pic32c/8.3.1/../../../../pic32c/lib/thumb/v7e-m+fp/hard\libc-musl.a(atoi.o)
 .comment       0x00000000000000d4       0x2c c:/program files/microchip/xc32/v4.60/bin/bin/../../lib/gcc/pic32c/8.3.1/../../../../pic32c/lib/thumb/v7e-m+fp/hard\libc-musl.a(__fmt_a.o)
 .comment       0x00000000000000d4       0x2c c:/program files/microchip/xc32/v4.60/bin/bin/../../lib/gcc/pic32c/8.3.1/../../../../pic32c/lib/thumb/v7e-m+fp/hard\libc-musl.a(__fmt_d.o)
 .comment       0x00000000000000d4       0x2c c:/program files/microchip/xc32/v4.60/bin/bin/../../lib/gcc/pic32c/8.3.1/../../../../pic32c/lib/thumb/v7e-m+fp/hard\libc-musl.a(__fmt_fp.o)
 .comment       0x00000000000000d4       0x2c c:/program files/microchip/xc32/v4.60/bin/bin/../../lib/gcc/pic32c/8.3.1/../../../../pic32c/lib/thumb/v7e-m+fp/hard\libc-musl.a(__fmt_o.o)
 .comment       0x00000000000000d4       0x2c c:/program files/microchip/xc32/v4.60/bin/bin/../../lib/gcc/pic32c/8.3.1/../../../../pic32c/lib/thumb/v7e-m+fp/hard\libc-musl.a(__fmt_s.o)
 .comment       0x00000000000000d4       0x2c c:/program files/microchip/xc32/v4.60/bin/bin/../../lib/gcc/pic32c/8.3.1/../../../../pic32c/lib/thumb/v7e-m+fp/hard\libc-musl.a(__fmt_u.o)
 .comment       0x00000000000000d4       0x2c c:/program files/microchip/xc32/v4.60/bin/bin/../../lib/gcc/pic32c/8.3.1/../../../../pic32c/lib/thumb/v7e-m+fp/hard\libc-musl.a(__fmt_x.o)
 .comment       0x00000000000000d4       0x2c c:/program files/microchip/xc32/v4.60/bin/bin/../../lib/gcc/pic32c/8.3.1/../../../../pic32c/lib/thumb/v7e-m+fp/hard\libc-musl.a(__cvt_u.o)
 .comment       0x00000000000000d4       0x2c c:/program files/microchip/xc32/v4.60/bin/bin/../../lib/gcc/pic32c/8.3.1/../../../../pic32c/lib/thumb/v7e-m+fp/hard\libm-fast-emfloat.a(fma.o)
 .comment       0x00000000000000d4       0x2c c:/program files/microchip/xc32/v4.60/bin/bin/../../lib/gcc/pic32c/8.3.1/../../../../pic32c/lib/thumb/v7e-m+fp/hard\libm-fast-emfloat.a(floor.o)
 .comment       0x00000000000000d4       0x2c c:/program files/microchip/xc32/v4.60/bin/bin/../../lib/gcc/pic32c/8.3.1/thumb/v7e-m+fp/hard\libgcc.a(_udivmoddi4.o)
 .comment       0x00000000000000d4       0x2c c:/program files/microchip/xc32/v4.60/bin/bin/../../lib/gcc/pic32c/8.3.1/../../../../pic32c/lib/thumb/v7e-m+fp/hard\libpic32c.a(sbrk.o)
 .comment       0x00000000000000d4       0x2c c:/program files/microchip/xc32/v4.60/bin/bin/../../lib/gcc/pic32c/8.3.1/../../../../pic32c/lib/thumb/v7e-m+fp/hard\libc-size-musl.a(strcpy.o)
 .comment       0x00000000000000d4       0x2c c:/program files/microchip/xc32/v4.60/bin/bin/../../lib/gcc/pic32c/8.3.1/../../../../pic32c/lib/thumb/v7e-m+fp/hard\libc-size-musl.a(stpcpy.o)
 .comment       0x00000000000000d4       0x2c c:/program files/microchip/xc32/v4.60/bin/bin/../../lib/gcc/pic32c/8.3.1/../../../../pic32c/lib/thumb/v7e-m+fp/hard\libpic32c.a(pic32_data_init_clear.o)
 .comment       0x00000000000000d4       0x2c c:/program files/microchip/xc32/v4.60/bin/bin/../../lib/gcc/pic32c/8.3.1/../../../../pic32c/lib/thumb/v7e-m+fp/hard\libpic32c.a(pic32_data_init_copy.o)

.debug_info     0x0000000000000000    0xb3670
 .debug_info    0x0000000000000000      0x452 build/default/production/_ext/1434821282/bsp.o
 .debug_info    0x0000000000000452     0x121c build/default/production/_ext/1726652707/MCHP_Crypto_Aead_WolfCryptWrapper.o
 .debug_info    0x000000000000166e      0xb6f build/default/production/_ext/1726652707/MCHP_Crypto_Mac_WolfCryptWrapper.o
 .debug_info    0x00000000000021dd      0xd96 build/default/production/_ext/1726652707/MCHP_Crypto_Sym_WolfcryptWrapper.o
 .debug_info    0x0000000000002f73      0xace build/default/production/_ext/1726652707/MCHP_Crypto_Aead_Cipher.o
 .debug_info    0x0000000000003a41      0x4cd build/default/production/_ext/1726652707/MCHP_Crypto_Mac_Cipher.o
 .debug_info    0x0000000000003f0e      0x6af build/default/production/_ext/1726652707/MCHP_Crypto_Sym_Cipher.o
 .debug_info    0x00000000000045bd      0xe7f build/default/production/_ext/745501718/pal.o
 .debug_info    0x000000000000543c       0xab build/default/production/_ext/957911548/phy_ed_end_cb.o
 .debug_info    0x00000000000054e7      0x1f5 build/default/production/_ext/957911548/phy_task.o
 .debug_info    0x00000000000056dc      0x20e build/default/production/_ext/957911548/phy_rx_frame_cb.o
 .debug_info    0x00000000000058ea      0x460 build/default/production/_ext/1374435801/bmm.o
 .debug_info    0x0000000000005d4a      0x4c2 build/default/production/_ext/874725666/qmm.o
 .debug_info    0x000000000000620c      0xfc0 build/default/production/_ext/1014741959/drv_plc_boot.o
 .debug_info    0x00000000000071cc     0x1421 build/default/production/_ext/1014741959/drv_plc_hal.o
 .debug_info    0x00000000000085ed     0x1b2a build/default/production/_ext/410113559/drv_g3_macrt_local_comm.o
 .debug_info    0x000000000000a117     0x129f build/default/production/_ext/410113559/drv_g3_macrt.o
 .debug_info    0x000000000000b3b6      0x3d9 build/default/production/_ext/1033058136/helpers.o
 .debug_info    0x000000000000b78f      0x868 build/default/production/_ext/1033058136/tcpip_notify.o
 .debug_info    0x000000000000bff7     0x4e99 build/default/production/_ext/1033058136/ndp.o
 .debug_info    0x0000000000010e90     0x741a build/default/production/_ext/1033058136/udp.o
 .debug_info    0x00000000000182aa     0x1eb3 build/default/production/_ext/1033058136/tcpip_packet.o
 .debug_info    0x000000000001a15d     0xa503 build/default/production/_ext/1033058136/ipv6.o
 .debug_info    0x0000000000024660     0x52d1 build/default/production/_ext/1033058136/icmpv6.o
 .debug_info    0x0000000000029931     0x9330 build/default/production/_ext/1033058136/tcpip_manager.o
 .debug_info    0x0000000000032c61     0x38ad build/default/production/_ext/1033058136/tcpip_helpers.o
 .debug_info    0x000000000003650e      0x634 build/default/production/_ext/1033058136/tcpip_heap_alloc.o
 .debug_info    0x0000000000036b42      0xf80 build/default/production/_ext/1033058136/tcpip_heap_internal.o
 .debug_info    0x0000000000037ac2      0x6ff build/default/production/_ext/1529399856/osal_freertos.o
 .debug_info    0x00000000000381c1      0x52c build/default/production/_ext/1529399856/osal_freertos_extend.o
 .debug_info    0x00000000000386ed      0xb71 build/default/production/_ext/60165520/plib_clk.o
 .debug_info    0x000000000003925e      0xb9a build/default/production/_ext/1865161661/plib_dmac.o
 .debug_info    0x0000000000039df8      0x390 build/default/production/_ext/60167341/plib_eic.o
 .debug_info    0x000000000003a188       0x97 build/default/production/_ext/1986646378/plib_evsys.o
 .debug_info    0x000000000003a21f     0x122d build/default/production/_ext/1865254177/plib_gpio.o
 .debug_info    0x000000000003b44c      0xd0e build/default/production/_ext/1865468468/plib_nvic.o
 .debug_info    0x000000000003c15a      0xe88 build/default/production/_ext/60176403/plib_nvm.o
 .debug_info    0x000000000003cfe2      0xf0d build/default/production/_ext/17022449/plib_sercom2_spi_master.o
 .debug_info    0x000000000003deef     0x19e5 build/default/production/_ext/504274921/plib_sercom1_usart.o
 .debug_info    0x000000000003f8d4      0x838 build/default/production/_ext/829342655/plib_tc0.o
 .debug_info    0x000000000004010c      0x1b4 build/default/production/_ext/1865643529/plib_trng.o
 .debug_info    0x00000000000402c0      0x1b5 build/default/production/_ext/60184501/plib_wdt.o
 .debug_info    0x0000000000040475      0xc9d build/default/production/_ext/2064362748/srv_pcoup.o
 .debug_info    0x0000000000041112      0x849 build/default/production/_ext/2065812886/srv_queue.o
 .debug_info    0x000000000004195b      0x319 build/default/production/_ext/373899042/srv_random.o
 .debug_info    0x0000000000041c74      0x8c7 build/default/production/_ext/2135967589/cipher_wrapper.o
 .debug_info    0x000000000004253b      0x304 build/default/production/_ext/2135967589/aes_wrapper.o
 .debug_info    0x000000000004283f      0x5a2 build/default/production/_ext/1534551086/lbp_encode_decode.o
 .debug_info    0x0000000000042de1     0x36b7 build/default/production/_ext/1534551086/lbp_dev.o
 .debug_info    0x0000000000046498     0x1b25 build/default/production/_ext/1534551086/routing_wrapper.o
 .debug_info    0x0000000000047fbd     0x13c5 build/default/production/_ext/1534551086/eap_psk.o
 .debug_info    0x0000000000049382      0xe2b build/default/production/_ext/1632721610/mac_common.o
 .debug_info    0x000000000004a1ad     0x3e63 build/default/production/_ext/1570337448/mac_wrapper.o
 .debug_info    0x000000000004e010     0x34f0 build/default/production/_ext/710515956/drv_mac_g3adp.o
 .debug_info    0x0000000000051500     0x1c4a build/default/production/_ext/977769160/pal_plc.o
 .debug_info    0x000000000005314a     0x1dfd build/default/production/_ext/1278466877/pal_rf.o
 .debug_info    0x0000000000054f47      0xda0 build/default/production/_ext/1832805299/sys_console_uart.o
 .debug_info    0x0000000000055ce7      0xbe4 build/default/production/_ext/1832805299/sys_console.o
 .debug_info    0x00000000000568cb      0x34c build/default/production/_ext/944882569/sys_debug.o
 .debug_info    0x0000000000056c17      0x2e7 build/default/production/_ext/14461671/sys_dma.o
 .debug_info    0x0000000000056efe      0x616 build/default/production/_ext/1881668453/sys_int.o
 .debug_info    0x0000000000057514     0x2070 build/default/production/_ext/101884895/sys_time.o
 .debug_info    0x0000000000059584      0x307 build/default/production/_ext/753841488/sys_time_h2_adapter.o
 .debug_info    0x000000000005988b      0x848 build/default/production/_ext/1171490990/tasks.o
 .debug_info    0x000000000005a0d3      0x559 build/default/production/_ext/1171490990/interrupts.o
 .debug_info    0x000000000005a62c      0x112 build/default/production/_ext/1171490990/exceptions.o
 .debug_info    0x000000000005a73e     0x3e80 build/default/production/_ext/1171490990/initialization.o
 .debug_info    0x000000000005e5be      0x55b build/default/production/_ext/1171490990/startup_xc32.o
 .debug_info    0x000000000005eb19      0x244 build/default/production/_ext/1171490990/freertos_hooks.o
 .debug_info    0x000000000005ed5d      0x416 build/default/production/_ext/246609638/port.o
 .debug_info    0x000000000005f173      0x687 build/default/production/_ext/1665200909/heap_4.o
 .debug_info    0x000000000005f7fa      0x2f7 build/default/production/_ext/404212886/list.o
 .debug_info    0x000000000005faf1     0x307e build/default/production/_ext/404212886/FreeRTOS_tasks.o
 .debug_info    0x0000000000062b6f     0x22d0 build/default/production/_ext/404212886/queue.o
 .debug_info    0x0000000000064e3f     0x15e0 build/default/production/_ext/1716827871/cmac.o
 .debug_info    0x000000000006641f     0x1c1c build/default/production/_ext/1716827871/sha256.o
 .debug_info    0x000000000006803b     0x2c79 build/default/production/_ext/1716827871/random.o
 .debug_info    0x000000000006acb4     0x9c22 build/default/production/_ext/1716827871/aes.o
 .debug_info    0x00000000000748d6     0x134f build/default/production/_ext/1664057780/misc.o
 .debug_info    0x0000000000075c25      0x6eb build/default/production/_ext/1360937237/app_storage_wbz451h.o
 .debug_info    0x0000000000076310      0x324 build/default/production/_ext/1360937237/app_idle_task.o
 .debug_info    0x0000000000076634     0x1add build/default/production/_ext/1360937237/app_udp_responder.o
 .debug_info    0x0000000000078111      0x8a7 build/default/production/_ext/1360937237/app_tcpip_management.o
 .debug_info    0x00000000000789b8     0x4c5d build/default/production/_ext/1360937237/app_g3_management.o
 .debug_info    0x000000000007d615       0xe1 build/default/production/_ext/1360937237/main.o
 .debug_info    0x000000000007d6f6      0x96e build/default/production/_ext/1360937237/app_matrix_led.o
 .debug_info    0x000000000007e064     0x1edc ../src/config/default/driver/lib/lib-ieee802154_phy_pic32cxbz-v1.2.0.a(phy.o)
 .debug_info    0x000000000007ff40     0x1aa2 ../src/config/default/driver/lib/lib-ieee802154_phy_pic32cxbz-v1.2.0.a(phy_ed.o)
 .debug_info    0x00000000000819e2     0x271d ../src/config/default/driver/lib/lib-ieee802154_phy_pic32cxbz-v1.2.0.a(phy_helper.o)
 .debug_info    0x00000000000840ff     0x30bc ../src/config/default/driver/lib/lib-ieee802154_phy_pic32cxbz-v1.2.0.a(phy_init.o)
 .debug_info    0x00000000000871bb     0x1c49 ../src/config/default/driver/lib/lib-ieee802154_phy_pic32cxbz-v1.2.0.a(phy_irq_handler.o)
 .debug_info    0x0000000000088e04     0x3155 ../src/config/default/driver/lib/lib-ieee802154_phy_pic32cxbz-v1.2.0.a(phy_pib.o)
 .debug_info    0x000000000008bf59     0x28eb ../src/config/default/driver/lib/lib-ieee802154_phy_pic32cxbz-v1.2.0.a(phy_pwr_mgmt.o)
 .debug_info    0x000000000008e844     0x2d88 ../src/config/default/driver/lib/lib-ieee802154_phy_pic32cxbz-v1.2.0.a(phy_rx.o)
 .debug_info    0x00000000000915cc     0x102b ../src/config/default/driver/lib/lib-ieee802154_phy_pic32cxbz-v1.2.0.a(phy_rx_enable.o)
 .debug_info    0x00000000000925f7     0x3304 ../src/config/default/driver/lib/lib-ieee802154_phy_pic32cxbz-v1.2.0.a(phy_tx.o)
 .debug_info    0x00000000000958fb     0x26ce ../src/config/default/driver/lib/lib-ieee802154_phy_pic32cxbz-v1.2.0.a(tfa.o)
 .debug_info    0x0000000000097fc9      0x62f ../src/config/default/driver/lib/lib-ieee802154_phy_pic32cxbz-v1.2.0.a(phy_frame_handling.o)
 .debug_info    0x00000000000985f8     0x1ccb ../src/config/default/driver/pds/pds.a(wlPdsDataServer.o)
 .debug_info    0x000000000009a2c3      0x803 ../src/config/default/driver/pds/pds.a(wlPdsInit.o)
 .debug_info    0x000000000009aac6      0xbf6 ../src/config/default/driver/pds/pds.a(D_Nv.o)
 .debug_info    0x000000000009b6bc     0x2b2f ../src/config/default/driver/pds/pds.a(S_Nv-Chimera.o)
 .debug_info    0x000000000009e1eb     0x15d0 ../src/config/default/driver/device_support/pic32cx_bz2_device_support.a(info_block.o)
 .debug_info    0x000000000009f7bb     0x71bc ../src/config/default/driver/device_support/pic32cx_bz2_device_support.a(rf_system.o)
 .debug_info    0x00000000000a6977      0xfe5 ../src/config/default/driver/device_support/pic32cx_bz2_device_support.a(info_block_plat.o)
 .debug_info    0x00000000000a795c      0x60f ../src/config/default/driver/device_support/pic32cx_bz2_device_support.a(pmu_dvr.o)
 .debug_info    0x00000000000a7f6b     0x4657 ../src/config/default/driver/device_support/pic32cx_bz2_device_support.a(rf.o)
 .debug_info    0x00000000000ac5c2       0x68 c:/program files/microchip/xc32/v4.60/bin/bin/../../lib/gcc/pic32c/8.3.1/../../../../pic32c/lib/thumb/v7e-m+fp/hard\libpic32c.a(data_init.o)
 .debug_info    0x00000000000ac62a       0xe0 c:/program files/microchip/xc32/v4.60/bin/bin/../../lib/gcc/pic32c/8.3.1/../../../../pic32c/lib/thumb/v7e-m+fp/hard\libc-size-musl.a(memcmp.o)
 .debug_info    0x00000000000ac70a       0xf3 c:/program files/microchip/xc32/v4.60/bin/bin/../../lib/gcc/pic32c/8.3.1/../../../../pic32c/lib/thumb/v7e-m+fp/hard\libc-size-musl.a(memcpy.o)
 .debug_info    0x00000000000ac7fd       0xea c:/program files/microchip/xc32/v4.60/bin/bin/../../lib/gcc/pic32c/8.3.1/../../../../pic32c/lib/thumb/v7e-m+fp/hard\libc-size-musl.a(memmove.o)
 .debug_info    0x00000000000ac8e7       0xbb c:/program files/microchip/xc32/v4.60/bin/bin/../../lib/gcc/pic32c/8.3.1/../../../../pic32c/lib/thumb/v7e-m+fp/hard\libc-size-musl.a(memset.o)
 .debug_info    0x00000000000ac9a2       0xa4 c:/program files/microchip/xc32/v4.60/bin/bin/../../lib/gcc/pic32c/8.3.1/../../../../pic32c/lib/thumb/v7e-m+fp/hard\libc-size-musl.a(strlen.o)
 .debug_info    0x00000000000aca46       0x95 c:/program files/microchip/xc32/v4.60/bin/bin/../../lib/gcc/pic32c/8.3.1/../../../../pic32c/lib/thumb/v7e-m+fp/hard\libc-size-musl.a(strcmp.o)
 .debug_info    0x00000000000acadb       0xde c:/program files/microchip/xc32/v4.60/bin/bin/../../lib/gcc/pic32c/8.3.1/../../../../pic32c/lib/thumb/v7e-m+fp/hard\libc-size-musl.a(strncpy.o)
 .debug_info    0x00000000000acbb9       0xe4 c:/program files/microchip/xc32/v4.60/bin/bin/../../lib/gcc/pic32c/8.3.1/../../../../pic32c/lib/thumb/v7e-m+fp/hard\libc-size-musl.a(strrchr.o)
 .debug_info    0x00000000000acc9d       0xe3 c:/program files/microchip/xc32/v4.60/bin/bin/../../lib/gcc/pic32c/8.3.1/../../../../pic32c/lib/thumb/v7e-m+fp/hard\libc-size-musl.a(memrchr.o)
 .debug_info    0x00000000000acd80       0xe1 c:/program files/microchip/xc32/v4.60/bin/bin/../../lib/gcc/pic32c/8.3.1/../../../../pic32c/lib/thumb/v7e-m+fp/hard\libc-size-musl.a(stpncpy.o)
 .debug_info    0x00000000000ace61      0x26f c:/program files/microchip/xc32/v4.60/bin/bin/../../lib/gcc/pic32c/8.3.1/../../../../pic32c/lib/thumb/v7e-m+fp/hard\liblmalloc-musl.a(lite_free.o)
 .debug_info    0x00000000000ad0d0      0x1bd c:/program files/microchip/xc32/v4.60/bin/bin/../../lib/gcc/pic32c/8.3.1/../../../../pic32c/lib/thumb/v7e-m+fp/hard\liblmalloc-musl.a(lite_malloc.o)
 .debug_info    0x00000000000ad28d      0x12b c:/program files/microchip/xc32/v4.60/bin/bin/../../lib/gcc/pic32c/8.3.1/../../../../pic32c/lib/thumb/v7e-m+fp/hard\libc-musl.a(isxdigit.o)
 .debug_info    0x00000000000ad3b8      0x12b c:/program files/microchip/xc32/v4.60/bin/bin/../../lib/gcc/pic32c/8.3.1/../../../../pic32c/lib/thumb/v7e-m+fp/hard\libc-musl.a(tolower.o)
 .debug_info    0x00000000000ad4e3      0x12b c:/program files/microchip/xc32/v4.60/bin/bin/../../lib/gcc/pic32c/8.3.1/../../../../pic32c/lib/thumb/v7e-m+fp/hard\libc-musl.a(toupper.o)
 .debug_info    0x00000000000ad60e      0x2fb c:/program files/microchip/xc32/v4.60/bin/bin/../../lib/gcc/pic32c/8.3.1/../../../../pic32c/lib/thumb/v7e-m+fp/hard\libc-musl.a(__libc_start_main.o)
 .debug_info    0x00000000000ad909       0x5b c:/program files/microchip/xc32/v4.60/bin/bin/../../lib/gcc/pic32c/8.3.1/../../../../pic32c/lib/thumb/v7e-m+fp/hard\libc-musl.a(__errno_location.o)
 .debug_info    0x00000000000ad964      0x276 c:/program files/microchip/xc32/v4.60/bin/bin/../../lib/gcc/pic32c/8.3.1/../../../../pic32c/lib/thumb/v7e-m+fp/hard\libc-musl.a(libc.o)
 .debug_info    0x00000000000adbda      0x10e c:/program files/microchip/xc32/v4.60/bin/bin/../../lib/gcc/pic32c/8.3.1/../../../../pic32c/lib/thumb/v7e-m+fp/hard\libc-musl.a(expand_heap.o)
 .debug_info    0x00000000000adce8       0xd9 c:/program files/microchip/xc32/v4.60/bin/bin/../../lib/gcc/pic32c/8.3.1/../../../../pic32c/lib/thumb/v7e-m+fp/hard\libc-musl.a(rand.o)
 .debug_info    0x00000000000addc1      0x43a c:/program files/microchip/xc32/v4.60/bin/bin/../../lib/gcc/pic32c/8.3.1/../../../../pic32c/lib/thumb/v7e-m+fp/hard\libc-musl.a(vsnprintf.o)
 .debug_info    0x00000000000ae1fb      0x13b c:/program files/microchip/xc32/v4.60/bin/bin/../../lib/gcc/pic32c/8.3.1/../../../../pic32c/lib/thumb/v7e-m+fp/hard\libc-musl.a(snprintf.o)
 .debug_info    0x00000000000ae336      0x116 c:/program files/microchip/xc32/v4.60/bin/bin/../../lib/gcc/pic32c/8.3.1/../../../../pic32c/lib/thumb/v7e-m+fp/hard\libc-musl.a(sprintf.o)
 .debug_info    0x00000000000ae44c      0x10e c:/program files/microchip/xc32/v4.60/bin/bin/../../lib/gcc/pic32c/8.3.1/../../../../pic32c/lib/thumb/v7e-m+fp/hard\libc-musl.a(vsprintf.o)
 .debug_info    0x00000000000ae55a      0x722 c:/program files/microchip/xc32/v4.60/bin/bin/../../lib/gcc/pic32c/8.3.1/../../../../pic32c/lib/thumb/v7e-m+fp/hard\libc-musl.a(strtol.o)
 .debug_info    0x00000000000aec7c       0x97 c:/program files/microchip/xc32/v4.60/bin/bin/../../lib/gcc/pic32c/8.3.1/../../../../pic32c/lib/thumb/v7e-m+fp/hard\libc-musl.a(__environ.o)
 .debug_info    0x00000000000aed13      0x595 c:/program files/microchip/xc32/v4.60/bin/bin/../../lib/gcc/pic32c/8.3.1/../../../../pic32c/lib/thumb/v7e-m+fp/hard\libc-musl.a(intscan.o)
 .debug_info    0x00000000000af2a8      0x39c c:/program files/microchip/xc32/v4.60/bin/bin/../../lib/gcc/pic32c/8.3.1/../../../../pic32c/lib/thumb/v7e-m+fp/hard\libc-musl.a(shgetc.o)
 .debug_info    0x00000000000af644      0x37c c:/program files/microchip/xc32/v4.60/bin/bin/../../lib/gcc/pic32c/8.3.1/../../../../pic32c/lib/thumb/v7e-m+fp/hard\libc-musl.a(__uflow.o)
 .debug_info    0x00000000000af9c0      0x406 c:/program files/microchip/xc32/v4.60/bin/bin/../../lib/gcc/pic32c/8.3.1/../../../../pic32c/lib/thumb/v7e-m+fp/hard\libc-musl.a(vfprintf.o)
 .debug_info    0x00000000000afdc6      0x37e c:/program files/microchip/xc32/v4.60/bin/bin/../../lib/gcc/pic32c/8.3.1/../../../../pic32c/lib/thumb/v7e-m+fp/hard\libc-musl.a(__toread.o)
 .debug_info    0x00000000000b0144      0x162 c:/program files/microchip/xc32/v4.60/bin/bin/../../lib/gcc/pic32c/8.3.1/../../../../pic32c/lib/thumb/v7e-m+fp/hard\libc-musl.a(__pop_float.o)
 .debug_info    0x00000000000b02a6      0x183 c:/program files/microchip/xc32/v4.60/bin/bin/../../lib/gcc/pic32c/8.3.1/../../../../pic32c/lib/thumb/v7e-m+fp/hard\libc-musl.a(__pop_int.o)
 .debug_info    0x00000000000b0429      0x187 c:/program files/microchip/xc32/v4.60/bin/bin/../../lib/gcc/pic32c/8.3.1/../../../../pic32c/lib/thumb/v7e-m+fp/hard\libc-musl.a(__pop_ptr.o)
 .debug_info    0x00000000000b05b0      0xa5d c:/program files/microchip/xc32/v4.60/bin/bin/../../lib/gcc/pic32c/8.3.1/../../../../pic32c/lib/thumb/v7e-m+fp/hard\libc-musl.a(__printf_core.o)
 .debug_info    0x00000000000b100d       0xf4 c:/program files/microchip/xc32/v4.60/bin/bin/../../lib/gcc/pic32c/8.3.1/../../../../pic32c/lib/thumb/v7e-m+fp/hard\libc-musl.a(atoi.o)
 .debug_info    0x00000000000b1101      0x646 c:/program files/microchip/xc32/v4.60/bin/bin/../../lib/gcc/pic32c/8.3.1/../../../../pic32c/lib/thumb/v7e-m+fp/hard\libc-musl.a(__fmt_a.o)
 .debug_info    0x00000000000b1747      0x330 c:/program files/microchip/xc32/v4.60/bin/bin/../../lib/gcc/pic32c/8.3.1/../../../../pic32c/lib/thumb/v7e-m+fp/hard\libc-musl.a(__fmt_d.o)
 .debug_info    0x00000000000b1a77      0x673 c:/program files/microchip/xc32/v4.60/bin/bin/../../lib/gcc/pic32c/8.3.1/../../../../pic32c/lib/thumb/v7e-m+fp/hard\libc-musl.a(__fmt_fp.o)
 .debug_info    0x00000000000b20ea      0x301 c:/program files/microchip/xc32/v4.60/bin/bin/../../lib/gcc/pic32c/8.3.1/../../../../pic32c/lib/thumb/v7e-m+fp/hard\libc-musl.a(__fmt_o.o)
 .debug_info    0x00000000000b23eb      0x2b2 c:/program files/microchip/xc32/v4.60/bin/bin/../../lib/gcc/pic32c/8.3.1/../../../../pic32c/lib/thumb/v7e-m+fp/hard\libc-musl.a(__fmt_s.o)
 .debug_info    0x00000000000b269d      0x301 c:/program files/microchip/xc32/v4.60/bin/bin/../../lib/gcc/pic32c/8.3.1/../../../../pic32c/lib/thumb/v7e-m+fp/hard\libc-musl.a(__fmt_u.o)
 .debug_info    0x00000000000b299e      0x331 c:/program files/microchip/xc32/v4.60/bin/bin/../../lib/gcc/pic32c/8.3.1/../../../../pic32c/lib/thumb/v7e-m+fp/hard\libc-musl.a(__fmt_x.o)
 .debug_info    0x00000000000b2ccf      0x1d9 c:/program files/microchip/xc32/v4.60/bin/bin/../../lib/gcc/pic32c/8.3.1/../../../../pic32c/lib/thumb/v7e-m+fp/hard\libc-musl.a(__cvt_u.o)
 .debug_info    0x00000000000b2ea8       0x26 c:/program files/microchip/xc32/v4.60/bin/bin/../../lib/gcc/pic32c/8.3.1/thumb/v7e-m+fp/hard\libgcc.a(_aeabi_uldivmod.o)
 .debug_info    0x00000000000b2ece      0x52a c:/program files/microchip/xc32/v4.60/bin/bin/../../lib/gcc/pic32c/8.3.1/thumb/v7e-m+fp/hard\libgcc.a(_udivmoddi4.o)
 .debug_info    0x00000000000b33f8       0x26 c:/program files/microchip/xc32/v4.60/bin/bin/../../lib/gcc/pic32c/8.3.1/thumb/v7e-m+fp/hard\libgcc.a(_dvmd_tls.o)
 .debug_info    0x00000000000b341e       0x6a c:/program files/microchip/xc32/v4.60/bin/bin/../../lib/gcc/pic32c/8.3.1/../../../../pic32c/lib/thumb/v7e-m+fp/hard\libpic32c.a(sbrk.o)
 .debug_info    0x00000000000b3488       0xbd c:/program files/microchip/xc32/v4.60/bin/bin/../../lib/gcc/pic32c/8.3.1/../../../../pic32c/lib/thumb/v7e-m+fp/hard\libc-size-musl.a(strcpy.o)
 .debug_info    0x00000000000b3545       0xac c:/program files/microchip/xc32/v4.60/bin/bin/../../lib/gcc/pic32c/8.3.1/../../../../pic32c/lib/thumb/v7e-m+fp/hard\libc-size-musl.a(stpcpy.o)
 .debug_info    0x00000000000b35f1       0x3f c:/program files/microchip/xc32/v4.60/bin/bin/../../lib/gcc/pic32c/8.3.1/../../../../pic32c/lib/thumb/v7e-m+fp/hard\libpic32c.a(pic32_data_init_clear.o)
 .debug_info    0x00000000000b3630       0x40 c:/program files/microchip/xc32/v4.60/bin/bin/../../lib/gcc/pic32c/8.3.1/../../../../pic32c/lib/thumb/v7e-m+fp/hard\libpic32c.a(pic32_data_init_copy.o)

.debug_abbrev   0x0000000000000000    0x16e19
 .debug_abbrev  0x0000000000000000       0x7a build/default/production/_ext/1434821282/bsp.o
 .debug_abbrev  0x000000000000007a      0x1fb build/default/production/_ext/1726652707/MCHP_Crypto_Aead_WolfCryptWrapper.o
 .debug_abbrev  0x0000000000000275      0x1bd build/default/production/_ext/1726652707/MCHP_Crypto_Mac_WolfCryptWrapper.o
 .debug_abbrev  0x0000000000000432      0x1ef build/default/production/_ext/1726652707/MCHP_Crypto_Sym_WolfcryptWrapper.o
 .debug_abbrev  0x0000000000000621      0x199 build/default/production/_ext/1726652707/MCHP_Crypto_Aead_Cipher.o
 .debug_abbrev  0x00000000000007ba      0x11c build/default/production/_ext/1726652707/MCHP_Crypto_Mac_Cipher.o
 .debug_abbrev  0x00000000000008d6      0x17a build/default/production/_ext/1726652707/MCHP_Crypto_Sym_Cipher.o
 .debug_abbrev  0x0000000000000a50      0x3cf build/default/production/_ext/745501718/pal.o
 .debug_abbrev  0x0000000000000e1f       0x64 build/default/production/_ext/957911548/phy_ed_end_cb.o
 .debug_abbrev  0x0000000000000e83      0x156 build/default/production/_ext/957911548/phy_task.o
 .debug_abbrev  0x0000000000000fd9      0x122 build/default/production/_ext/957911548/phy_rx_frame_cb.o
 .debug_abbrev  0x00000000000010fb      0x1ce build/default/production/_ext/1374435801/bmm.o
 .debug_abbrev  0x00000000000012c9      0x29d build/default/production/_ext/874725666/qmm.o
 .debug_abbrev  0x0000000000001566      0x3f8 build/default/production/_ext/1014741959/drv_plc_boot.o
 .debug_abbrev  0x000000000000195e      0x435 build/default/production/_ext/1014741959/drv_plc_hal.o
 .debug_abbrev  0x0000000000001d93      0x41c build/default/production/_ext/410113559/drv_g3_macrt_local_comm.o
 .debug_abbrev  0x00000000000021af      0x379 build/default/production/_ext/410113559/drv_g3_macrt.o
 .debug_abbrev  0x0000000000002528      0x212 build/default/production/_ext/1033058136/helpers.o
 .debug_abbrev  0x000000000000273a      0x27d build/default/production/_ext/1033058136/tcpip_notify.o
 .debug_abbrev  0x00000000000029b7      0x62a build/default/production/_ext/1033058136/ndp.o
 .debug_abbrev  0x0000000000002fe1      0x71a build/default/production/_ext/1033058136/udp.o
 .debug_abbrev  0x00000000000036fb      0x515 build/default/production/_ext/1033058136/tcpip_packet.o
 .debug_abbrev  0x0000000000003c10      0x769 build/default/production/_ext/1033058136/ipv6.o
 .debug_abbrev  0x0000000000004379      0x5f4 build/default/production/_ext/1033058136/icmpv6.o
 .debug_abbrev  0x000000000000496d      0x79f build/default/production/_ext/1033058136/tcpip_manager.o
 .debug_abbrev  0x000000000000510c      0x580 build/default/production/_ext/1033058136/tcpip_helpers.o
 .debug_abbrev  0x000000000000568c      0x179 build/default/production/_ext/1033058136/tcpip_heap_alloc.o
 .debug_abbrev  0x0000000000005805      0x369 build/default/production/_ext/1033058136/tcpip_heap_internal.o
 .debug_abbrev  0x0000000000005b6e      0x229 build/default/production/_ext/1529399856/osal_freertos.o
 .debug_abbrev  0x0000000000005d97      0x15b build/default/production/_ext/1529399856/osal_freertos_extend.o
 .debug_abbrev  0x0000000000005ef2       0xee build/default/production/_ext/60165520/plib_clk.o
 .debug_abbrev  0x0000000000005fe0      0x311 build/default/production/_ext/1865161661/plib_dmac.o
 .debug_abbrev  0x00000000000062f1      0x191 build/default/production/_ext/60167341/plib_eic.o
 .debug_abbrev  0x0000000000006482       0x44 build/default/production/_ext/1986646378/plib_evsys.o
 .debug_abbrev  0x00000000000064c6      0x119 build/default/production/_ext/1865254177/plib_gpio.o
 .debug_abbrev  0x00000000000065df      0x2d8 build/default/production/_ext/1865468468/plib_nvic.o
 .debug_abbrev  0x00000000000068b7      0x3c1 build/default/production/_ext/60176403/plib_nvm.o
 .debug_abbrev  0x0000000000006c78      0x26f build/default/production/_ext/17022449/plib_sercom2_spi_master.o
 .debug_abbrev  0x0000000000006ee7      0x475 build/default/production/_ext/504274921/plib_sercom1_usart.o
 .debug_abbrev  0x000000000000735c      0x1d3 build/default/production/_ext/829342655/plib_tc0.o
 .debug_abbrev  0x000000000000752f       0xbe build/default/production/_ext/1865643529/plib_trng.o
 .debug_abbrev  0x00000000000075ed       0xd9 build/default/production/_ext/60184501/plib_wdt.o
 .debug_abbrev  0x00000000000076c6      0x23c build/default/production/_ext/2064362748/srv_pcoup.o
 .debug_abbrev  0x0000000000007902      0x312 build/default/production/_ext/2065812886/srv_queue.o
 .debug_abbrev  0x0000000000007c14      0x188 build/default/production/_ext/373899042/srv_random.o
 .debug_abbrev  0x0000000000007d9c      0x166 build/default/production/_ext/2135967589/cipher_wrapper.o
 .debug_abbrev  0x0000000000007f02      0x135 build/default/production/_ext/2135967589/aes_wrapper.o
 .debug_abbrev  0x0000000000008037      0x120 build/default/production/_ext/1534551086/lbp_encode_decode.o
 .debug_abbrev  0x0000000000008157      0x4e4 build/default/production/_ext/1534551086/lbp_dev.o
 .debug_abbrev  0x000000000000863b      0x395 build/default/production/_ext/1534551086/routing_wrapper.o
 .debug_abbrev  0x00000000000089d0      0x278 build/default/production/_ext/1534551086/eap_psk.o
 .debug_abbrev  0x0000000000008c48      0x32a build/default/production/_ext/1632721610/mac_common.o
 .debug_abbrev  0x0000000000008f72      0x4ef build/default/production/_ext/1570337448/mac_wrapper.o
 .debug_abbrev  0x0000000000009461      0x59a build/default/production/_ext/710515956/drv_mac_g3adp.o
 .debug_abbrev  0x00000000000099fb      0x4d2 build/default/production/_ext/977769160/pal_plc.o
 .debug_abbrev  0x0000000000009ecd      0x48e build/default/production/_ext/1278466877/pal_rf.o
 .debug_abbrev  0x000000000000a35b      0x360 build/default/production/_ext/1832805299/sys_console_uart.o
 .debug_abbrev  0x000000000000a6bb      0x385 build/default/production/_ext/1832805299/sys_console.o
 .debug_abbrev  0x000000000000aa40      0x1a3 build/default/production/_ext/944882569/sys_debug.o
 .debug_abbrev  0x000000000000abe3       0xfe build/default/production/_ext/14461671/sys_dma.o
 .debug_abbrev  0x000000000000ace1      0x24d build/default/production/_ext/1881668453/sys_int.o
 .debug_abbrev  0x000000000000af2e      0x559 build/default/production/_ext/101884895/sys_time.o
 .debug_abbrev  0x000000000000b487      0x177 build/default/production/_ext/753841488/sys_time_h2_adapter.o
 .debug_abbrev  0x000000000000b5fe      0x1c9 build/default/production/_ext/1171490990/tasks.o
 .debug_abbrev  0x000000000000b7c7       0xff build/default/production/_ext/1171490990/interrupts.o
 .debug_abbrev  0x000000000000b8c6       0x47 build/default/production/_ext/1171490990/exceptions.o
 .debug_abbrev  0x000000000000b90d      0x4c6 build/default/production/_ext/1171490990/initialization.o
 .debug_abbrev  0x000000000000bdd3      0x1e3 build/default/production/_ext/1171490990/startup_xc32.o
 .debug_abbrev  0x000000000000bfb6      0x165 build/default/production/_ext/1171490990/freertos_hooks.o
 .debug_abbrev  0x000000000000c11b      0x24d build/default/production/_ext/246609638/port.o
 .debug_abbrev  0x000000000000c368      0x2bd build/default/production/_ext/1665200909/heap_4.o
 .debug_abbrev  0x000000000000c625      0x13b build/default/production/_ext/404212886/list.o
 .debug_abbrev  0x000000000000c760      0x520 build/default/production/_ext/404212886/FreeRTOS_tasks.o
 .debug_abbrev  0x000000000000cc80      0x3a9 build/default/production/_ext/404212886/queue.o
 .debug_abbrev  0x000000000000d029      0x3d8 build/default/production/_ext/1716827871/cmac.o
 .debug_abbrev  0x000000000000d401      0x3a7 build/default/production/_ext/1716827871/sha256.o
 .debug_abbrev  0x000000000000d7a8      0x414 build/default/production/_ext/1716827871/random.o
 .debug_abbrev  0x000000000000dbbc      0x562 build/default/production/_ext/1716827871/aes.o
 .debug_abbrev  0x000000000000e11e      0x416 build/default/production/_ext/1664057780/misc.o
 .debug_abbrev  0x000000000000e534      0x253 build/default/production/_ext/1360937237/app_storage_wbz451h.o
 .debug_abbrev  0x000000000000e787      0x15e build/default/production/_ext/1360937237/app_idle_task.o
 .debug_abbrev  0x000000000000e8e5      0x35f build/default/production/_ext/1360937237/app_udp_responder.o
 .debug_abbrev  0x000000000000ec44      0x24f build/default/production/_ext/1360937237/app_tcpip_management.o
 .debug_abbrev  0x000000000000ee93      0x4db build/default/production/_ext/1360937237/app_g3_management.o
 .debug_abbrev  0x000000000000f36e       0x94 build/default/production/_ext/1360937237/main.o
 .debug_abbrev  0x000000000000f402      0x294 build/default/production/_ext/1360937237/app_matrix_led.o
 .debug_abbrev  0x000000000000f696      0x3c3 ../src/config/default/driver/lib/lib-ieee802154_phy_pic32cxbz-v1.2.0.a(phy.o)
 .debug_abbrev  0x000000000000fa59      0x2fa ../src/config/default/driver/lib/lib-ieee802154_phy_pic32cxbz-v1.2.0.a(phy_ed.o)
 .debug_abbrev  0x000000000000fd53      0x4ca ../src/config/default/driver/lib/lib-ieee802154_phy_pic32cxbz-v1.2.0.a(phy_helper.o)
 .debug_abbrev  0x000000000001021d      0x454 ../src/config/default/driver/lib/lib-ieee802154_phy_pic32cxbz-v1.2.0.a(phy_init.o)
 .debug_abbrev  0x0000000000010671      0x413 ../src/config/default/driver/lib/lib-ieee802154_phy_pic32cxbz-v1.2.0.a(phy_irq_handler.o)
 .debug_abbrev  0x0000000000010a84      0x4b1 ../src/config/default/driver/lib/lib-ieee802154_phy_pic32cxbz-v1.2.0.a(phy_pib.o)
 .debug_abbrev  0x0000000000010f35      0x380 ../src/config/default/driver/lib/lib-ieee802154_phy_pic32cxbz-v1.2.0.a(phy_pwr_mgmt.o)
 .debug_abbrev  0x00000000000112b5      0x45a ../src/config/default/driver/lib/lib-ieee802154_phy_pic32cxbz-v1.2.0.a(phy_rx.o)
 .debug_abbrev  0x000000000001170f      0x17d ../src/config/default/driver/lib/lib-ieee802154_phy_pic32cxbz-v1.2.0.a(phy_rx_enable.o)
 .debug_abbrev  0x000000000001188c      0x509 ../src/config/default/driver/lib/lib-ieee802154_phy_pic32cxbz-v1.2.0.a(phy_tx.o)
 .debug_abbrev  0x0000000000011d95      0x383 ../src/config/default/driver/lib/lib-ieee802154_phy_pic32cxbz-v1.2.0.a(tfa.o)
 .debug_abbrev  0x0000000000012118       0xe0 ../src/config/default/driver/lib/lib-ieee802154_phy_pic32cxbz-v1.2.0.a(phy_frame_handling.o)
 .debug_abbrev  0x00000000000121f8      0x504 ../src/config/default/driver/pds/pds.a(wlPdsDataServer.o)
 .debug_abbrev  0x00000000000126fc      0x1dd ../src/config/default/driver/pds/pds.a(wlPdsInit.o)
 .debug_abbrev  0x00000000000128d9      0x2b6 ../src/config/default/driver/pds/pds.a(D_Nv.o)
 .debug_abbrev  0x0000000000012b8f      0x4c4 ../src/config/default/driver/pds/pds.a(S_Nv-Chimera.o)
 .debug_abbrev  0x0000000000013053      0x371 ../src/config/default/driver/device_support/pic32cx_bz2_device_support.a(info_block.o)
 .debug_abbrev  0x00000000000133c4      0x36b ../src/config/default/driver/device_support/pic32cx_bz2_device_support.a(rf_system.o)
 .debug_abbrev  0x000000000001372f      0x170 ../src/config/default/driver/device_support/pic32cx_bz2_device_support.a(info_block_plat.o)
 .debug_abbrev  0x000000000001389f       0xd5 ../src/config/default/driver/device_support/pic32cx_bz2_device_support.a(pmu_dvr.o)
 .debug_abbrev  0x0000000000013974      0x1c4 ../src/config/default/driver/device_support/pic32cx_bz2_device_support.a(rf.o)
 .debug_abbrev  0x0000000000013b38       0x44 c:/program files/microchip/xc32/v4.60/bin/bin/../../lib/gcc/pic32c/8.3.1/../../../../pic32c/lib/thumb/v7e-m+fp/hard\libpic32c.a(data_init.o)
 .debug_abbrev  0x0000000000013b7c       0x96 c:/program files/microchip/xc32/v4.60/bin/bin/../../lib/gcc/pic32c/8.3.1/../../../../pic32c/lib/thumb/v7e-m+fp/hard\libc-size-musl.a(memcmp.o)
 .debug_abbrev  0x0000000000013c12       0xbb c:/program files/microchip/xc32/v4.60/bin/bin/../../lib/gcc/pic32c/8.3.1/../../../../pic32c/lib/thumb/v7e-m+fp/hard\libc-size-musl.a(memcpy.o)
 .debug_abbrev  0x0000000000013ccd       0xae c:/program files/microchip/xc32/v4.60/bin/bin/../../lib/gcc/pic32c/8.3.1/../../../../pic32c/lib/thumb/v7e-m+fp/hard\libc-size-musl.a(memmove.o)
 .debug_abbrev  0x0000000000013d7b       0xa2 c:/program files/microchip/xc32/v4.60/bin/bin/../../lib/gcc/pic32c/8.3.1/../../../../pic32c/lib/thumb/v7e-m+fp/hard\libc-size-musl.a(memset.o)
 .debug_abbrev  0x0000000000013e1d       0x91 c:/program files/microchip/xc32/v4.60/bin/bin/../../lib/gcc/pic32c/8.3.1/../../../../pic32c/lib/thumb/v7e-m+fp/hard\libc-size-musl.a(strlen.o)
 .debug_abbrev  0x0000000000013eae       0x6e c:/program files/microchip/xc32/v4.60/bin/bin/../../lib/gcc/pic32c/8.3.1/../../../../pic32c/lib/thumb/v7e-m+fp/hard\libc-size-musl.a(strcmp.o)
 .debug_abbrev  0x0000000000013f1c       0x9d c:/program files/microchip/xc32/v4.60/bin/bin/../../lib/gcc/pic32c/8.3.1/../../../../pic32c/lib/thumb/v7e-m+fp/hard\libc-size-musl.a(strncpy.o)
 .debug_abbrev  0x0000000000013fb9       0xa9 c:/program files/microchip/xc32/v4.60/bin/bin/../../lib/gcc/pic32c/8.3.1/../../../../pic32c/lib/thumb/v7e-m+fp/hard\libc-size-musl.a(strrchr.o)
 .debug_abbrev  0x0000000000014062       0x9d c:/program files/microchip/xc32/v4.60/bin/bin/../../lib/gcc/pic32c/8.3.1/../../../../pic32c/lib/thumb/v7e-m+fp/hard\libc-size-musl.a(memrchr.o)
 .debug_abbrev  0x00000000000140ff       0xa5 c:/program files/microchip/xc32/v4.60/bin/bin/../../lib/gcc/pic32c/8.3.1/../../../../pic32c/lib/thumb/v7e-m+fp/hard\libc-size-musl.a(stpncpy.o)
 .debug_abbrev  0x00000000000141a4      0x195 c:/program files/microchip/xc32/v4.60/bin/bin/../../lib/gcc/pic32c/8.3.1/../../../../pic32c/lib/thumb/v7e-m+fp/hard\liblmalloc-musl.a(lite_free.o)
 .debug_abbrev  0x0000000000014339      0x117 c:/program files/microchip/xc32/v4.60/bin/bin/../../lib/gcc/pic32c/8.3.1/../../../../pic32c/lib/thumb/v7e-m+fp/hard\liblmalloc-musl.a(lite_malloc.o)
 .debug_abbrev  0x0000000000014450      0x108 c:/program files/microchip/xc32/v4.60/bin/bin/../../lib/gcc/pic32c/8.3.1/../../../../pic32c/lib/thumb/v7e-m+fp/hard\libc-musl.a(isxdigit.o)
 .debug_abbrev  0x0000000000014558      0x108 c:/program files/microchip/xc32/v4.60/bin/bin/../../lib/gcc/pic32c/8.3.1/../../../../pic32c/lib/thumb/v7e-m+fp/hard\libc-musl.a(tolower.o)
 .debug_abbrev  0x0000000000014660      0x108 c:/program files/microchip/xc32/v4.60/bin/bin/../../lib/gcc/pic32c/8.3.1/../../../../pic32c/lib/thumb/v7e-m+fp/hard\libc-musl.a(toupper.o)
 .debug_abbrev  0x0000000000014768      0x133 c:/program files/microchip/xc32/v4.60/bin/bin/../../lib/gcc/pic32c/8.3.1/../../../../pic32c/lib/thumb/v7e-m+fp/hard\libc-musl.a(__libc_start_main.o)
 .debug_abbrev  0x000000000001489b       0x39 c:/program files/microchip/xc32/v4.60/bin/bin/../../lib/gcc/pic32c/8.3.1/../../../../pic32c/lib/thumb/v7e-m+fp/hard\libc-musl.a(__errno_location.o)
 .debug_abbrev  0x00000000000148d4       0xd4 c:/program files/microchip/xc32/v4.60/bin/bin/../../lib/gcc/pic32c/8.3.1/../../../../pic32c/lib/thumb/v7e-m+fp/hard\libc-musl.a(libc.o)
 .debug_abbrev  0x00000000000149a8       0xc4 c:/program files/microchip/xc32/v4.60/bin/bin/../../lib/gcc/pic32c/8.3.1/../../../../pic32c/lib/thumb/v7e-m+fp/hard\libc-musl.a(expand_heap.o)
 .debug_abbrev  0x0000000000014a6c       0x96 c:/program files/microchip/xc32/v4.60/bin/bin/../../lib/gcc/pic32c/8.3.1/../../../../pic32c/lib/thumb/v7e-m+fp/hard\libc-musl.a(rand.o)
 .debug_abbrev  0x0000000000014b02      0x195 c:/program files/microchip/xc32/v4.60/bin/bin/../../lib/gcc/pic32c/8.3.1/../../../../pic32c/lib/thumb/v7e-m+fp/hard\libc-musl.a(vsnprintf.o)
 .debug_abbrev  0x0000000000014c97      0x106 c:/program files/microchip/xc32/v4.60/bin/bin/../../lib/gcc/pic32c/8.3.1/../../../../pic32c/lib/thumb/v7e-m+fp/hard\libc-musl.a(snprintf.o)
 .debug_abbrev  0x0000000000014d9d      0x106 c:/program files/microchip/xc32/v4.60/bin/bin/../../lib/gcc/pic32c/8.3.1/../../../../pic32c/lib/thumb/v7e-m+fp/hard\libc-musl.a(sprintf.o)
 .debug_abbrev  0x0000000000014ea3       0xce c:/program files/microchip/xc32/v4.60/bin/bin/../../lib/gcc/pic32c/8.3.1/../../../../pic32c/lib/thumb/v7e-m+fp/hard\libc-musl.a(vsprintf.o)
 .debug_abbrev  0x0000000000014f71      0x1cf c:/program files/microchip/xc32/v4.60/bin/bin/../../lib/gcc/pic32c/8.3.1/../../../../pic32c/lib/thumb/v7e-m+fp/hard\libc-musl.a(strtol.o)
 .debug_abbrev  0x0000000000015140       0x62 c:/program files/microchip/xc32/v4.60/bin/bin/../../lib/gcc/pic32c/8.3.1/../../../../pic32c/lib/thumb/v7e-m+fp/hard\libc-musl.a(__environ.o)
 .debug_abbrev  0x00000000000151a2      0x1f8 c:/program files/microchip/xc32/v4.60/bin/bin/../../lib/gcc/pic32c/8.3.1/../../../../pic32c/lib/thumb/v7e-m+fp/hard\libc-musl.a(intscan.o)
 .debug_abbrev  0x000000000001539a      0x166 c:/program files/microchip/xc32/v4.60/bin/bin/../../lib/gcc/pic32c/8.3.1/../../../../pic32c/lib/thumb/v7e-m+fp/hard\libc-musl.a(shgetc.o)
 .debug_abbrev  0x0000000000015500      0x141 c:/program files/microchip/xc32/v4.60/bin/bin/../../lib/gcc/pic32c/8.3.1/../../../../pic32c/lib/thumb/v7e-m+fp/hard\libc-musl.a(__uflow.o)
 .debug_abbrev  0x0000000000015641      0x189 c:/program files/microchip/xc32/v4.60/bin/bin/../../lib/gcc/pic32c/8.3.1/../../../../pic32c/lib/thumb/v7e-m+fp/hard\libc-musl.a(vfprintf.o)
 .debug_abbrev  0x00000000000157ca      0x14b c:/program files/microchip/xc32/v4.60/bin/bin/../../lib/gcc/pic32c/8.3.1/../../../../pic32c/lib/thumb/v7e-m+fp/hard\libc-musl.a(__toread.o)
 .debug_abbrev  0x0000000000015915       0xdc c:/program files/microchip/xc32/v4.60/bin/bin/../../lib/gcc/pic32c/8.3.1/../../../../pic32c/lib/thumb/v7e-m+fp/hard\libc-musl.a(__pop_float.o)
 .debug_abbrev  0x00000000000159f1       0xdc c:/program files/microchip/xc32/v4.60/bin/bin/../../lib/gcc/pic32c/8.3.1/../../../../pic32c/lib/thumb/v7e-m+fp/hard\libc-musl.a(__pop_int.o)
 .debug_abbrev  0x0000000000015acd       0xed c:/program files/microchip/xc32/v4.60/bin/bin/../../lib/gcc/pic32c/8.3.1/../../../../pic32c/lib/thumb/v7e-m+fp/hard\libc-musl.a(__pop_ptr.o)
 .debug_abbrev  0x0000000000015bba      0x332 c:/program files/microchip/xc32/v4.60/bin/bin/../../lib/gcc/pic32c/8.3.1/../../../../pic32c/lib/thumb/v7e-m+fp/hard\libc-musl.a(__printf_core.o)
 .debug_abbrev  0x0000000000015eec       0xc6 c:/program files/microchip/xc32/v4.60/bin/bin/../../lib/gcc/pic32c/8.3.1/../../../../pic32c/lib/thumb/v7e-m+fp/hard\libc-musl.a(atoi.o)
 .debug_abbrev  0x0000000000015fb2      0x1d5 c:/program files/microchip/xc32/v4.60/bin/bin/../../lib/gcc/pic32c/8.3.1/../../../../pic32c/lib/thumb/v7e-m+fp/hard\libc-musl.a(__fmt_a.o)
 .debug_abbrev  0x0000000000016187      0x161 c:/program files/microchip/xc32/v4.60/bin/bin/../../lib/gcc/pic32c/8.3.1/../../../../pic32c/lib/thumb/v7e-m+fp/hard\libc-musl.a(__fmt_d.o)
 .debug_abbrev  0x00000000000162e8      0x1f4 c:/program files/microchip/xc32/v4.60/bin/bin/../../lib/gcc/pic32c/8.3.1/../../../../pic32c/lib/thumb/v7e-m+fp/hard\libc-musl.a(__fmt_fp.o)
 .debug_abbrev  0x00000000000164dc      0x161 c:/program files/microchip/xc32/v4.60/bin/bin/../../lib/gcc/pic32c/8.3.1/../../../../pic32c/lib/thumb/v7e-m+fp/hard\libc-musl.a(__fmt_o.o)
 .debug_abbrev  0x000000000001663d      0x14c c:/program files/microchip/xc32/v4.60/bin/bin/../../lib/gcc/pic32c/8.3.1/../../../../pic32c/lib/thumb/v7e-m+fp/hard\libc-musl.a(__fmt_s.o)
 .debug_abbrev  0x0000000000016789      0x161 c:/program files/microchip/xc32/v4.60/bin/bin/../../lib/gcc/pic32c/8.3.1/../../../../pic32c/lib/thumb/v7e-m+fp/hard\libc-musl.a(__fmt_u.o)
 .debug_abbrev  0x00000000000168ea      0x150 c:/program files/microchip/xc32/v4.60/bin/bin/../../lib/gcc/pic32c/8.3.1/../../../../pic32c/lib/thumb/v7e-m+fp/hard\libc-musl.a(__fmt_x.o)
 .debug_abbrev  0x0000000000016a3a       0xe5 c:/program files/microchip/xc32/v4.60/bin/bin/../../lib/gcc/pic32c/8.3.1/../../../../pic32c/lib/thumb/v7e-m+fp/hard\libc-musl.a(__cvt_u.o)
 .debug_abbrev  0x0000000000016b1f       0x14 c:/program files/microchip/xc32/v4.60/bin/bin/../../lib/gcc/pic32c/8.3.1/thumb/v7e-m+fp/hard\libgcc.a(_aeabi_uldivmod.o)
 .debug_abbrev  0x0000000000016b33      0x122 c:/program files/microchip/xc32/v4.60/bin/bin/../../lib/gcc/pic32c/8.3.1/thumb/v7e-m+fp/hard\libgcc.a(_udivmoddi4.o)
 .debug_abbrev  0x0000000000016c55       0x14 c:/program files/microchip/xc32/v4.60/bin/bin/../../lib/gcc/pic32c/8.3.1/thumb/v7e-m+fp/hard\libgcc.a(_dvmd_tls.o)
 .debug_abbrev  0x0000000000016c69       0x44 c:/program files/microchip/xc32/v4.60/bin/bin/../../lib/gcc/pic32c/8.3.1/../../../../pic32c/lib/thumb/v7e-m+fp/hard\libpic32c.a(sbrk.o)
 .debug_abbrev  0x0000000000016cad       0xa2 c:/program files/microchip/xc32/v4.60/bin/bin/../../lib/gcc/pic32c/8.3.1/../../../../pic32c/lib/thumb/v7e-m+fp/hard\libc-size-musl.a(strcpy.o)
 .debug_abbrev  0x0000000000016d4f       0x6e c:/program files/microchip/xc32/v4.60/bin/bin/../../lib/gcc/pic32c/8.3.1/../../../../pic32c/lib/thumb/v7e-m+fp/hard\libc-size-musl.a(stpcpy.o)
 .debug_abbrev  0x0000000000016dbd       0x2e c:/program files/microchip/xc32/v4.60/bin/bin/../../lib/gcc/pic32c/8.3.1/../../../../pic32c/lib/thumb/v7e-m+fp/hard\libpic32c.a(pic32_data_init_clear.o)
 .debug_abbrev  0x0000000000016deb       0x2e c:/program files/microchip/xc32/v4.60/bin/bin/../../lib/gcc/pic32c/8.3.1/../../../../pic32c/lib/thumb/v7e-m+fp/hard\libpic32c.a(pic32_data_init_copy.o)

.debug_aranges  0x0000000000000000     0x1808
 .debug_aranges
                0x0000000000000000       0x20 build/default/production/_ext/1434821282/bsp.o
 .debug_aranges
                0x0000000000000020       0x20 build/default/production/_ext/1726652707/MCHP_Crypto_Aead_WolfCryptWrapper.o
 .debug_aranges
                0x0000000000000040       0x20 build/default/production/_ext/1726652707/MCHP_Crypto_Mac_WolfCryptWrapper.o
 .debug_aranges
                0x0000000000000060       0x20 build/default/production/_ext/1726652707/MCHP_Crypto_Sym_WolfcryptWrapper.o
 .debug_aranges
                0x0000000000000080       0x20 build/default/production/_ext/1726652707/MCHP_Crypto_Aead_Cipher.o
 .debug_aranges
                0x00000000000000a0       0x20 build/default/production/_ext/1726652707/MCHP_Crypto_Mac_Cipher.o
 .debug_aranges
                0x00000000000000c0       0x20 build/default/production/_ext/1726652707/MCHP_Crypto_Sym_Cipher.o
 .debug_aranges
                0x00000000000000e0       0x20 build/default/production/_ext/745501718/pal.o
 .debug_aranges
                0x0000000000000100       0x20 build/default/production/_ext/957911548/phy_ed_end_cb.o
 .debug_aranges
                0x0000000000000120       0x20 build/default/production/_ext/957911548/phy_task.o
 .debug_aranges
                0x0000000000000140       0x20 build/default/production/_ext/957911548/phy_rx_frame_cb.o
 .debug_aranges
                0x0000000000000160       0x20 build/default/production/_ext/1374435801/bmm.o
 .debug_aranges
                0x0000000000000180       0x20 build/default/production/_ext/874725666/qmm.o
 .debug_aranges
                0x00000000000001a0       0x20 build/default/production/_ext/1014741959/drv_plc_boot.o
 .debug_aranges
                0x00000000000001c0       0x20 build/default/production/_ext/1014741959/drv_plc_hal.o
 .debug_aranges
                0x00000000000001e0       0x20 build/default/production/_ext/410113559/drv_g3_macrt_local_comm.o
 .debug_aranges
                0x0000000000000200       0x20 build/default/production/_ext/410113559/drv_g3_macrt.o
 .debug_aranges
                0x0000000000000220       0x20 build/default/production/_ext/1033058136/helpers.o
 .debug_aranges
                0x0000000000000240       0x20 build/default/production/_ext/1033058136/tcpip_notify.o
 .debug_aranges
                0x0000000000000260       0x20 build/default/production/_ext/1033058136/ndp.o
 .debug_aranges
                0x0000000000000280       0x20 build/default/production/_ext/1033058136/udp.o
 .debug_aranges
                0x00000000000002a0       0x20 build/default/production/_ext/1033058136/tcpip_packet.o
 .debug_aranges
                0x00000000000002c0       0x20 build/default/production/_ext/1033058136/ipv6.o
 .debug_aranges
                0x00000000000002e0       0x20 build/default/production/_ext/1033058136/icmpv6.o
 .debug_aranges
                0x0000000000000300       0x20 build/default/production/_ext/1033058136/tcpip_manager.o
 .debug_aranges
                0x0000000000000320       0x20 build/default/production/_ext/1033058136/tcpip_helpers.o
 .debug_aranges
                0x0000000000000340       0x20 build/default/production/_ext/1033058136/tcpip_heap_alloc.o
 .debug_aranges
                0x0000000000000360       0x20 build/default/production/_ext/1033058136/tcpip_heap_internal.o
 .debug_aranges
                0x0000000000000380       0x20 build/default/production/_ext/1529399856/osal_freertos.o
 .debug_aranges
                0x00000000000003a0       0x20 build/default/production/_ext/1529399856/osal_freertos_extend.o
 .debug_aranges
                0x00000000000003c0       0x20 build/default/production/_ext/60165520/plib_clk.o
 .debug_aranges
                0x00000000000003e0       0x20 build/default/production/_ext/1865161661/plib_dmac.o
 .debug_aranges
                0x0000000000000400       0x20 build/default/production/_ext/60167341/plib_eic.o
 .debug_aranges
                0x0000000000000420       0x20 build/default/production/_ext/1986646378/plib_evsys.o
 .debug_aranges
                0x0000000000000440       0x20 build/default/production/_ext/1865254177/plib_gpio.o
 .debug_aranges
                0x0000000000000460       0x20 build/default/production/_ext/1865468468/plib_nvic.o
 .debug_aranges
                0x0000000000000480       0x20 build/default/production/_ext/60176403/plib_nvm.o
 .debug_aranges
                0x00000000000004a0       0x20 build/default/production/_ext/17022449/plib_sercom2_spi_master.o
 .debug_aranges
                0x00000000000004c0       0x20 build/default/production/_ext/504274921/plib_sercom1_usart.o
 .debug_aranges
                0x00000000000004e0       0x20 build/default/production/_ext/829342655/plib_tc0.o
 .debug_aranges
                0x0000000000000500       0x20 build/default/production/_ext/1865643529/plib_trng.o
 .debug_aranges
                0x0000000000000520       0x20 build/default/production/_ext/60184501/plib_wdt.o
 .debug_aranges
                0x0000000000000540       0x20 build/default/production/_ext/2064362748/srv_pcoup.o
 .debug_aranges
                0x0000000000000560       0x20 build/default/production/_ext/2065812886/srv_queue.o
 .debug_aranges
                0x0000000000000580       0x20 build/default/production/_ext/373899042/srv_random.o
 .debug_aranges
                0x00000000000005a0       0x20 build/default/production/_ext/2135967589/cipher_wrapper.o
 .debug_aranges
                0x00000000000005c0       0x20 build/default/production/_ext/2135967589/aes_wrapper.o
 .debug_aranges
                0x00000000000005e0       0x20 build/default/production/_ext/1534551086/lbp_encode_decode.o
 .debug_aranges
                0x0000000000000600       0x20 build/default/production/_ext/1534551086/lbp_dev.o
 .debug_aranges
                0x0000000000000620       0x20 build/default/production/_ext/1534551086/routing_wrapper.o
 .debug_aranges
                0x0000000000000640       0x20 build/default/production/_ext/1534551086/eap_psk.o
 .debug_aranges
                0x0000000000000660       0x20 build/default/production/_ext/1632721610/mac_common.o
 .debug_aranges
                0x0000000000000680       0x20 build/default/production/_ext/1570337448/mac_wrapper.o
 .debug_aranges
                0x00000000000006a0       0x20 build/default/production/_ext/710515956/drv_mac_g3adp.o
 .debug_aranges
                0x00000000000006c0       0x20 build/default/production/_ext/977769160/pal_plc.o
 .debug_aranges
                0x00000000000006e0       0x20 build/default/production/_ext/1278466877/pal_rf.o
 .debug_aranges
                0x0000000000000700       0x20 build/default/production/_ext/1832805299/sys_console_uart.o
 .debug_aranges
                0x0000000000000720       0x20 build/default/production/_ext/1832805299/sys_console.o
 .debug_aranges
                0x0000000000000740       0x20 build/default/production/_ext/944882569/sys_debug.o
 .debug_aranges
                0x0000000000000760       0x20 build/default/production/_ext/14461671/sys_dma.o
 .debug_aranges
                0x0000000000000780       0x20 build/default/production/_ext/1881668453/sys_int.o
 .debug_aranges
                0x00000000000007a0       0x20 build/default/production/_ext/101884895/sys_time.o
 .debug_aranges
                0x00000000000007c0       0x20 build/default/production/_ext/753841488/sys_time_h2_adapter.o
 .debug_aranges
                0x00000000000007e0       0x20 build/default/production/_ext/1171490990/tasks.o
 .debug_aranges
                0x0000000000000800       0x20 build/default/production/_ext/1171490990/interrupts.o
 .debug_aranges
                0x0000000000000820       0x20 build/default/production/_ext/1171490990/exceptions.o
 .debug_aranges
                0x0000000000000840       0x28 build/default/production/_ext/1171490990/initialization.o
 .debug_aranges
                0x0000000000000868       0x28 build/default/production/_ext/1171490990/startup_xc32.o
 .debug_aranges
                0x0000000000000890       0x20 build/default/production/_ext/1171490990/freertos_hooks.o
 .debug_aranges
                0x00000000000008b0       0x20 build/default/production/_ext/246609638/port.o
 .debug_aranges
                0x00000000000008d0       0x20 build/default/production/_ext/1665200909/heap_4.o
 .debug_aranges
                0x00000000000008f0       0x20 build/default/production/_ext/404212886/list.o
 .debug_aranges
                0x0000000000000910       0x20 build/default/production/_ext/404212886/FreeRTOS_tasks.o
 .debug_aranges
                0x0000000000000930       0x20 build/default/production/_ext/404212886/queue.o
 .debug_aranges
                0x0000000000000950       0x20 build/default/production/_ext/1716827871/cmac.o
 .debug_aranges
                0x0000000000000970       0x20 build/default/production/_ext/1716827871/sha256.o
 .debug_aranges
                0x0000000000000990       0x20 build/default/production/_ext/1716827871/random.o
 .debug_aranges
                0x00000000000009b0       0x20 build/default/production/_ext/1716827871/aes.o
 .debug_aranges
                0x00000000000009d0       0x20 build/default/production/_ext/1664057780/misc.o
 .debug_aranges
                0x00000000000009f0       0x20 build/default/production/_ext/1360937237/app_storage_wbz451h.o
 .debug_aranges
                0x0000000000000a10       0x20 build/default/production/_ext/1360937237/app_idle_task.o
 .debug_aranges
                0x0000000000000a30       0x20 build/default/production/_ext/1360937237/app_udp_responder.o
 .debug_aranges
                0x0000000000000a50       0x20 build/default/production/_ext/1360937237/app_tcpip_management.o
 .debug_aranges
                0x0000000000000a70       0x20 build/default/production/_ext/1360937237/app_g3_management.o
 .debug_aranges
                0x0000000000000a90       0x20 build/default/production/_ext/1360937237/main.o
 .debug_aranges
                0x0000000000000ab0       0x20 build/default/production/_ext/1360937237/app_matrix_led.o
 .debug_aranges
                0x0000000000000ad0       0x70 ../src/config/default/driver/lib/lib-ieee802154_phy_pic32cxbz-v1.2.0.a(phy.o)
 .debug_aranges
                0x0000000000000b40       0x38 ../src/config/default/driver/lib/lib-ieee802154_phy_pic32cxbz-v1.2.0.a(phy_ed.o)
 .debug_aranges
                0x0000000000000b78       0xa8 ../src/config/default/driver/lib/lib-ieee802154_phy_pic32cxbz-v1.2.0.a(phy_helper.o)
 .debug_aranges
                0x0000000000000c20       0x70 ../src/config/default/driver/lib/lib-ieee802154_phy_pic32cxbz-v1.2.0.a(phy_init.o)
 .debug_aranges
                0x0000000000000c90       0x58 ../src/config/default/driver/lib/lib-ieee802154_phy_pic32cxbz-v1.2.0.a(phy_irq_handler.o)
 .debug_aranges
                0x0000000000000ce8       0x70 ../src/config/default/driver/lib/lib-ieee802154_phy_pic32cxbz-v1.2.0.a(phy_pib.o)
 .debug_aranges
                0x0000000000000d58       0x40 ../src/config/default/driver/lib/lib-ieee802154_phy_pic32cxbz-v1.2.0.a(phy_pwr_mgmt.o)
 .debug_aranges
                0x0000000000000d98       0xa0 ../src/config/default/driver/lib/lib-ieee802154_phy_pic32cxbz-v1.2.0.a(phy_rx.o)
 .debug_aranges
                0x0000000000000e38       0x20 ../src/config/default/driver/lib/lib-ieee802154_phy_pic32cxbz-v1.2.0.a(phy_rx_enable.o)
 .debug_aranges
                0x0000000000000e58       0xb0 ../src/config/default/driver/lib/lib-ieee802154_phy_pic32cxbz-v1.2.0.a(phy_tx.o)
 .debug_aranges
                0x0000000000000f08       0x50 ../src/config/default/driver/lib/lib-ieee802154_phy_pic32cxbz-v1.2.0.a(tfa.o)
 .debug_aranges
                0x0000000000000f58       0x38 ../src/config/default/driver/lib/lib-ieee802154_phy_pic32cxbz-v1.2.0.a(phy_frame_handling.o)
 .debug_aranges
                0x0000000000000f90       0x20 ../src/config/default/driver/pds/pds.a(wlPdsDataServer.o)
 .debug_aranges
                0x0000000000000fb0       0x20 ../src/config/default/driver/pds/pds.a(wlPdsInit.o)
 .debug_aranges
                0x0000000000000fd0       0x20 ../src/config/default/driver/pds/pds.a(D_Nv.o)
 .debug_aranges
                0x0000000000000ff0       0x20 ../src/config/default/driver/pds/pds.a(S_Nv-Chimera.o)
 .debug_aranges
                0x0000000000001010       0x20 ../src/config/default/driver/device_support/pic32cx_bz2_device_support.a(info_block.o)
 .debug_aranges
                0x0000000000001030       0x20 ../src/config/default/driver/device_support/pic32cx_bz2_device_support.a(rf_system.o)
 .debug_aranges
                0x0000000000001050       0x20 ../src/config/default/driver/device_support/pic32cx_bz2_device_support.a(info_block_plat.o)
 .debug_aranges
                0x0000000000001070       0x20 ../src/config/default/driver/device_support/pic32cx_bz2_device_support.a(pmu_dvr.o)
 .debug_aranges
                0x0000000000001090       0x20 ../src/config/default/driver/device_support/pic32cx_bz2_device_support.a(rf.o)
 .debug_aranges
                0x00000000000010b0       0x30 c:/program files/microchip/xc32/v4.60/bin/bin/../../lib/gcc/pic32c/8.3.1/../../../../pic32c/lib/thumb/v7e-m+fp/hard\libpic32c.a(data_init.o)
 .debug_aranges
                0x00000000000010e0       0x20 c:/program files/microchip/xc32/v4.60/bin/bin/../../lib/gcc/pic32c/8.3.1/../../../../pic32c/lib/thumb/v7e-m+fp/hard\libc-size-musl.a(memcmp.o)
 .debug_aranges
                0x0000000000001100       0x20 c:/program files/microchip/xc32/v4.60/bin/bin/../../lib/gcc/pic32c/8.3.1/../../../../pic32c/lib/thumb/v7e-m+fp/hard\libc-size-musl.a(memcpy.o)
 .debug_aranges
                0x0000000000001120       0x20 c:/program files/microchip/xc32/v4.60/bin/bin/../../lib/gcc/pic32c/8.3.1/../../../../pic32c/lib/thumb/v7e-m+fp/hard\libc-size-musl.a(memmove.o)
 .debug_aranges
                0x0000000000001140       0x20 c:/program files/microchip/xc32/v4.60/bin/bin/../../lib/gcc/pic32c/8.3.1/../../../../pic32c/lib/thumb/v7e-m+fp/hard\libc-size-musl.a(memset.o)
 .debug_aranges
                0x0000000000001160       0x20 c:/program files/microchip/xc32/v4.60/bin/bin/../../lib/gcc/pic32c/8.3.1/../../../../pic32c/lib/thumb/v7e-m+fp/hard\libc-size-musl.a(strlen.o)
 .debug_aranges
                0x0000000000001180       0x20 c:/program files/microchip/xc32/v4.60/bin/bin/../../lib/gcc/pic32c/8.3.1/../../../../pic32c/lib/thumb/v7e-m+fp/hard\libc-size-musl.a(strcmp.o)
 .debug_aranges
                0x00000000000011a0       0x20 c:/program files/microchip/xc32/v4.60/bin/bin/../../lib/gcc/pic32c/8.3.1/../../../../pic32c/lib/thumb/v7e-m+fp/hard\libc-size-musl.a(strncpy.o)
 .debug_aranges
                0x00000000000011c0       0x20 c:/program files/microchip/xc32/v4.60/bin/bin/../../lib/gcc/pic32c/8.3.1/../../../../pic32c/lib/thumb/v7e-m+fp/hard\libc-size-musl.a(strrchr.o)
 .debug_aranges
                0x00000000000011e0       0x20 c:/program files/microchip/xc32/v4.60/bin/bin/../../lib/gcc/pic32c/8.3.1/../../../../pic32c/lib/thumb/v7e-m+fp/hard\libc-size-musl.a(memrchr.o)
 .debug_aranges
                0x0000000000001200       0x20 c:/program files/microchip/xc32/v4.60/bin/bin/../../lib/gcc/pic32c/8.3.1/../../../../pic32c/lib/thumb/v7e-m+fp/hard\libc-size-musl.a(stpncpy.o)
 .debug_aranges
                0x0000000000001220       0x30 c:/program files/microchip/xc32/v4.60/bin/bin/../../lib/gcc/pic32c/8.3.1/../../../../pic32c/lib/thumb/v7e-m+fp/hard\liblmalloc-musl.a(lite_free.o)
 .debug_aranges
                0x0000000000001250       0x20 c:/program files/microchip/xc32/v4.60/bin/bin/../../lib/gcc/pic32c/8.3.1/../../../../pic32c/lib/thumb/v7e-m+fp/hard\liblmalloc-musl.a(lite_malloc.o)
 .debug_aranges
                0x0000000000001270       0x28 c:/program files/microchip/xc32/v4.60/bin/bin/../../lib/gcc/pic32c/8.3.1/../../../../pic32c/lib/thumb/v7e-m+fp/hard\libc-musl.a(isxdigit.o)
 .debug_aranges
                0x0000000000001298       0x28 c:/program files/microchip/xc32/v4.60/bin/bin/../../lib/gcc/pic32c/8.3.1/../../../../pic32c/lib/thumb/v7e-m+fp/hard\libc-musl.a(tolower.o)
 .debug_aranges
                0x00000000000012c0       0x28 c:/program files/microchip/xc32/v4.60/bin/bin/../../lib/gcc/pic32c/8.3.1/../../../../pic32c/lib/thumb/v7e-m+fp/hard\libc-musl.a(toupper.o)
 .debug_aranges
                0x00000000000012e8       0x28 c:/program files/microchip/xc32/v4.60/bin/bin/../../lib/gcc/pic32c/8.3.1/../../../../pic32c/lib/thumb/v7e-m+fp/hard\libc-musl.a(__libc_start_main.o)
 .debug_aranges
                0x0000000000001310       0x18 c:/program files/microchip/xc32/v4.60/bin/bin/../../lib/gcc/pic32c/8.3.1/../../../../pic32c/lib/thumb/v7e-m+fp/hard\libc-musl.a(__errno_location.o)
 .debug_aranges
                0x0000000000001328       0x18 c:/program files/microchip/xc32/v4.60/bin/bin/../../lib/gcc/pic32c/8.3.1/../../../../pic32c/lib/thumb/v7e-m+fp/hard\libc-musl.a(libc.o)
 .debug_aranges
                0x0000000000001340       0x20 c:/program files/microchip/xc32/v4.60/bin/bin/../../lib/gcc/pic32c/8.3.1/../../../../pic32c/lib/thumb/v7e-m+fp/hard\libc-musl.a(expand_heap.o)
 .debug_aranges
                0x0000000000001360       0x28 c:/program files/microchip/xc32/v4.60/bin/bin/../../lib/gcc/pic32c/8.3.1/../../../../pic32c/lib/thumb/v7e-m+fp/hard\libc-musl.a(rand.o)
 .debug_aranges
                0x0000000000001388       0x20 c:/program files/microchip/xc32/v4.60/bin/bin/../../lib/gcc/pic32c/8.3.1/../../../../pic32c/lib/thumb/v7e-m+fp/hard\libc-musl.a(vsnprintf.o)
 .debug_aranges
                0x00000000000013a8       0x20 c:/program files/microchip/xc32/v4.60/bin/bin/../../lib/gcc/pic32c/8.3.1/../../../../pic32c/lib/thumb/v7e-m+fp/hard\libc-musl.a(snprintf.o)
 .debug_aranges
                0x00000000000013c8       0x20 c:/program files/microchip/xc32/v4.60/bin/bin/../../lib/gcc/pic32c/8.3.1/../../../../pic32c/lib/thumb/v7e-m+fp/hard\libc-musl.a(sprintf.o)
 .debug_aranges
                0x00000000000013e8       0x20 c:/program files/microchip/xc32/v4.60/bin/bin/../../lib/gcc/pic32c/8.3.1/../../../../pic32c/lib/thumb/v7e-m+fp/hard\libc-musl.a(vsprintf.o)
 .debug_aranges
                0x0000000000001408       0x50 c:/program files/microchip/xc32/v4.60/bin/bin/../../lib/gcc/pic32c/8.3.1/../../../../pic32c/lib/thumb/v7e-m+fp/hard\libc-musl.a(strtol.o)
 .debug_aranges
                0x0000000000001458       0x18 c:/program files/microchip/xc32/v4.60/bin/bin/../../lib/gcc/pic32c/8.3.1/../../../../pic32c/lib/thumb/v7e-m+fp/hard\libc-musl.a(__environ.o)
 .debug_aranges
                0x0000000000001470       0x20 c:/program files/microchip/xc32/v4.60/bin/bin/../../lib/gcc/pic32c/8.3.1/../../../../pic32c/lib/thumb/v7e-m+fp/hard\libc-musl.a(intscan.o)
 .debug_aranges
                0x0000000000001490       0x28 c:/program files/microchip/xc32/v4.60/bin/bin/../../lib/gcc/pic32c/8.3.1/../../../../pic32c/lib/thumb/v7e-m+fp/hard\libc-musl.a(shgetc.o)
 .debug_aranges
                0x00000000000014b8       0x20 c:/program files/microchip/xc32/v4.60/bin/bin/../../lib/gcc/pic32c/8.3.1/../../../../pic32c/lib/thumb/v7e-m+fp/hard\libc-musl.a(__uflow.o)
 .debug_aranges
                0x00000000000014d8       0x28 c:/program files/microchip/xc32/v4.60/bin/bin/../../lib/gcc/pic32c/8.3.1/../../../../pic32c/lib/thumb/v7e-m+fp/hard\libc-musl.a(vfprintf.o)
 .debug_aranges
                0x0000000000001500       0x28 c:/program files/microchip/xc32/v4.60/bin/bin/../../lib/gcc/pic32c/8.3.1/../../../../pic32c/lib/thumb/v7e-m+fp/hard\libc-musl.a(__toread.o)
 .debug_aranges
                0x0000000000001528       0x20 c:/program files/microchip/xc32/v4.60/bin/bin/../../lib/gcc/pic32c/8.3.1/../../../../pic32c/lib/thumb/v7e-m+fp/hard\libc-musl.a(__pop_float.o)
 .debug_aranges
                0x0000000000001548       0x20 c:/program files/microchip/xc32/v4.60/bin/bin/../../lib/gcc/pic32c/8.3.1/../../../../pic32c/lib/thumb/v7e-m+fp/hard\libc-musl.a(__pop_int.o)
 .debug_aranges
                0x0000000000001568       0x20 c:/program files/microchip/xc32/v4.60/bin/bin/../../lib/gcc/pic32c/8.3.1/../../../../pic32c/lib/thumb/v7e-m+fp/hard\libc-musl.a(__pop_ptr.o)
 .debug_aranges
                0x0000000000001588       0x50 c:/program files/microchip/xc32/v4.60/bin/bin/../../lib/gcc/pic32c/8.3.1/../../../../pic32c/lib/thumb/v7e-m+fp/hard\libc-musl.a(__printf_core.o)
 .debug_aranges
                0x00000000000015d8       0x20 c:/program files/microchip/xc32/v4.60/bin/bin/../../lib/gcc/pic32c/8.3.1/../../../../pic32c/lib/thumb/v7e-m+fp/hard\libc-musl.a(atoi.o)
 .debug_aranges
                0x00000000000015f8       0x20 c:/program files/microchip/xc32/v4.60/bin/bin/../../lib/gcc/pic32c/8.3.1/../../../../pic32c/lib/thumb/v7e-m+fp/hard\libc-musl.a(__fmt_a.o)
 .debug_aranges
                0x0000000000001618       0x20 c:/program files/microchip/xc32/v4.60/bin/bin/../../lib/gcc/pic32c/8.3.1/../../../../pic32c/lib/thumb/v7e-m+fp/hard\libc-musl.a(__fmt_d.o)
 .debug_aranges
                0x0000000000001638       0x20 c:/program files/microchip/xc32/v4.60/bin/bin/../../lib/gcc/pic32c/8.3.1/../../../../pic32c/lib/thumb/v7e-m+fp/hard\libc-musl.a(__fmt_fp.o)
 .debug_aranges
                0x0000000000001658       0x20 c:/program files/microchip/xc32/v4.60/bin/bin/../../lib/gcc/pic32c/8.3.1/../../../../pic32c/lib/thumb/v7e-m+fp/hard\libc-musl.a(__fmt_o.o)
 .debug_aranges
                0x0000000000001678       0x20 c:/program files/microchip/xc32/v4.60/bin/bin/../../lib/gcc/pic32c/8.3.1/../../../../pic32c/lib/thumb/v7e-m+fp/hard\libc-musl.a(__fmt_s.o)
 .debug_aranges
                0x0000000000001698       0x20 c:/program files/microchip/xc32/v4.60/bin/bin/../../lib/gcc/pic32c/8.3.1/../../../../pic32c/lib/thumb/v7e-m+fp/hard\libc-musl.a(__fmt_u.o)
 .debug_aranges
                0x00000000000016b8       0x20 c:/program files/microchip/xc32/v4.60/bin/bin/../../lib/gcc/pic32c/8.3.1/../../../../pic32c/lib/thumb/v7e-m+fp/hard\libc-musl.a(__fmt_x.o)
 .debug_aranges
                0x00000000000016d8       0x20 c:/program files/microchip/xc32/v4.60/bin/bin/../../lib/gcc/pic32c/8.3.1/../../../../pic32c/lib/thumb/v7e-m+fp/hard\libc-musl.a(__cvt_u.o)
 .debug_aranges
                0x00000000000016f8       0x20 c:/program files/microchip/xc32/v4.60/bin/bin/../../lib/gcc/pic32c/8.3.1/thumb/v7e-m+fp/hard\libgcc.a(_aeabi_uldivmod.o)
 .debug_aranges
                0x0000000000001718       0x20 c:/program files/microchip/xc32/v4.60/bin/bin/../../lib/gcc/pic32c/8.3.1/thumb/v7e-m+fp/hard\libgcc.a(_udivmoddi4.o)
 .debug_aranges
                0x0000000000001738       0x20 c:/program files/microchip/xc32/v4.60/bin/bin/../../lib/gcc/pic32c/8.3.1/thumb/v7e-m+fp/hard\libgcc.a(_dvmd_tls.o)
 .debug_aranges
                0x0000000000001758       0x30 c:/program files/microchip/xc32/v4.60/bin/bin/../../lib/gcc/pic32c/8.3.1/../../../../pic32c/lib/thumb/v7e-m+fp/hard\libpic32c.a(sbrk.o)
 .debug_aranges
                0x0000000000001788       0x20 c:/program files/microchip/xc32/v4.60/bin/bin/../../lib/gcc/pic32c/8.3.1/../../../../pic32c/lib/thumb/v7e-m+fp/hard\libc-size-musl.a(strcpy.o)
 .debug_aranges
                0x00000000000017a8       0x20 c:/program files/microchip/xc32/v4.60/bin/bin/../../lib/gcc/pic32c/8.3.1/../../../../pic32c/lib/thumb/v7e-m+fp/hard\libc-size-musl.a(stpcpy.o)
 .debug_aranges
                0x00000000000017c8       0x20 c:/program files/microchip/xc32/v4.60/bin/bin/../../lib/gcc/pic32c/8.3.1/../../../../pic32c/lib/thumb/v7e-m+fp/hard\libpic32c.a(pic32_data_init_clear.o)
 .debug_aranges
                0x00000000000017e8       0x20 c:/program files/microchip/xc32/v4.60/bin/bin/../../lib/gcc/pic32c/8.3.1/../../../../pic32c/lib/thumb/v7e-m+fp/hard\libpic32c.a(pic32_data_init_copy.o)

.debug_line     0x0000000000000000    0x4299a
 .debug_line    0x0000000000000000       0xd3 build/default/production/_ext/1434821282/bsp.o
 .debug_line    0x00000000000000d3      0x477 build/default/production/_ext/1726652707/MCHP_Crypto_Aead_WolfCryptWrapper.o
 .debug_line    0x000000000000054a      0x299 build/default/production/_ext/1726652707/MCHP_Crypto_Mac_WolfCryptWrapper.o
 .debug_line    0x00000000000007e3      0x3c1 build/default/production/_ext/1726652707/MCHP_Crypto_Sym_WolfcryptWrapper.o
 .debug_line    0x0000000000000ba4      0x5cd build/default/production/_ext/1726652707/MCHP_Crypto_Aead_Cipher.o
 .debug_line    0x0000000000001171      0x319 build/default/production/_ext/1726652707/MCHP_Crypto_Mac_Cipher.o
 .debug_line    0x000000000000148a      0x41f build/default/production/_ext/1726652707/MCHP_Crypto_Sym_Cipher.o
 .debug_line    0x00000000000018a9      0x627 build/default/production/_ext/745501718/pal.o
 .debug_line    0x0000000000001ed0       0xcb build/default/production/_ext/957911548/phy_ed_end_cb.o
 .debug_line    0x0000000000001f9b      0x1c2 build/default/production/_ext/957911548/phy_task.o
 .debug_line    0x000000000000215d      0x163 build/default/production/_ext/957911548/phy_rx_frame_cb.o
 .debug_line    0x00000000000022c0      0x2bc build/default/production/_ext/1374435801/bmm.o
 .debug_line    0x000000000000257c      0x350 build/default/production/_ext/874725666/qmm.o
 .debug_line    0x00000000000028cc      0x6a4 build/default/production/_ext/1014741959/drv_plc_boot.o
 .debug_line    0x0000000000002f70      0x8bf build/default/production/_ext/1014741959/drv_plc_hal.o
 .debug_line    0x000000000000382f      0xce3 build/default/production/_ext/410113559/drv_g3_macrt_local_comm.o
 .debug_line    0x0000000000004512      0x697 build/default/production/_ext/410113559/drv_g3_macrt.o
 .debug_line    0x0000000000004ba9      0x314 build/default/production/_ext/1033058136/helpers.o
 .debug_line    0x0000000000004ebd      0x31a build/default/production/_ext/1033058136/tcpip_notify.o
 .debug_line    0x00000000000051d7     0x1acc build/default/production/_ext/1033058136/ndp.o
 .debug_line    0x0000000000006ca3     0x3074 build/default/production/_ext/1033058136/udp.o
 .debug_line    0x0000000000009d17      0x761 build/default/production/_ext/1033058136/tcpip_packet.o
 .debug_line    0x000000000000a478     0x46ce build/default/production/_ext/1033058136/ipv6.o
 .debug_line    0x000000000000eb46     0x1593 build/default/production/_ext/1033058136/icmpv6.o
 .debug_line    0x00000000000100d9     0x385d build/default/production/_ext/1033058136/tcpip_manager.o
 .debug_line    0x0000000000013936     0x23a4 build/default/production/_ext/1033058136/tcpip_helpers.o
 .debug_line    0x0000000000015cda      0x183 build/default/production/_ext/1033058136/tcpip_heap_alloc.o
 .debug_line    0x0000000000015e5d      0x800 build/default/production/_ext/1033058136/tcpip_heap_internal.o
 .debug_line    0x000000000001665d      0x380 build/default/production/_ext/1529399856/osal_freertos.o
 .debug_line    0x00000000000169dd      0x26b build/default/production/_ext/1529399856/osal_freertos_extend.o
 .debug_line    0x0000000000016c48      0x290 build/default/production/_ext/60165520/plib_clk.o
 .debug_line    0x0000000000016ed8      0x67c build/default/production/_ext/1865161661/plib_dmac.o
 .debug_line    0x0000000000017554      0x20c build/default/production/_ext/60167341/plib_eic.o
 .debug_line    0x0000000000017760       0x66 build/default/production/_ext/1986646378/plib_evsys.o
 .debug_line    0x00000000000177c6      0x218 build/default/production/_ext/1865254177/plib_gpio.o
 .debug_line    0x00000000000179de      0x569 build/default/production/_ext/1865468468/plib_nvic.o
 .debug_line    0x0000000000017f47      0x87b build/default/production/_ext/60176403/plib_nvm.o
 .debug_line    0x00000000000187c2      0x49f build/default/production/_ext/17022449/plib_sercom2_spi_master.o
 .debug_line    0x0000000000018c61      0xd04 build/default/production/_ext/504274921/plib_sercom1_usart.o
 .debug_line    0x0000000000019965      0x299 build/default/production/_ext/829342655/plib_tc0.o
 .debug_line    0x0000000000019bfe      0x10c build/default/production/_ext/1865643529/plib_trng.o
 .debug_line    0x0000000000019d0a      0x12d build/default/production/_ext/60184501/plib_wdt.o
 .debug_line    0x0000000000019e37      0x57c build/default/production/_ext/2064362748/srv_pcoup.o
 .debug_line    0x000000000001a3b3      0x6c4 build/default/production/_ext/2065812886/srv_queue.o
 .debug_line    0x000000000001aa77      0x1db build/default/production/_ext/373899042/srv_random.o
 .debug_line    0x000000000001ac52      0x237 build/default/production/_ext/2135967589/cipher_wrapper.o
 .debug_line    0x000000000001ae89      0x134 build/default/production/_ext/2135967589/aes_wrapper.o
 .debug_line    0x000000000001afbd      0x38d build/default/production/_ext/1534551086/lbp_encode_decode.o
 .debug_line    0x000000000001b34a     0x180d build/default/production/_ext/1534551086/lbp_dev.o
 .debug_line    0x000000000001cb57      0x514 build/default/production/_ext/1534551086/routing_wrapper.o
 .debug_line    0x000000000001d06b      0xb94 build/default/production/_ext/1534551086/eap_psk.o
 .debug_line    0x000000000001dbff      0x790 build/default/production/_ext/1632721610/mac_common.o
 .debug_line    0x000000000001e38f     0x12d9 build/default/production/_ext/1570337448/mac_wrapper.o
 .debug_line    0x000000000001f668      0xc76 build/default/production/_ext/710515956/drv_mac_g3adp.o
 .debug_line    0x00000000000202de      0xa63 build/default/production/_ext/977769160/pal_plc.o
 .debug_line    0x0000000000020d41     0x134f build/default/production/_ext/1278466877/pal_rf.o
 .debug_line    0x0000000000022090      0x57d build/default/production/_ext/1832805299/sys_console_uart.o
 .debug_line    0x000000000002260d      0x545 build/default/production/_ext/1832805299/sys_console.o
 .debug_line    0x0000000000022b52      0x1bf build/default/production/_ext/944882569/sys_debug.o
 .debug_line    0x0000000000022d11      0x147 build/default/production/_ext/14461671/sys_dma.o
 .debug_line    0x0000000000022e58      0x2b7 build/default/production/_ext/1881668453/sys_int.o
 .debug_line    0x000000000002310f     0x12b7 build/default/production/_ext/101884895/sys_time.o
 .debug_line    0x00000000000243c6      0x1d1 build/default/production/_ext/753841488/sys_time_h2_adapter.o
 .debug_line    0x0000000000024597      0x4c6 build/default/production/_ext/1171490990/tasks.o
 .debug_line    0x0000000000024a5d      0x180 build/default/production/_ext/1171490990/interrupts.o
 .debug_line    0x0000000000024bdd       0xab build/default/production/_ext/1171490990/exceptions.o
 .debug_line    0x0000000000024c88      0xc33 build/default/production/_ext/1171490990/initialization.o
 .debug_line    0x00000000000258bb      0x243 build/default/production/_ext/1171490990/startup_xc32.o
 .debug_line    0x0000000000025afe      0x1d7 build/default/production/_ext/1171490990/freertos_hooks.o
 .debug_line    0x0000000000025cd5      0x36a build/default/production/_ext/246609638/port.o
 .debug_line    0x000000000002603f      0x5f9 build/default/production/_ext/1665200909/heap_4.o
 .debug_line    0x0000000000026638      0x2d9 build/default/production/_ext/404212886/list.o
 .debug_line    0x0000000000026911     0x22dc build/default/production/_ext/404212886/FreeRTOS_tasks.o
 .debug_line    0x0000000000028bed     0x14b3 build/default/production/_ext/404212886/queue.o
 .debug_line    0x000000000002a0a0      0x5b1 build/default/production/_ext/1716827871/cmac.o
 .debug_line    0x000000000002a651      0x8b5 build/default/production/_ext/1716827871/sha256.o
 .debug_line    0x000000000002af06      0xe20 build/default/production/_ext/1716827871/random.o
 .debug_line    0x000000000002bd26     0x4168 build/default/production/_ext/1716827871/aes.o
 .debug_line    0x000000000002fe8e      0x6f7 build/default/production/_ext/1664057780/misc.o
 .debug_line    0x0000000000030585      0x4ac build/default/production/_ext/1360937237/app_storage_wbz451h.o
 .debug_line    0x0000000000030a31      0x257 build/default/production/_ext/1360937237/app_idle_task.o
 .debug_line    0x0000000000030c88      0x6d5 build/default/production/_ext/1360937237/app_udp_responder.o
 .debug_line    0x000000000003135d      0x501 build/default/production/_ext/1360937237/app_tcpip_management.o
 .debug_line    0x000000000003185e     0x10b0 build/default/production/_ext/1360937237/app_g3_management.o
 .debug_line    0x000000000003290e       0x75 build/default/production/_ext/1360937237/main.o
 .debug_line    0x0000000000032983      0x50b build/default/production/_ext/1360937237/app_matrix_led.o
 .debug_line    0x0000000000032e8e      0x997 ../src/config/default/driver/lib/lib-ieee802154_phy_pic32cxbz-v1.2.0.a(phy.o)
 .debug_line    0x0000000000033825      0x538 ../src/config/default/driver/lib/lib-ieee802154_phy_pic32cxbz-v1.2.0.a(phy_ed.o)
 .debug_line    0x0000000000033d5d      0xb4d ../src/config/default/driver/lib/lib-ieee802154_phy_pic32cxbz-v1.2.0.a(phy_helper.o)
 .debug_line    0x00000000000348aa      0x99f ../src/config/default/driver/lib/lib-ieee802154_phy_pic32cxbz-v1.2.0.a(phy_init.o)
 .debug_line    0x0000000000035249      0x7f4 ../src/config/default/driver/lib/lib-ieee802154_phy_pic32cxbz-v1.2.0.a(phy_irq_handler.o)
 .debug_line    0x0000000000035a3d      0xf56 ../src/config/default/driver/lib/lib-ieee802154_phy_pic32cxbz-v1.2.0.a(phy_pib.o)
 .debug_line    0x0000000000036993      0x509 ../src/config/default/driver/lib/lib-ieee802154_phy_pic32cxbz-v1.2.0.a(phy_pwr_mgmt.o)
 .debug_line    0x0000000000036e9c      0xb11 ../src/config/default/driver/lib/lib-ieee802154_phy_pic32cxbz-v1.2.0.a(phy_rx.o)
 .debug_line    0x00000000000379ad      0x1dd ../src/config/default/driver/lib/lib-ieee802154_phy_pic32cxbz-v1.2.0.a(phy_rx_enable.o)
 .debug_line    0x0000000000037b8a      0xc2d ../src/config/default/driver/lib/lib-ieee802154_phy_pic32cxbz-v1.2.0.a(phy_tx.o)
 .debug_line    0x00000000000387b7      0x65d ../src/config/default/driver/lib/lib-ieee802154_phy_pic32cxbz-v1.2.0.a(tfa.o)
 .debug_line    0x0000000000038e14      0x133 ../src/config/default/driver/lib/lib-ieee802154_phy_pic32cxbz-v1.2.0.a(phy_frame_handling.o)
 .debug_line    0x0000000000038f47      0xb32 ../src/config/default/driver/pds/pds.a(wlPdsDataServer.o)
 .debug_line    0x0000000000039a79      0x30e ../src/config/default/driver/pds/pds.a(wlPdsInit.o)
 .debug_line    0x0000000000039d87      0x5c1 ../src/config/default/driver/pds/pds.a(D_Nv.o)
 .debug_line    0x000000000003a348     0x12c5 ../src/config/default/driver/pds/pds.a(S_Nv-Chimera.o)
 .debug_line    0x000000000003b60d      0x911 ../src/config/default/driver/device_support/pic32cx_bz2_device_support.a(info_block.o)
 .debug_line    0x000000000003bf1e      0x865 ../src/config/default/driver/device_support/pic32cx_bz2_device_support.a(rf_system.o)
 .debug_line    0x000000000003c783      0x30a ../src/config/default/driver/device_support/pic32cx_bz2_device_support.a(info_block_plat.o)
 .debug_line    0x000000000003ca8d      0x18f ../src/config/default/driver/device_support/pic32cx_bz2_device_support.a(pmu_dvr.o)
 .debug_line    0x000000000003cc1c      0x2cb ../src/config/default/driver/device_support/pic32cx_bz2_device_support.a(rf.o)
 .debug_line    0x000000000003cee7       0xa7 c:/program files/microchip/xc32/v4.60/bin/bin/../../lib/gcc/pic32c/8.3.1/../../../../pic32c/lib/thumb/v7e-m+fp/hard\libpic32c.a(data_init.o)
 .debug_line    0x000000000003cf8e       0xdf c:/program files/microchip/xc32/v4.60/bin/bin/../../lib/gcc/pic32c/8.3.1/../../../../pic32c/lib/thumb/v7e-m+fp/hard\libc-size-musl.a(memcmp.o)
 .debug_line    0x000000000003d06d       0xf9 c:/program files/microchip/xc32/v4.60/bin/bin/../../lib/gcc/pic32c/8.3.1/../../../../pic32c/lib/thumb/v7e-m+fp/hard\libc-size-musl.a(memcpy.o)
 .debug_line    0x000000000003d166      0x11e c:/program files/microchip/xc32/v4.60/bin/bin/../../lib/gcc/pic32c/8.3.1/../../../../pic32c/lib/thumb/v7e-m+fp/hard\libc-size-musl.a(memmove.o)
 .debug_line    0x000000000003d284       0xe3 c:/program files/microchip/xc32/v4.60/bin/bin/../../lib/gcc/pic32c/8.3.1/../../../../pic32c/lib/thumb/v7e-m+fp/hard\libc-size-musl.a(memset.o)
 .debug_line    0x000000000003d367       0xe6 c:/program files/microchip/xc32/v4.60/bin/bin/../../lib/gcc/pic32c/8.3.1/../../../../pic32c/lib/thumb/v7e-m+fp/hard\libc-size-musl.a(strlen.o)
 .debug_line    0x000000000003d44d       0xba c:/program files/microchip/xc32/v4.60/bin/bin/../../lib/gcc/pic32c/8.3.1/../../../../pic32c/lib/thumb/v7e-m+fp/hard\libc-size-musl.a(strcmp.o)
 .debug_line    0x000000000003d507       0xcd c:/program files/microchip/xc32/v4.60/bin/bin/../../lib/gcc/pic32c/8.3.1/../../../../pic32c/lib/thumb/v7e-m+fp/hard\libc-size-musl.a(strncpy.o)
 .debug_line    0x000000000003d5d4      0x11d c:/program files/microchip/xc32/v4.60/bin/bin/../../lib/gcc/pic32c/8.3.1/../../../../pic32c/lib/thumb/v7e-m+fp/hard\libc-size-musl.a(strrchr.o)
 .debug_line    0x000000000003d6f1       0xde c:/program files/microchip/xc32/v4.60/bin/bin/../../lib/gcc/pic32c/8.3.1/../../../../pic32c/lib/thumb/v7e-m+fp/hard\libc-size-musl.a(memrchr.o)
 .debug_line    0x000000000003d7cf      0x138 c:/program files/microchip/xc32/v4.60/bin/bin/../../lib/gcc/pic32c/8.3.1/../../../../pic32c/lib/thumb/v7e-m+fp/hard\libc-size-musl.a(stpncpy.o)
 .debug_line    0x000000000003d907      0x269 c:/program files/microchip/xc32/v4.60/bin/bin/../../lib/gcc/pic32c/8.3.1/../../../../pic32c/lib/thumb/v7e-m+fp/hard\liblmalloc-musl.a(lite_free.o)
 .debug_line    0x000000000003db70      0x1ca c:/program files/microchip/xc32/v4.60/bin/bin/../../lib/gcc/pic32c/8.3.1/../../../../pic32c/lib/thumb/v7e-m+fp/hard\liblmalloc-musl.a(lite_malloc.o)
 .debug_line    0x000000000003dd3a      0x15a c:/program files/microchip/xc32/v4.60/bin/bin/../../lib/gcc/pic32c/8.3.1/../../../../pic32c/lib/thumb/v7e-m+fp/hard\libc-musl.a(isxdigit.o)
 .debug_line    0x000000000003de94      0x157 c:/program files/microchip/xc32/v4.60/bin/bin/../../lib/gcc/pic32c/8.3.1/../../../../pic32c/lib/thumb/v7e-m+fp/hard\libc-musl.a(tolower.o)
 .debug_line    0x000000000003dfeb      0x157 c:/program files/microchip/xc32/v4.60/bin/bin/../../lib/gcc/pic32c/8.3.1/../../../../pic32c/lib/thumb/v7e-m+fp/hard\libc-musl.a(toupper.o)
 .debug_line    0x000000000003e142      0x1c7 c:/program files/microchip/xc32/v4.60/bin/bin/../../lib/gcc/pic32c/8.3.1/../../../../pic32c/lib/thumb/v7e-m+fp/hard\libc-musl.a(__libc_start_main.o)
 .debug_line    0x000000000003e309       0x9a c:/program files/microchip/xc32/v4.60/bin/bin/../../lib/gcc/pic32c/8.3.1/../../../../pic32c/lib/thumb/v7e-m+fp/hard\libc-musl.a(__errno_location.o)
 .debug_line    0x000000000003e3a3       0xb5 c:/program files/microchip/xc32/v4.60/bin/bin/../../lib/gcc/pic32c/8.3.1/../../../../pic32c/lib/thumb/v7e-m+fp/hard\libc-musl.a(libc.o)
 .debug_line    0x000000000003e458       0xef c:/program files/microchip/xc32/v4.60/bin/bin/../../lib/gcc/pic32c/8.3.1/../../../../pic32c/lib/thumb/v7e-m+fp/hard\libc-musl.a(expand_heap.o)
 .debug_line    0x000000000003e547       0xf1 c:/program files/microchip/xc32/v4.60/bin/bin/../../lib/gcc/pic32c/8.3.1/../../../../pic32c/lib/thumb/v7e-m+fp/hard\libc-musl.a(rand.o)
 .debug_line    0x000000000003e638      0x22d c:/program files/microchip/xc32/v4.60/bin/bin/../../lib/gcc/pic32c/8.3.1/../../../../pic32c/lib/thumb/v7e-m+fp/hard\libc-musl.a(vsnprintf.o)
 .debug_line    0x000000000003e865      0x152 c:/program files/microchip/xc32/v4.60/bin/bin/../../lib/gcc/pic32c/8.3.1/../../../../pic32c/lib/thumb/v7e-m+fp/hard\libc-musl.a(snprintf.o)
 .debug_line    0x000000000003e9b7      0x151 c:/program files/microchip/xc32/v4.60/bin/bin/../../lib/gcc/pic32c/8.3.1/../../../../pic32c/lib/thumb/v7e-m+fp/hard\libc-musl.a(sprintf.o)
 .debug_line    0x000000000003eb08      0x140 c:/program files/microchip/xc32/v4.60/bin/bin/../../lib/gcc/pic32c/8.3.1/../../../../pic32c/lib/thumb/v7e-m+fp/hard\libc-musl.a(vsprintf.o)
 .debug_line    0x000000000003ec48      0x2d4 c:/program files/microchip/xc32/v4.60/bin/bin/../../lib/gcc/pic32c/8.3.1/../../../../pic32c/lib/thumb/v7e-m+fp/hard\libc-musl.a(strtol.o)
 .debug_line    0x000000000003ef1c       0xfb c:/program files/microchip/xc32/v4.60/bin/bin/../../lib/gcc/pic32c/8.3.1/../../../../pic32c/lib/thumb/v7e-m+fp/hard\libc-musl.a(__environ.o)
 .debug_line    0x000000000003f017      0x4a0 c:/program files/microchip/xc32/v4.60/bin/bin/../../lib/gcc/pic32c/8.3.1/../../../../pic32c/lib/thumb/v7e-m+fp/hard\libc-musl.a(intscan.o)
 .debug_line    0x000000000003f4b7      0x1fa c:/program files/microchip/xc32/v4.60/bin/bin/../../lib/gcc/pic32c/8.3.1/../../../../pic32c/lib/thumb/v7e-m+fp/hard\libc-musl.a(shgetc.o)
 .debug_line    0x000000000003f6b1      0x1be c:/program files/microchip/xc32/v4.60/bin/bin/../../lib/gcc/pic32c/8.3.1/../../../../pic32c/lib/thumb/v7e-m+fp/hard\libc-musl.a(__uflow.o)
 .debug_line    0x000000000003f86f      0x1e6 c:/program files/microchip/xc32/v4.60/bin/bin/../../lib/gcc/pic32c/8.3.1/../../../../pic32c/lib/thumb/v7e-m+fp/hard\libc-musl.a(vfprintf.o)
 .debug_line    0x000000000003fa55      0x20e c:/program files/microchip/xc32/v4.60/bin/bin/../../lib/gcc/pic32c/8.3.1/../../../../pic32c/lib/thumb/v7e-m+fp/hard\libc-musl.a(__toread.o)
 .debug_line    0x000000000003fc63      0x165 c:/program files/microchip/xc32/v4.60/bin/bin/../../lib/gcc/pic32c/8.3.1/../../../../pic32c/lib/thumb/v7e-m+fp/hard\libc-musl.a(__pop_float.o)
 .debug_line    0x000000000003fdc8      0x200 c:/program files/microchip/xc32/v4.60/bin/bin/../../lib/gcc/pic32c/8.3.1/../../../../pic32c/lib/thumb/v7e-m+fp/hard\libc-musl.a(__pop_int.o)
 .debug_line    0x000000000003ffc8      0x1e0 c:/program files/microchip/xc32/v4.60/bin/bin/../../lib/gcc/pic32c/8.3.1/../../../../pic32c/lib/thumb/v7e-m+fp/hard\libc-musl.a(__pop_ptr.o)
 .debug_line    0x00000000000401a8      0x692 c:/program files/microchip/xc32/v4.60/bin/bin/../../lib/gcc/pic32c/8.3.1/../../../../pic32c/lib/thumb/v7e-m+fp/hard\libc-musl.a(__printf_core.o)
 .debug_line    0x000000000004083a      0x167 c:/program files/microchip/xc32/v4.60/bin/bin/../../lib/gcc/pic32c/8.3.1/../../../../pic32c/lib/thumb/v7e-m+fp/hard\libc-musl.a(atoi.o)
 .debug_line    0x00000000000409a1      0x630 c:/program files/microchip/xc32/v4.60/bin/bin/../../lib/gcc/pic32c/8.3.1/../../../../pic32c/lib/thumb/v7e-m+fp/hard\libc-musl.a(__fmt_a.o)
 .debug_line    0x0000000000040fd1      0x1ff c:/program files/microchip/xc32/v4.60/bin/bin/../../lib/gcc/pic32c/8.3.1/../../../../pic32c/lib/thumb/v7e-m+fp/hard\libc-musl.a(__fmt_d.o)
 .debug_line    0x00000000000411d0      0x66b c:/program files/microchip/xc32/v4.60/bin/bin/../../lib/gcc/pic32c/8.3.1/../../../../pic32c/lib/thumb/v7e-m+fp/hard\libc-musl.a(__fmt_fp.o)
 .debug_line    0x000000000004183b      0x1a9 c:/program files/microchip/xc32/v4.60/bin/bin/../../lib/gcc/pic32c/8.3.1/../../../../pic32c/lib/thumb/v7e-m+fp/hard\libc-musl.a(__fmt_o.o)
 .debug_line    0x00000000000419e4      0x1eb c:/program files/microchip/xc32/v4.60/bin/bin/../../lib/gcc/pic32c/8.3.1/../../../../pic32c/lib/thumb/v7e-m+fp/hard\libc-musl.a(__fmt_s.o)
 .debug_line    0x0000000000041bcf      0x188 c:/program files/microchip/xc32/v4.60/bin/bin/../../lib/gcc/pic32c/8.3.1/../../../../pic32c/lib/thumb/v7e-m+fp/hard\libc-musl.a(__fmt_u.o)
 .debug_line    0x0000000000041d57      0x2ca c:/program files/microchip/xc32/v4.60/bin/bin/../../lib/gcc/pic32c/8.3.1/../../../../pic32c/lib/thumb/v7e-m+fp/hard\libc-musl.a(__fmt_x.o)
 .debug_line    0x0000000000042021      0x1cb c:/program files/microchip/xc32/v4.60/bin/bin/../../lib/gcc/pic32c/8.3.1/../../../../pic32c/lib/thumb/v7e-m+fp/hard\libc-musl.a(__cvt_u.o)
 .debug_line    0x00000000000421ec       0x91 c:/program files/microchip/xc32/v4.60/bin/bin/../../lib/gcc/pic32c/8.3.1/thumb/v7e-m+fp/hard\libgcc.a(_aeabi_uldivmod.o)
 .debug_line    0x000000000004227d      0x360 c:/program files/microchip/xc32/v4.60/bin/bin/../../lib/gcc/pic32c/8.3.1/thumb/v7e-m+fp/hard\libgcc.a(_udivmoddi4.o)
 .debug_line    0x00000000000425dd       0x91 c:/program files/microchip/xc32/v4.60/bin/bin/../../lib/gcc/pic32c/8.3.1/thumb/v7e-m+fp/hard\libgcc.a(_dvmd_tls.o)
 .debug_line    0x000000000004266e       0xd2 c:/program files/microchip/xc32/v4.60/bin/bin/../../lib/gcc/pic32c/8.3.1/../../../../pic32c/lib/thumb/v7e-m+fp/hard\libpic32c.a(sbrk.o)
 .debug_line    0x0000000000042740       0xad c:/program files/microchip/xc32/v4.60/bin/bin/../../lib/gcc/pic32c/8.3.1/../../../../pic32c/lib/thumb/v7e-m+fp/hard\libc-size-musl.a(strcpy.o)
 .debug_line    0x00000000000427ed       0xc1 c:/program files/microchip/xc32/v4.60/bin/bin/../../lib/gcc/pic32c/8.3.1/../../../../pic32c/lib/thumb/v7e-m+fp/hard\libc-size-musl.a(stpcpy.o)
 .debug_line    0x00000000000428ae       0x72 c:/program files/microchip/xc32/v4.60/bin/bin/../../lib/gcc/pic32c/8.3.1/../../../../pic32c/lib/thumb/v7e-m+fp/hard\libpic32c.a(pic32_data_init_clear.o)
 .debug_line    0x0000000000042920       0x7a c:/program files/microchip/xc32/v4.60/bin/bin/../../lib/gcc/pic32c/8.3.1/../../../../pic32c/lib/thumb/v7e-m+fp/hard\libpic32c.a(pic32_data_init_copy.o)

.debug_str      0x0000000000000000    0x68c84
 .debug_str     0x0000000000000000      0x572 build/default/production/_ext/1434821282/bsp.o
 .debug_str     0x0000000000000572     0x13b7 build/default/production/_ext/1726652707/MCHP_Crypto_Aead_WolfCryptWrapper.o
 .debug_str     0x0000000000001929     0x104a build/default/production/_ext/1726652707/MCHP_Crypto_Mac_WolfCryptWrapper.o
 .debug_str     0x0000000000002973     0x121d build/default/production/_ext/1726652707/MCHP_Crypto_Sym_WolfcryptWrapper.o
 .debug_str     0x0000000000003b90      0x8e1 build/default/production/_ext/1726652707/MCHP_Crypto_Aead_Cipher.o
 .debug_str     0x0000000000004471      0x679 build/default/production/_ext/1726652707/MCHP_Crypto_Mac_Cipher.o
 .debug_str     0x0000000000004aea      0x7b9 build/default/production/_ext/1726652707/MCHP_Crypto_Sym_Cipher.o
 .debug_str     0x00000000000052a3      0xd09 build/default/production/_ext/745501718/pal.o
 .debug_str     0x0000000000005fac      0x2d3 build/default/production/_ext/957911548/phy_ed_end_cb.o
 .debug_str     0x000000000000627f      0x3f5 build/default/production/_ext/957911548/phy_task.o
 .debug_str     0x0000000000006674      0x3a7 build/default/production/_ext/957911548/phy_rx_frame_cb.o
 .debug_str     0x0000000000006a1b      0x404 build/default/production/_ext/1374435801/bmm.o
 .debug_str     0x0000000000006e1f      0x463 build/default/production/_ext/874725666/qmm.o
 .debug_str     0x0000000000007282      0xf80 build/default/production/_ext/1014741959/drv_plc_boot.o
 .debug_str     0x0000000000008202     0x12e7 build/default/production/_ext/1014741959/drv_plc_hal.o
 .debug_str     0x00000000000094e9     0x1c11 build/default/production/_ext/410113559/drv_g3_macrt_local_comm.o
 .debug_str     0x000000000000b0fa     0x1527 build/default/production/_ext/410113559/drv_g3_macrt.o
 .debug_str     0x000000000000c621      0x384 build/default/production/_ext/1033058136/helpers.o
 .debug_str     0x000000000000c9a5      0x818 build/default/production/_ext/1033058136/tcpip_notify.o
 .debug_str     0x000000000000d1bd     0x34d7 build/default/production/_ext/1033058136/ndp.o
 .debug_str     0x0000000000010694     0x4189 build/default/production/_ext/1033058136/udp.o
 .debug_str     0x000000000001481d     0x2303 build/default/production/_ext/1033058136/tcpip_packet.o
 .debug_str     0x0000000000016b20     0x5454 build/default/production/_ext/1033058136/ipv6.o
 .debug_str     0x000000000001bf74     0x37e4 build/default/production/_ext/1033058136/icmpv6.o
 .debug_str     0x000000000001f758     0x53b2 build/default/production/_ext/1033058136/tcpip_manager.o
 .debug_str     0x0000000000024b0a     0x1852 build/default/production/_ext/1033058136/tcpip_helpers.o
 .debug_str     0x000000000002635c      0x8bd build/default/production/_ext/1033058136/tcpip_heap_alloc.o
 .debug_str     0x0000000000026c19      0xfcc build/default/production/_ext/1033058136/tcpip_heap_internal.o
 .debug_str     0x0000000000027be5      0x679 build/default/production/_ext/1529399856/osal_freertos.o
 .debug_str     0x000000000002825e      0x56c build/default/production/_ext/1529399856/osal_freertos_extend.o
 .debug_str     0x00000000000287ca      0xb44 build/default/production/_ext/60165520/plib_clk.o
 .debug_str     0x000000000002930e      0x8f5 build/default/production/_ext/1865161661/plib_dmac.o
 .debug_str     0x0000000000029c03      0x455 build/default/production/_ext/60167341/plib_eic.o
 .debug_str     0x000000000002a058      0x2b8 build/default/production/_ext/1986646378/plib_evsys.o
 .debug_str     0x000000000002a310      0xe96 build/default/production/_ext/1865254177/plib_gpio.o
 .debug_str     0x000000000002b1a6      0x7a0 build/default/production/_ext/1865468468/plib_nvic.o
 .debug_str     0x000000000002b946      0x826 build/default/production/_ext/60176403/plib_nvm.o
 .debug_str     0x000000000002c16c      0x732 build/default/production/_ext/17022449/plib_sercom2_spi_master.o
 .debug_str     0x000000000002c89e      0xdb4 build/default/production/_ext/504274921/plib_sercom1_usart.o
 .debug_str     0x000000000002d652      0x5f6 build/default/production/_ext/829342655/plib_tc0.o
 .debug_str     0x000000000002dc48      0x34d build/default/production/_ext/1865643529/plib_trng.o
 .debug_str     0x000000000002df95      0x37a build/default/production/_ext/60184501/plib_wdt.o
 .debug_str     0x000000000002e30f     0x1622 build/default/production/_ext/2064362748/srv_pcoup.o
 .debug_str     0x000000000002f931      0x571 build/default/production/_ext/2065812886/srv_queue.o
 .debug_str     0x000000000002fea2      0x382 build/default/production/_ext/373899042/srv_random.o
 .debug_str     0x0000000000030224      0x7b1 build/default/production/_ext/2135967589/cipher_wrapper.o
 .debug_str     0x00000000000309d5      0x561 build/default/production/_ext/2135967589/aes_wrapper.o
 .debug_str     0x0000000000030f36      0x434 build/default/production/_ext/1534551086/lbp_encode_decode.o
 .debug_str     0x000000000003136a     0x36c3 build/default/production/_ext/1534551086/lbp_dev.o
 .debug_str     0x0000000000034a2d     0x1be9 build/default/production/_ext/1534551086/routing_wrapper.o
 .debug_str     0x0000000000036616      0x748 build/default/production/_ext/1534551086/eap_psk.o
 .debug_str     0x0000000000036d5e      0xc18 build/default/production/_ext/1632721610/mac_common.o
 .debug_str     0x0000000000037976     0x4d16 build/default/production/_ext/1570337448/mac_wrapper.o
 .debug_str     0x000000000003c68c     0x3c92 build/default/production/_ext/710515956/drv_mac_g3adp.o
 .debug_str     0x000000000004031e     0x2010 build/default/production/_ext/977769160/pal_plc.o
 .debug_str     0x000000000004232e     0x192e build/default/production/_ext/1278466877/pal_rf.o
 .debug_str     0x0000000000043c5c      0xcbe build/default/production/_ext/1832805299/sys_console_uart.o
 .debug_str     0x000000000004491a      0xa58 build/default/production/_ext/1832805299/sys_console.o
 .debug_str     0x0000000000045372      0x4c7 build/default/production/_ext/944882569/sys_debug.o
 .debug_str     0x0000000000045839      0x644 build/default/production/_ext/14461671/sys_dma.o
 .debug_str     0x0000000000045e7d      0x6db build/default/production/_ext/1881668453/sys_int.o
 .debug_str     0x0000000000046558      0xffb build/default/production/_ext/101884895/sys_time.o
 .debug_str     0x0000000000047553      0x433 build/default/production/_ext/753841488/sys_time_h2_adapter.o
 .debug_str     0x0000000000047986      0x7cd build/default/production/_ext/1171490990/tasks.o
 .debug_str     0x0000000000048153      0x95c build/default/production/_ext/1171490990/interrupts.o
 .debug_str     0x0000000000048aaf      0x317 build/default/production/_ext/1171490990/exceptions.o
 .debug_str     0x0000000000048dc6     0x3dd9 build/default/production/_ext/1171490990/initialization.o
 .debug_str     0x000000000004cb9f      0x451 build/default/production/_ext/1171490990/startup_xc32.o
 .debug_str     0x000000000004cff0      0x3ae build/default/production/_ext/1171490990/freertos_hooks.o
 .debug_str     0x000000000004d39e      0x488 build/default/production/_ext/246609638/port.o
 .debug_str     0x000000000004d826      0x672 build/default/production/_ext/1665200909/heap_4.o
 .debug_str     0x000000000004de98      0x3e5 build/default/production/_ext/404212886/list.o
 .debug_str     0x000000000004e27d     0x1252 build/default/production/_ext/404212886/FreeRTOS_tasks.o
 .debug_str     0x000000000004f4cf      0xbd7 build/default/production/_ext/404212886/queue.o
 .debug_str     0x00000000000500a6     0x1050 build/default/production/_ext/1716827871/cmac.o
 .debug_str     0x00000000000510f6     0x1412 build/default/production/_ext/1716827871/sha256.o
 .debug_str     0x0000000000052508     0x1cd4 build/default/production/_ext/1716827871/random.o
 .debug_str     0x00000000000541dc     0x1c04 build/default/production/_ext/1716827871/aes.o
 .debug_str     0x0000000000055de0      0x562 build/default/production/_ext/1664057780/misc.o
 .debug_str     0x0000000000056342      0x88d build/default/production/_ext/1360937237/app_storage_wbz451h.o
 .debug_str     0x0000000000056bcf      0x4f1 build/default/production/_ext/1360937237/app_idle_task.o
 .debug_str     0x00000000000570c0     0x14e6 build/default/production/_ext/1360937237/app_udp_responder.o
 .debug_str     0x00000000000585a6      0xaf5 build/default/production/_ext/1360937237/app_tcpip_management.o
 .debug_str     0x000000000005909b     0x57b3 build/default/production/_ext/1360937237/app_g3_management.o
 .debug_str     0x000000000005e84e      0x2a5 build/default/production/_ext/1360937237/main.o
 .debug_str     0x000000000005eaf3      0xafc build/default/production/_ext/1360937237/app_matrix_led.o
 .debug_str     0x000000000005f5ef      0x190 ../src/config/default/driver/lib/lib-ieee802154_phy_pic32cxbz-v1.2.0.a(phy.o)
 .debug_str     0x000000000005f77f       0x45 ../src/config/default/driver/lib/lib-ieee802154_phy_pic32cxbz-v1.2.0.a(phy_ed.o)
 .debug_str     0x000000000005f7c4       0xa4 ../src/config/default/driver/lib/lib-ieee802154_phy_pic32cxbz-v1.2.0.a(phy_helper.o)
 .debug_str     0x000000000005f868      0x155 ../src/config/default/driver/lib/lib-ieee802154_phy_pic32cxbz-v1.2.0.a(phy_init.o)
 .debug_str     0x000000000005f9bd       0xb0 ../src/config/default/driver/lib/lib-ieee802154_phy_pic32cxbz-v1.2.0.a(phy_irq_handler.o)
 .debug_str     0x000000000005fa6d       0x67 ../src/config/default/driver/lib/lib-ieee802154_phy_pic32cxbz-v1.2.0.a(phy_pib.o)
 .debug_str     0x000000000005fad4       0x5f ../src/config/default/driver/lib/lib-ieee802154_phy_pic32cxbz-v1.2.0.a(phy_pwr_mgmt.o)
 .debug_str     0x000000000005fb33      0x141 ../src/config/default/driver/lib/lib-ieee802154_phy_pic32cxbz-v1.2.0.a(phy_rx.o)
 .debug_str     0x000000000005fc74       0x3c ../src/config/default/driver/lib/lib-ieee802154_phy_pic32cxbz-v1.2.0.a(phy_rx_enable.o)
 .debug_str     0x000000000005fcb0       0xca ../src/config/default/driver/lib/lib-ieee802154_phy_pic32cxbz-v1.2.0.a(phy_tx.o)
 .debug_str     0x000000000005fd7a       0x47 ../src/config/default/driver/lib/lib-ieee802154_phy_pic32cxbz-v1.2.0.a(tfa.o)
 .debug_str     0x000000000005fdc1        0xc ../src/config/default/driver/lib/lib-ieee802154_phy_pic32cxbz-v1.2.0.a(phy_frame_handling.o)
 .debug_str     0x000000000005fdcd      0x12e ../src/config/default/driver/pds/pds.a(wlPdsDataServer.o)
 .debug_str     0x000000000005fefb       0x4a ../src/config/default/driver/pds/pds.a(wlPdsInit.o)
 .debug_str     0x000000000005ff45       0x57 ../src/config/default/driver/pds/pds.a(D_Nv.o)
 .debug_str     0x000000000005ff9c      0x188 ../src/config/default/driver/pds/pds.a(S_Nv-Chimera.o)
 .debug_str     0x0000000000060124      0x118 ../src/config/default/driver/device_support/pic32cx_bz2_device_support.a(info_block.o)
 .debug_str     0x000000000006023c       0xeb ../src/config/default/driver/device_support/pic32cx_bz2_device_support.a(rf_system.o)
 .debug_str     0x0000000000060327       0x26 ../src/config/default/driver/device_support/pic32cx_bz2_device_support.a(info_block_plat.o)
 .debug_str     0x000000000006034d        0x0 ../src/config/default/driver/device_support/pic32cx_bz2_device_support.a(pmu_dvr.o)
 .debug_str     0x000000000006034d        0xa ../src/config/default/driver/device_support/pic32cx_bz2_device_support.a(rf.o)
 .debug_str     0x0000000000060357      0x206 c:/program files/microchip/xc32/v4.60/bin/bin/../../lib/gcc/pic32c/8.3.1/../../../../pic32c/lib/thumb/v7e-m+fp/hard\libpic32c.a(data_init.o)
 .debug_str     0x000000000006055d      0x219 c:/program files/microchip/xc32/v4.60/bin/bin/../../lib/gcc/pic32c/8.3.1/../../../../pic32c/lib/thumb/v7e-m+fp/hard\libc-size-musl.a(memcmp.o)
 .debug_str     0x0000000000060776      0x22f c:/program files/microchip/xc32/v4.60/bin/bin/../../lib/gcc/pic32c/8.3.1/../../../../pic32c/lib/thumb/v7e-m+fp/hard\libc-size-musl.a(memcpy.o)
 .debug_str     0x00000000000609a5      0x236 c:/program files/microchip/xc32/v4.60/bin/bin/../../lib/gcc/pic32c/8.3.1/../../../../pic32c/lib/thumb/v7e-m+fp/hard\libc-size-musl.a(memmove.o)
 .debug_str     0x0000000000060bdb      0x21b c:/program files/microchip/xc32/v4.60/bin/bin/../../lib/gcc/pic32c/8.3.1/../../../../pic32c/lib/thumb/v7e-m+fp/hard\libc-size-musl.a(memset.o)
 .debug_str     0x0000000000060df6      0x221 c:/program files/microchip/xc32/v4.60/bin/bin/../../lib/gcc/pic32c/8.3.1/../../../../pic32c/lib/thumb/v7e-m+fp/hard\libc-size-musl.a(strlen.o)
 .debug_str     0x0000000000061017      0x209 c:/program files/microchip/xc32/v4.60/bin/bin/../../lib/gcc/pic32c/8.3.1/../../../../pic32c/lib/thumb/v7e-m+fp/hard\libc-size-musl.a(strcmp.o)
 .debug_str     0x0000000000061220      0x21c c:/program files/microchip/xc32/v4.60/bin/bin/../../lib/gcc/pic32c/8.3.1/../../../../pic32c/lib/thumb/v7e-m+fp/hard\libc-size-musl.a(strncpy.o)
 .debug_str     0x000000000006143c      0x21c c:/program files/microchip/xc32/v4.60/bin/bin/../../lib/gcc/pic32c/8.3.1/../../../../pic32c/lib/thumb/v7e-m+fp/hard\libc-size-musl.a(strrchr.o)
 .debug_str     0x0000000000061658      0x239 c:/program files/microchip/xc32/v4.60/bin/bin/../../lib/gcc/pic32c/8.3.1/../../../../pic32c/lib/thumb/v7e-m+fp/hard\libc-size-musl.a(memrchr.o)
 .debug_str     0x0000000000061891      0x23a c:/program files/microchip/xc32/v4.60/bin/bin/../../lib/gcc/pic32c/8.3.1/../../../../pic32c/lib/thumb/v7e-m+fp/hard\libc-size-musl.a(stpncpy.o)
 .debug_str     0x0000000000061acb      0x30b c:/program files/microchip/xc32/v4.60/bin/bin/../../lib/gcc/pic32c/8.3.1/../../../../pic32c/lib/thumb/v7e-m+fp/hard\liblmalloc-musl.a(lite_free.o)
 .debug_str     0x0000000000061dd6      0x309 c:/program files/microchip/xc32/v4.60/bin/bin/../../lib/gcc/pic32c/8.3.1/../../../../pic32c/lib/thumb/v7e-m+fp/hard\liblmalloc-musl.a(lite_malloc.o)
 .debug_str     0x00000000000620df      0x256 c:/program files/microchip/xc32/v4.60/bin/bin/../../lib/gcc/pic32c/8.3.1/../../../../pic32c/lib/thumb/v7e-m+fp/hard\libc-musl.a(isxdigit.o)
 .debug_str     0x0000000000062335      0x253 c:/program files/microchip/xc32/v4.60/bin/bin/../../lib/gcc/pic32c/8.3.1/../../../../pic32c/lib/thumb/v7e-m+fp/hard\libc-musl.a(tolower.o)
 .debug_str     0x0000000000062588      0x253 c:/program files/microchip/xc32/v4.60/bin/bin/../../lib/gcc/pic32c/8.3.1/../../../../pic32c/lib/thumb/v7e-m+fp/hard\libc-musl.a(toupper.o)
 .debug_str     0x00000000000627db      0x3d4 c:/program files/microchip/xc32/v4.60/bin/bin/../../lib/gcc/pic32c/8.3.1/../../../../pic32c/lib/thumb/v7e-m+fp/hard\libc-musl.a(__libc_start_main.o)
 .debug_str     0x0000000000062baf      0x233 c:/program files/microchip/xc32/v4.60/bin/bin/../../lib/gcc/pic32c/8.3.1/../../../../pic32c/lib/thumb/v7e-m+fp/hard\libc-musl.a(__errno_location.o)
 .debug_str     0x0000000000062de2      0x33f c:/program files/microchip/xc32/v4.60/bin/bin/../../lib/gcc/pic32c/8.3.1/../../../../pic32c/lib/thumb/v7e-m+fp/hard\libc-musl.a(libc.o)
 .debug_str     0x0000000000063121      0x2af c:/program files/microchip/xc32/v4.60/bin/bin/../../lib/gcc/pic32c/8.3.1/../../../../pic32c/lib/thumb/v7e-m+fp/hard\libc-musl.a(expand_heap.o)
 .debug_str     0x00000000000633d0      0x28e c:/program files/microchip/xc32/v4.60/bin/bin/../../lib/gcc/pic32c/8.3.1/../../../../pic32c/lib/thumb/v7e-m+fp/hard\libc-musl.a(rand.o)
 .debug_str     0x000000000006365e      0x38b c:/program files/microchip/xc32/v4.60/bin/bin/../../lib/gcc/pic32c/8.3.1/../../../../pic32c/lib/thumb/v7e-m+fp/hard\libc-musl.a(vsnprintf.o)
 .debug_str     0x00000000000639e9      0x23d c:/program files/microchip/xc32/v4.60/bin/bin/../../lib/gcc/pic32c/8.3.1/../../../../pic32c/lib/thumb/v7e-m+fp/hard\libc-musl.a(snprintf.o)
 .debug_str     0x0000000000063c26      0x233 c:/program files/microchip/xc32/v4.60/bin/bin/../../lib/gcc/pic32c/8.3.1/../../../../pic32c/lib/thumb/v7e-m+fp/hard\libc-musl.a(sprintf.o)
 .debug_str     0x0000000000063e59      0x236 c:/program files/microchip/xc32/v4.60/bin/bin/../../lib/gcc/pic32c/8.3.1/../../../../pic32c/lib/thumb/v7e-m+fp/hard\libc-musl.a(vsprintf.o)
 .debug_str     0x000000000006408f      0x39a c:/program files/microchip/xc32/v4.60/bin/bin/../../lib/gcc/pic32c/8.3.1/../../../../pic32c/lib/thumb/v7e-m+fp/hard\libc-musl.a(strtol.o)
 .debug_str     0x0000000000064429      0x23f c:/program files/microchip/xc32/v4.60/bin/bin/../../lib/gcc/pic32c/8.3.1/../../../../pic32c/lib/thumb/v7e-m+fp/hard\libc-musl.a(__environ.o)
 .debug_str     0x0000000000064668      0x374 c:/program files/microchip/xc32/v4.60/bin/bin/../../lib/gcc/pic32c/8.3.1/../../../../pic32c/lib/thumb/v7e-m+fp/hard\libc-musl.a(intscan.o)
 .debug_str     0x00000000000649dc      0x34b c:/program files/microchip/xc32/v4.60/bin/bin/../../lib/gcc/pic32c/8.3.1/../../../../pic32c/lib/thumb/v7e-m+fp/hard\libc-musl.a(shgetc.o)
 .debug_str     0x0000000000064d27      0x341 c:/program files/microchip/xc32/v4.60/bin/bin/../../lib/gcc/pic32c/8.3.1/../../../../pic32c/lib/thumb/v7e-m+fp/hard\libc-musl.a(__uflow.o)
 .debug_str     0x0000000000065068      0x389 c:/program files/microchip/xc32/v4.60/bin/bin/../../lib/gcc/pic32c/8.3.1/../../../../pic32c/lib/thumb/v7e-m+fp/hard\libc-musl.a(vfprintf.o)
 .debug_str     0x00000000000653f1      0x368 c:/program files/microchip/xc32/v4.60/bin/bin/../../lib/gcc/pic32c/8.3.1/../../../../pic32c/lib/thumb/v7e-m+fp/hard\libc-musl.a(__toread.o)
 .debug_str     0x0000000000065759      0x2ca c:/program files/microchip/xc32/v4.60/bin/bin/../../lib/gcc/pic32c/8.3.1/../../../../pic32c/lib/thumb/v7e-m+fp/hard\libc-musl.a(__pop_float.o)
 .debug_str     0x0000000000065a23      0x2d5 c:/program files/microchip/xc32/v4.60/bin/bin/../../lib/gcc/pic32c/8.3.1/../../../../pic32c/lib/thumb/v7e-m+fp/hard\libc-musl.a(__pop_int.o)
 .debug_str     0x0000000000065cf8      0x2d7 c:/program files/microchip/xc32/v4.60/bin/bin/../../lib/gcc/pic32c/8.3.1/../../../../pic32c/lib/thumb/v7e-m+fp/hard\libc-musl.a(__pop_ptr.o)
 .debug_str     0x0000000000065fcf      0x3f1 c:/program files/microchip/xc32/v4.60/bin/bin/../../lib/gcc/pic32c/8.3.1/../../../../pic32c/lib/thumb/v7e-m+fp/hard\libc-musl.a(__printf_core.o)
 .debug_str     0x00000000000663c0      0x226 c:/program files/microchip/xc32/v4.60/bin/bin/../../lib/gcc/pic32c/8.3.1/../../../../pic32c/lib/thumb/v7e-m+fp/hard\libc-musl.a(atoi.o)
 .debug_str     0x00000000000665e6      0x33d c:/program files/microchip/xc32/v4.60/bin/bin/../../lib/gcc/pic32c/8.3.1/../../../../pic32c/lib/thumb/v7e-m+fp/hard\libc-musl.a(__fmt_a.o)
 .debug_str     0x0000000000066923      0x2ff c:/program files/microchip/xc32/v4.60/bin/bin/../../lib/gcc/pic32c/8.3.1/../../../../pic32c/lib/thumb/v7e-m+fp/hard\libc-musl.a(__fmt_d.o)
 .debug_str     0x0000000000066c22      0x35e c:/program files/microchip/xc32/v4.60/bin/bin/../../lib/gcc/pic32c/8.3.1/../../../../pic32c/lib/thumb/v7e-m+fp/hard\libc-musl.a(__fmt_fp.o)
 .debug_str     0x0000000000066f80      0x2ff c:/program files/microchip/xc32/v4.60/bin/bin/../../lib/gcc/pic32c/8.3.1/../../../../pic32c/lib/thumb/v7e-m+fp/hard\libc-musl.a(__fmt_o.o)
 .debug_str     0x000000000006727f      0x2eb c:/program files/microchip/xc32/v4.60/bin/bin/../../lib/gcc/pic32c/8.3.1/../../../../pic32c/lib/thumb/v7e-m+fp/hard\libc-musl.a(__fmt_s.o)
 .debug_str     0x000000000006756a      0x2ff c:/program files/microchip/xc32/v4.60/bin/bin/../../lib/gcc/pic32c/8.3.1/../../../../pic32c/lib/thumb/v7e-m+fp/hard\libc-musl.a(__fmt_u.o)
 .debug_str     0x0000000000067869      0x2ff c:/program files/microchip/xc32/v4.60/bin/bin/../../lib/gcc/pic32c/8.3.1/../../../../pic32c/lib/thumb/v7e-m+fp/hard\libc-musl.a(__fmt_x.o)
 .debug_str     0x0000000000067b68      0x2bb c:/program files/microchip/xc32/v4.60/bin/bin/../../lib/gcc/pic32c/8.3.1/../../../../pic32c/lib/thumb/v7e-m+fp/hard\libc-musl.a(__cvt_u.o)
 .debug_str     0x0000000000067e23       0xd6 c:/program files/microchip/xc32/v4.60/bin/bin/../../lib/gcc/pic32c/8.3.1/thumb/v7e-m+fp/hard\libgcc.a(_aeabi_uldivmod.o)
 .debug_str     0x0000000000067ef9      0x2cd c:/program files/microchip/xc32/v4.60/bin/bin/../../lib/gcc/pic32c/8.3.1/thumb/v7e-m+fp/hard\libgcc.a(_udivmoddi4.o)
 .debug_str     0x00000000000681c6       0xda c:/program files/microchip/xc32/v4.60/bin/bin/../../lib/gcc/pic32c/8.3.1/thumb/v7e-m+fp/hard\libgcc.a(_dvmd_tls.o)
 .debug_str     0x00000000000682a0      0x1e6 c:/program files/microchip/xc32/v4.60/bin/bin/../../lib/gcc/pic32c/8.3.1/../../../../pic32c/lib/thumb/v7e-m+fp/hard\libpic32c.a(sbrk.o)
 .debug_str     0x0000000000068486      0x217 c:/program files/microchip/xc32/v4.60/bin/bin/../../lib/gcc/pic32c/8.3.1/../../../../pic32c/lib/thumb/v7e-m+fp/hard\libc-size-musl.a(strcpy.o)
 .debug_str     0x000000000006869d      0x22b c:/program files/microchip/xc32/v4.60/bin/bin/../../lib/gcc/pic32c/8.3.1/../../../../pic32c/lib/thumb/v7e-m+fp/hard\libc-size-musl.a(stpcpy.o)
 .debug_str     0x00000000000688c8      0x1df c:/program files/microchip/xc32/v4.60/bin/bin/../../lib/gcc/pic32c/8.3.1/../../../../pic32c/lib/thumb/v7e-m+fp/hard\libpic32c.a(pic32_data_init_clear.o)
 .debug_str     0x0000000000068aa7      0x1dd c:/program files/microchip/xc32/v4.60/bin/bin/../../lib/gcc/pic32c/8.3.1/../../../../pic32c/lib/thumb/v7e-m+fp/hard\libpic32c.a(pic32_data_init_copy.o)

.debug_frame    0x0000000000000000     0xbc10
 .debug_frame   0x0000000000000000       0x20 build/default/production/_ext/1434821282/bsp.o
 .debug_frame   0x0000000000000020      0x124 build/default/production/_ext/1726652707/MCHP_Crypto_Aead_WolfCryptWrapper.o
 .debug_frame   0x0000000000000144       0x98 build/default/production/_ext/1726652707/MCHP_Crypto_Mac_WolfCryptWrapper.o
 .debug_frame   0x00000000000001dc       0xd8 build/default/production/_ext/1726652707/MCHP_Crypto_Sym_WolfcryptWrapper.o
 .debug_frame   0x00000000000002b4      0x16c build/default/production/_ext/1726652707/MCHP_Crypto_Aead_Cipher.o
 .debug_frame   0x0000000000000420       0xd4 build/default/production/_ext/1726652707/MCHP_Crypto_Mac_Cipher.o
 .debug_frame   0x00000000000004f4       0xdc build/default/production/_ext/1726652707/MCHP_Crypto_Sym_Cipher.o
 .debug_frame   0x00000000000005d0      0x184 build/default/production/_ext/745501718/pal.o
 .debug_frame   0x0000000000000754       0x20 build/default/production/_ext/957911548/phy_ed_end_cb.o
 .debug_frame   0x0000000000000774       0x40 build/default/production/_ext/957911548/phy_task.o
 .debug_frame   0x00000000000007b4       0x30 build/default/production/_ext/957911548/phy_rx_frame_cb.o
 .debug_frame   0x00000000000007e4       0x6c build/default/production/_ext/1374435801/bmm.o
 .debug_frame   0x0000000000000850       0x98 build/default/production/_ext/874725666/qmm.o
 .debug_frame   0x00000000000008e8      0x140 build/default/production/_ext/1014741959/drv_plc_boot.o
 .debug_frame   0x0000000000000a28      0x118 build/default/production/_ext/1014741959/drv_plc_hal.o
 .debug_frame   0x0000000000000b40      0x1bc build/default/production/_ext/410113559/drv_g3_macrt_local_comm.o
 .debug_frame   0x0000000000000cfc      0x16c build/default/production/_ext/410113559/drv_g3_macrt.o
 .debug_frame   0x0000000000000e68       0xd0 build/default/production/_ext/1033058136/helpers.o
 .debug_frame   0x0000000000000f38       0xb8 build/default/production/_ext/1033058136/tcpip_notify.o
 .debug_frame   0x0000000000000ff0      0x4c8 build/default/production/_ext/1033058136/ndp.o
 .debug_frame   0x00000000000014b8      0x764 build/default/production/_ext/1033058136/udp.o
 .debug_frame   0x0000000000001c1c      0x164 build/default/production/_ext/1033058136/tcpip_packet.o
 .debug_frame   0x0000000000001d80      0xb64 build/default/production/_ext/1033058136/ipv6.o
 .debug_frame   0x00000000000028e4      0x22c build/default/production/_ext/1033058136/icmpv6.o
 .debug_frame   0x0000000000002b10      0xac0 build/default/production/_ext/1033058136/tcpip_manager.o
 .debug_frame   0x00000000000035d0      0x7bc build/default/production/_ext/1033058136/tcpip_helpers.o
 .debug_frame   0x0000000000003d8c       0x80 build/default/production/_ext/1033058136/tcpip_heap_alloc.o
 .debug_frame   0x0000000000003e0c      0x140 build/default/production/_ext/1033058136/tcpip_heap_internal.o
 .debug_frame   0x0000000000003f4c      0x174 build/default/production/_ext/1529399856/osal_freertos.o
 .debug_frame   0x00000000000040c0       0xdc build/default/production/_ext/1529399856/osal_freertos_extend.o
 .debug_frame   0x000000000000419c       0x30 build/default/production/_ext/60165520/plib_clk.o
 .debug_frame   0x00000000000041cc      0x1a8 build/default/production/_ext/1865161661/plib_dmac.o
 .debug_frame   0x0000000000004374       0x88 build/default/production/_ext/60167341/plib_eic.o
 .debug_frame   0x00000000000043fc       0x20 build/default/production/_ext/1986646378/plib_evsys.o
 .debug_frame   0x000000000000441c       0xb0 build/default/production/_ext/1865254177/plib_gpio.o
 .debug_frame   0x00000000000044cc       0x84 build/default/production/_ext/1865468468/plib_nvic.o
 .debug_frame   0x0000000000004550      0x170 build/default/production/_ext/60176403/plib_nvm.o
 .debug_frame   0x00000000000046c0       0xa8 build/default/production/_ext/17022449/plib_sercom2_spi_master.o
 .debug_frame   0x0000000000004768      0x23c build/default/production/_ext/504274921/plib_sercom1_usart.o
 .debug_frame   0x00000000000049a4       0xdc build/default/production/_ext/829342655/plib_tc0.o
 .debug_frame   0x0000000000004a80       0x30 build/default/production/_ext/1865643529/plib_trng.o
 .debug_frame   0x0000000000004ab0       0x80 build/default/production/_ext/60184501/plib_wdt.o
 .debug_frame   0x0000000000004b30       0x78 build/default/production/_ext/2064362748/srv_pcoup.o
 .debug_frame   0x0000000000004ba8      0x134 build/default/production/_ext/2065812886/srv_queue.o
 .debug_frame   0x0000000000004cdc       0xa4 build/default/production/_ext/373899042/srv_random.o
 .debug_frame   0x0000000000004d80       0xdc build/default/production/_ext/2135967589/cipher_wrapper.o
 .debug_frame   0x0000000000004e5c       0x40 build/default/production/_ext/2135967589/aes_wrapper.o
 .debug_frame   0x0000000000004e9c       0xe0 build/default/production/_ext/1534551086/lbp_encode_decode.o
 .debug_frame   0x0000000000004f7c      0x2dc build/default/production/_ext/1534551086/lbp_dev.o
 .debug_frame   0x0000000000005258      0x250 build/default/production/_ext/1534551086/routing_wrapper.o
 .debug_frame   0x00000000000054a8      0x21c build/default/production/_ext/1534551086/eap_psk.o
 .debug_frame   0x00000000000056c4       0xe4 build/default/production/_ext/1632721610/mac_common.o
 .debug_frame   0x00000000000057a8      0x468 build/default/production/_ext/1570337448/mac_wrapper.o
 .debug_frame   0x0000000000005c10      0x268 build/default/production/_ext/710515956/drv_mac_g3adp.o
 .debug_frame   0x0000000000005e78      0x184 build/default/production/_ext/977769160/pal_plc.o
 .debug_frame   0x0000000000005ffc      0x2c8 build/default/production/_ext/1278466877/pal_rf.o
 .debug_frame   0x00000000000062c4      0x104 build/default/production/_ext/1832805299/sys_console_uart.o
 .debug_frame   0x00000000000063c8      0x180 build/default/production/_ext/1832805299/sys_console.o
 .debug_frame   0x0000000000006548       0x70 build/default/production/_ext/944882569/sys_debug.o
 .debug_frame   0x00000000000065b8       0x58 build/default/production/_ext/14461671/sys_dma.o
 .debug_frame   0x0000000000006610       0x6c build/default/production/_ext/1881668453/sys_int.o
 .debug_frame   0x000000000000667c      0x460 build/default/production/_ext/101884895/sys_time.o
 .debug_frame   0x0000000000006adc       0x84 build/default/production/_ext/753841488/sys_time_h2_adapter.o
 .debug_frame   0x0000000000006b60      0x110 build/default/production/_ext/1171490990/tasks.o
 .debug_frame   0x0000000000006c70       0x20 build/default/production/_ext/1171490990/interrupts.o
 .debug_frame   0x0000000000006c90       0x70 build/default/production/_ext/1171490990/exceptions.o
 .debug_frame   0x0000000000006d00       0x80 build/default/production/_ext/1171490990/initialization.o
 .debug_frame   0x0000000000006d80       0x38 build/default/production/_ext/1171490990/startup_xc32.o
 .debug_frame   0x0000000000006db8       0x70 build/default/production/_ext/1171490990/freertos_hooks.o
 .debug_frame   0x0000000000006e28      0x108 build/default/production/_ext/246609638/port.o
 .debug_frame   0x0000000000006f30       0xf0 build/default/production/_ext/1665200909/heap_4.o
 .debug_frame   0x0000000000007020       0x88 build/default/production/_ext/404212886/list.o
 .debug_frame   0x00000000000070a8      0x640 build/default/production/_ext/404212886/FreeRTOS_tasks.o
 .debug_frame   0x00000000000076e8      0x380 build/default/production/_ext/404212886/queue.o
 .debug_frame   0x0000000000007a68      0x1a0 build/default/production/_ext/1716827871/cmac.o
 .debug_frame   0x0000000000007c08      0x218 build/default/production/_ext/1716827871/sha256.o
 .debug_frame   0x0000000000007e20      0x33c build/default/production/_ext/1716827871/random.o
 .debug_frame   0x000000000000815c      0xca4 build/default/production/_ext/1716827871/aes.o
 .debug_frame   0x0000000000008e00      0x3a0 build/default/production/_ext/1664057780/misc.o
 .debug_frame   0x00000000000091a0       0xc4 build/default/production/_ext/1360937237/app_storage_wbz451h.o
 .debug_frame   0x0000000000009264       0x58 build/default/production/_ext/1360937237/app_idle_task.o
 .debug_frame   0x00000000000092bc       0x84 build/default/production/_ext/1360937237/app_udp_responder.o
 .debug_frame   0x0000000000009340       0xd0 build/default/production/_ext/1360937237/app_tcpip_management.o
 .debug_frame   0x0000000000009410      0x298 build/default/production/_ext/1360937237/app_g3_management.o
 .debug_frame   0x00000000000096a8       0x28 build/default/production/_ext/1360937237/main.o
 .debug_frame   0x00000000000096d0       0xc0 build/default/production/_ext/1360937237/app_matrix_led.o
 .debug_frame   0x0000000000009790      0x138 ../src/config/default/driver/lib/lib-ieee802154_phy_pic32cxbz-v1.2.0.a(phy.o)
 .debug_frame   0x00000000000098c8       0x78 ../src/config/default/driver/lib/lib-ieee802154_phy_pic32cxbz-v1.2.0.a(phy_ed.o)
 .debug_frame   0x0000000000009940      0x1cc ../src/config/default/driver/lib/lib-ieee802154_phy_pic32cxbz-v1.2.0.a(phy_helper.o)
 .debug_frame   0x0000000000009b0c      0x118 ../src/config/default/driver/lib/lib-ieee802154_phy_pic32cxbz-v1.2.0.a(phy_init.o)
 .debug_frame   0x0000000000009c24       0xf4 ../src/config/default/driver/lib/lib-ieee802154_phy_pic32cxbz-v1.2.0.a(phy_irq_handler.o)
 .debug_frame   0x0000000000009d18      0x140 ../src/config/default/driver/lib/lib-ieee802154_phy_pic32cxbz-v1.2.0.a(phy_pib.o)
 .debug_frame   0x0000000000009e58       0x84 ../src/config/default/driver/lib/lib-ieee802154_phy_pic32cxbz-v1.2.0.a(phy_pwr_mgmt.o)
 .debug_frame   0x0000000000009edc      0x1f0 ../src/config/default/driver/lib/lib-ieee802154_phy_pic32cxbz-v1.2.0.a(phy_rx.o)
 .debug_frame   0x000000000000a0cc       0x2c ../src/config/default/driver/lib/lib-ieee802154_phy_pic32cxbz-v1.2.0.a(phy_rx_enable.o)
 .debug_frame   0x000000000000a0f8      0x248 ../src/config/default/driver/lib/lib-ieee802154_phy_pic32cxbz-v1.2.0.a(phy_tx.o)
 .debug_frame   0x000000000000a340       0xdc ../src/config/default/driver/lib/lib-ieee802154_phy_pic32cxbz-v1.2.0.a(tfa.o)
 .debug_frame   0x000000000000a41c       0x50 ../src/config/default/driver/lib/lib-ieee802154_phy_pic32cxbz-v1.2.0.a(phy_frame_handling.o)
 .debug_frame   0x000000000000a46c      0x2cc ../src/config/default/driver/pds/pds.a(wlPdsDataServer.o)
 .debug_frame   0x000000000000a738       0x58 ../src/config/default/driver/pds/pds.a(wlPdsInit.o)
 .debug_frame   0x000000000000a790       0xc0 ../src/config/default/driver/pds/pds.a(D_Nv.o)
 .debug_frame   0x000000000000a850      0x35c ../src/config/default/driver/pds/pds.a(S_Nv-Chimera.o)
 .debug_frame   0x000000000000abac      0x25c ../src/config/default/driver/device_support/pic32cx_bz2_device_support.a(info_block.o)
 .debug_frame   0x000000000000ae08      0x1b8 ../src/config/default/driver/device_support/pic32cx_bz2_device_support.a(rf_system.o)
 .debug_frame   0x000000000000afc0       0x68 ../src/config/default/driver/device_support/pic32cx_bz2_device_support.a(info_block_plat.o)
 .debug_frame   0x000000000000b028       0x30 ../src/config/default/driver/device_support/pic32cx_bz2_device_support.a(pmu_dvr.o)
 .debug_frame   0x000000000000b058       0xcc ../src/config/default/driver/device_support/pic32cx_bz2_device_support.a(rf.o)
 .debug_frame   0x000000000000b124       0x4c c:/program files/microchip/xc32/v4.60/bin/bin/../../lib/gcc/pic32c/8.3.1/../../../../pic32c/lib/thumb/v7e-m+fp/hard\libpic32c.a(data_init.o)
 .debug_frame   0x000000000000b170       0x2c c:/program files/microchip/xc32/v4.60/bin/bin/../../lib/gcc/pic32c/8.3.1/../../../../pic32c/lib/thumb/v7e-m+fp/hard\libc-size-musl.a(memcmp.o)
 .debug_frame   0x000000000000b19c       0x2c c:/program files/microchip/xc32/v4.60/bin/bin/../../lib/gcc/pic32c/8.3.1/../../../../pic32c/lib/thumb/v7e-m+fp/hard\libc-size-musl.a(memcpy.o)
 .debug_frame   0x000000000000b1c8       0x30 c:/program files/microchip/xc32/v4.60/bin/bin/../../lib/gcc/pic32c/8.3.1/../../../../pic32c/lib/thumb/v7e-m+fp/hard\libc-size-musl.a(memmove.o)
 .debug_frame   0x000000000000b1f8       0x20 c:/program files/microchip/xc32/v4.60/bin/bin/../../lib/gcc/pic32c/8.3.1/../../../../pic32c/lib/thumb/v7e-m+fp/hard\libc-size-musl.a(memset.o)
 .debug_frame   0x000000000000b218       0x20 c:/program files/microchip/xc32/v4.60/bin/bin/../../lib/gcc/pic32c/8.3.1/../../../../pic32c/lib/thumb/v7e-m+fp/hard\libc-size-musl.a(strlen.o)
 .debug_frame   0x000000000000b238       0x28 c:/program files/microchip/xc32/v4.60/bin/bin/../../lib/gcc/pic32c/8.3.1/../../../../pic32c/lib/thumb/v7e-m+fp/hard\libc-size-musl.a(strcmp.o)
 .debug_frame   0x000000000000b260       0x28 c:/program files/microchip/xc32/v4.60/bin/bin/../../lib/gcc/pic32c/8.3.1/../../../../pic32c/lib/thumb/v7e-m+fp/hard\libc-size-musl.a(strncpy.o)
 .debug_frame   0x000000000000b288       0x34 c:/program files/microchip/xc32/v4.60/bin/bin/../../lib/gcc/pic32c/8.3.1/../../../../pic32c/lib/thumb/v7e-m+fp/hard\libc-size-musl.a(strrchr.o)
 .debug_frame   0x000000000000b2bc       0x28 c:/program files/microchip/xc32/v4.60/bin/bin/../../lib/gcc/pic32c/8.3.1/../../../../pic32c/lib/thumb/v7e-m+fp/hard\libc-size-musl.a(memrchr.o)
 .debug_frame   0x000000000000b2e4       0x38 c:/program files/microchip/xc32/v4.60/bin/bin/../../lib/gcc/pic32c/8.3.1/../../../../pic32c/lib/thumb/v7e-m+fp/hard\libc-size-musl.a(stpncpy.o)
 .debug_frame   0x000000000000b31c       0x5c c:/program files/microchip/xc32/v4.60/bin/bin/../../lib/gcc/pic32c/8.3.1/../../../../pic32c/lib/thumb/v7e-m+fp/hard\liblmalloc-musl.a(lite_free.o)
 .debug_frame   0x000000000000b378       0x30 c:/program files/microchip/xc32/v4.60/bin/bin/../../lib/gcc/pic32c/8.3.1/../../../../pic32c/lib/thumb/v7e-m+fp/hard\liblmalloc-musl.a(lite_malloc.o)
 .debug_frame   0x000000000000b3a8       0x30 c:/program files/microchip/xc32/v4.60/bin/bin/../../lib/gcc/pic32c/8.3.1/../../../../pic32c/lib/thumb/v7e-m+fp/hard\libc-musl.a(isxdigit.o)
 .debug_frame   0x000000000000b3d8       0x30 c:/program files/microchip/xc32/v4.60/bin/bin/../../lib/gcc/pic32c/8.3.1/../../../../pic32c/lib/thumb/v7e-m+fp/hard\libc-musl.a(tolower.o)
 .debug_frame   0x000000000000b408       0x30 c:/program files/microchip/xc32/v4.60/bin/bin/../../lib/gcc/pic32c/8.3.1/../../../../pic32c/lib/thumb/v7e-m+fp/hard\libc-musl.a(toupper.o)
 .debug_frame   0x000000000000b438       0x3c c:/program files/microchip/xc32/v4.60/bin/bin/../../lib/gcc/pic32c/8.3.1/../../../../pic32c/lib/thumb/v7e-m+fp/hard\libc-musl.a(__libc_start_main.o)
 .debug_frame   0x000000000000b474       0x28 c:/program files/microchip/xc32/v4.60/bin/bin/../../lib/gcc/pic32c/8.3.1/../../../../pic32c/lib/thumb/v7e-m+fp/hard\libc-musl.a(expand_heap.o)
 .debug_frame   0x000000000000b49c       0x30 c:/program files/microchip/xc32/v4.60/bin/bin/../../lib/gcc/pic32c/8.3.1/../../../../pic32c/lib/thumb/v7e-m+fp/hard\libc-musl.a(rand.o)
 .debug_frame   0x000000000000b4cc       0x38 c:/program files/microchip/xc32/v4.60/bin/bin/../../lib/gcc/pic32c/8.3.1/../../../../pic32c/lib/thumb/v7e-m+fp/hard\libc-musl.a(vsnprintf.o)
 .debug_frame   0x000000000000b504       0x38 c:/program files/microchip/xc32/v4.60/bin/bin/../../lib/gcc/pic32c/8.3.1/../../../../pic32c/lib/thumb/v7e-m+fp/hard\libc-musl.a(snprintf.o)
 .debug_frame   0x000000000000b53c       0x3c c:/program files/microchip/xc32/v4.60/bin/bin/../../lib/gcc/pic32c/8.3.1/../../../../pic32c/lib/thumb/v7e-m+fp/hard\libc-musl.a(sprintf.o)
 .debug_frame   0x000000000000b578       0x20 c:/program files/microchip/xc32/v4.60/bin/bin/../../lib/gcc/pic32c/8.3.1/../../../../pic32c/lib/thumb/v7e-m+fp/hard\libc-musl.a(vsprintf.o)
 .debug_frame   0x000000000000b598       0xc4 c:/program files/microchip/xc32/v4.60/bin/bin/../../lib/gcc/pic32c/8.3.1/../../../../pic32c/lib/thumb/v7e-m+fp/hard\libc-musl.a(strtol.o)
 .debug_frame   0x000000000000b65c       0x40 c:/program files/microchip/xc32/v4.60/bin/bin/../../lib/gcc/pic32c/8.3.1/../../../../pic32c/lib/thumb/v7e-m+fp/hard\libc-musl.a(intscan.o)
 .debug_frame   0x000000000000b69c       0x44 c:/program files/microchip/xc32/v4.60/bin/bin/../../lib/gcc/pic32c/8.3.1/../../../../pic32c/lib/thumb/v7e-m+fp/hard\libc-musl.a(shgetc.o)
 .debug_frame   0x000000000000b6e0       0x30 c:/program files/microchip/xc32/v4.60/bin/bin/../../lib/gcc/pic32c/8.3.1/../../../../pic32c/lib/thumb/v7e-m+fp/hard\libc-musl.a(__uflow.o)
 .debug_frame   0x000000000000b710       0x3c c:/program files/microchip/xc32/v4.60/bin/bin/../../lib/gcc/pic32c/8.3.1/../../../../pic32c/lib/thumb/v7e-m+fp/hard\libc-musl.a(vfprintf.o)
 .debug_frame   0x000000000000b74c       0x38 c:/program files/microchip/xc32/v4.60/bin/bin/../../lib/gcc/pic32c/8.3.1/../../../../pic32c/lib/thumb/v7e-m+fp/hard\libc-musl.a(__toread.o)
 .debug_frame   0x000000000000b784       0x20 c:/program files/microchip/xc32/v4.60/bin/bin/../../lib/gcc/pic32c/8.3.1/../../../../pic32c/lib/thumb/v7e-m+fp/hard\libc-musl.a(__pop_float.o)
 .debug_frame   0x000000000000b7a4       0x28 c:/program files/microchip/xc32/v4.60/bin/bin/../../lib/gcc/pic32c/8.3.1/../../../../pic32c/lib/thumb/v7e-m+fp/hard\libc-musl.a(__pop_int.o)
 .debug_frame   0x000000000000b7cc       0x28 c:/program files/microchip/xc32/v4.60/bin/bin/../../lib/gcc/pic32c/8.3.1/../../../../pic32c/lib/thumb/v7e-m+fp/hard\libc-musl.a(__pop_ptr.o)
 .debug_frame   0x000000000000b7f4       0xd0 c:/program files/microchip/xc32/v4.60/bin/bin/../../lib/gcc/pic32c/8.3.1/../../../../pic32c/lib/thumb/v7e-m+fp/hard\libc-musl.a(__printf_core.o)
 .debug_frame   0x000000000000b8c4       0x28 c:/program files/microchip/xc32/v4.60/bin/bin/../../lib/gcc/pic32c/8.3.1/../../../../pic32c/lib/thumb/v7e-m+fp/hard\libc-musl.a(atoi.o)
 .debug_frame   0x000000000000b8ec       0x40 c:/program files/microchip/xc32/v4.60/bin/bin/../../lib/gcc/pic32c/8.3.1/../../../../pic32c/lib/thumb/v7e-m+fp/hard\libc-musl.a(__fmt_a.o)
 .debug_frame   0x000000000000b92c       0x3c c:/program files/microchip/xc32/v4.60/bin/bin/../../lib/gcc/pic32c/8.3.1/../../../../pic32c/lib/thumb/v7e-m+fp/hard\libc-musl.a(__fmt_d.o)
 .debug_frame   0x000000000000b968       0x50 c:/program files/microchip/xc32/v4.60/bin/bin/../../lib/gcc/pic32c/8.3.1/../../../../pic32c/lib/thumb/v7e-m+fp/hard\libc-musl.a(__fmt_fp.o)
 .debug_frame   0x000000000000b9b8       0x34 c:/program files/microchip/xc32/v4.60/bin/bin/../../lib/gcc/pic32c/8.3.1/../../../../pic32c/lib/thumb/v7e-m+fp/hard\libc-musl.a(__fmt_o.o)
 .debug_frame   0x000000000000b9ec       0x34 c:/program files/microchip/xc32/v4.60/bin/bin/../../lib/gcc/pic32c/8.3.1/../../../../pic32c/lib/thumb/v7e-m+fp/hard\libc-musl.a(__fmt_s.o)
 .debug_frame   0x000000000000ba20       0x34 c:/program files/microchip/xc32/v4.60/bin/bin/../../lib/gcc/pic32c/8.3.1/../../../../pic32c/lib/thumb/v7e-m+fp/hard\libc-musl.a(__fmt_u.o)
 .debug_frame   0x000000000000ba54       0x40 c:/program files/microchip/xc32/v4.60/bin/bin/../../lib/gcc/pic32c/8.3.1/../../../../pic32c/lib/thumb/v7e-m+fp/hard\libc-musl.a(__fmt_x.o)
 .debug_frame   0x000000000000ba94       0x38 c:/program files/microchip/xc32/v4.60/bin/bin/../../lib/gcc/pic32c/8.3.1/../../../../pic32c/lib/thumb/v7e-m+fp/hard\libc-musl.a(__cvt_u.o)
 .debug_frame   0x000000000000bacc       0x2c c:/program files/microchip/xc32/v4.60/bin/bin/../../lib/gcc/pic32c/8.3.1/thumb/v7e-m+fp/hard\libgcc.a(_aeabi_uldivmod.o)
 .debug_frame   0x000000000000baf8       0x38 c:/program files/microchip/xc32/v4.60/bin/bin/../../lib/gcc/pic32c/8.3.1/thumb/v7e-m+fp/hard\libgcc.a(_udivmoddi4.o)
 .debug_frame   0x000000000000bb30       0x50 c:/program files/microchip/xc32/v4.60/bin/bin/../../lib/gcc/pic32c/8.3.1/../../../../pic32c/lib/thumb/v7e-m+fp/hard\libpic32c.a(sbrk.o)
 .debug_frame   0x000000000000bb80       0x28 c:/program files/microchip/xc32/v4.60/bin/bin/../../lib/gcc/pic32c/8.3.1/../../../../pic32c/lib/thumb/v7e-m+fp/hard\libc-size-musl.a(strcpy.o)
 .debug_frame   0x000000000000bba8       0x20 c:/program files/microchip/xc32/v4.60/bin/bin/../../lib/gcc/pic32c/8.3.1/../../../../pic32c/lib/thumb/v7e-m+fp/hard\libc-size-musl.a(stpcpy.o)
 .debug_frame   0x000000000000bbc8       0x20 c:/program files/microchip/xc32/v4.60/bin/bin/../../lib/gcc/pic32c/8.3.1/../../../../pic32c/lib/thumb/v7e-m+fp/hard\libpic32c.a(pic32_data_init_clear.o)
 .debug_frame   0x000000000000bbe8       0x28 c:/program files/microchip/xc32/v4.60/bin/bin/../../lib/gcc/pic32c/8.3.1/../../../../pic32c/lib/thumb/v7e-m+fp/hard\libpic32c.a(pic32_data_init_copy.o)

.debug_loc      0x0000000000000000    0x6b014
 .debug_loc     0x0000000000000000     0x129a build/default/production/_ext/1726652707/MCHP_Crypto_Aead_WolfCryptWrapper.o
 .debug_loc     0x000000000000129a      0x5bd build/default/production/_ext/1726652707/MCHP_Crypto_Mac_WolfCryptWrapper.o
 .debug_loc     0x0000000000001857      0x9e6 build/default/production/_ext/1726652707/MCHP_Crypto_Sym_WolfcryptWrapper.o
 .debug_loc     0x000000000000223d     0x182d build/default/production/_ext/1726652707/MCHP_Crypto_Aead_Cipher.o
 .debug_loc     0x0000000000003a6a      0xaf2 build/default/production/_ext/1726652707/MCHP_Crypto_Mac_Cipher.o
 .debug_loc     0x000000000000455c      0xf69 build/default/production/_ext/1726652707/MCHP_Crypto_Sym_Cipher.o
 .debug_loc     0x00000000000054c5      0x8df build/default/production/_ext/745501718/pal.o
 .debug_loc     0x0000000000005da4       0xbb build/default/production/_ext/957911548/phy_task.o
 .debug_loc     0x0000000000005e5f       0x25 build/default/production/_ext/957911548/phy_rx_frame_cb.o
 .debug_loc     0x0000000000005e84      0x1ee build/default/production/_ext/1374435801/bmm.o
 .debug_loc     0x0000000000006072      0x42b build/default/production/_ext/874725666/qmm.o
 .debug_loc     0x000000000000649d      0x5b5 build/default/production/_ext/1014741959/drv_plc_boot.o
 .debug_loc     0x0000000000006a52      0xc5d build/default/production/_ext/1014741959/drv_plc_hal.o
 .debug_loc     0x00000000000076af     0x1207 build/default/production/_ext/410113559/drv_g3_macrt_local_comm.o
 .debug_loc     0x00000000000088b6      0x445 build/default/production/_ext/410113559/drv_g3_macrt.o
 .debug_loc     0x0000000000008cfb      0x4a9 build/default/production/_ext/1033058136/helpers.o
 .debug_loc     0x00000000000091a4      0x495 build/default/production/_ext/1033058136/tcpip_notify.o
 .debug_loc     0x0000000000009639     0x2ed7 build/default/production/_ext/1033058136/ndp.o
 .debug_loc     0x000000000000c510     0x5812 build/default/production/_ext/1033058136/udp.o
 .debug_loc     0x0000000000011d22      0xad0 build/default/production/_ext/1033058136/tcpip_packet.o
 .debug_loc     0x00000000000127f2     0x9910 build/default/production/_ext/1033058136/ipv6.o
 .debug_loc     0x000000000001c102     0x2325 build/default/production/_ext/1033058136/icmpv6.o
 .debug_loc     0x000000000001e427     0x76af build/default/production/_ext/1033058136/tcpip_manager.o
 .debug_loc     0x0000000000025ad6     0x4403 build/default/production/_ext/1033058136/tcpip_helpers.o
 .debug_loc     0x0000000000029ed9      0x18f build/default/production/_ext/1033058136/tcpip_heap_alloc.o
 .debug_loc     0x000000000002a068     0x10c8 build/default/production/_ext/1033058136/tcpip_heap_internal.o
 .debug_loc     0x000000000002b130      0x628 build/default/production/_ext/1529399856/osal_freertos.o
 .debug_loc     0x000000000002b758      0x466 build/default/production/_ext/1529399856/osal_freertos_extend.o
 .debug_loc     0x000000000002bbbe       0x82 build/default/production/_ext/60165520/plib_clk.o
 .debug_loc     0x000000000002bc40      0x994 build/default/production/_ext/1865161661/plib_dmac.o
 .debug_loc     0x000000000002c5d4      0x130 build/default/production/_ext/60167341/plib_eic.o
 .debug_loc     0x000000000002c704       0x9b build/default/production/_ext/1865254177/plib_gpio.o
 .debug_loc     0x000000000002c79f      0x44c build/default/production/_ext/1865468468/plib_nvic.o
 .debug_loc     0x000000000002cbeb      0x7d9 build/default/production/_ext/60176403/plib_nvm.o
 .debug_loc     0x000000000002d3c4      0x620 build/default/production/_ext/17022449/plib_sercom2_spi_master.o
 .debug_loc     0x000000000002d9e4      0xca3 build/default/production/_ext/504274921/plib_sercom1_usart.o
 .debug_loc     0x000000000002e687       0x80 build/default/production/_ext/829342655/plib_tc0.o
 .debug_loc     0x000000000002e707      0x252 build/default/production/_ext/2064362748/srv_pcoup.o
 .debug_loc     0x000000000002e959      0x77c build/default/production/_ext/2065812886/srv_queue.o
 .debug_loc     0x000000000002f0d5      0x2a5 build/default/production/_ext/373899042/srv_random.o
 .debug_loc     0x000000000002f37a      0x8fb build/default/production/_ext/2135967589/cipher_wrapper.o
 .debug_loc     0x000000000002fc75       0xcf build/default/production/_ext/2135967589/aes_wrapper.o
 .debug_loc     0x000000000002fd44      0x89d build/default/production/_ext/1534551086/lbp_encode_decode.o
 .debug_loc     0x00000000000305e1     0x1e42 build/default/production/_ext/1534551086/lbp_dev.o
 .debug_loc     0x0000000000032423      0xc3e build/default/production/_ext/1534551086/routing_wrapper.o
 .debug_loc     0x0000000000033061     0x1d1e build/default/production/_ext/1534551086/eap_psk.o
 .debug_loc     0x0000000000034d7f      0xd75 build/default/production/_ext/1632721610/mac_common.o
 .debug_loc     0x0000000000035af4     0x1cfb build/default/production/_ext/1570337448/mac_wrapper.o
 .debug_loc     0x00000000000377ef     0x1606 build/default/production/_ext/710515956/drv_mac_g3adp.o
 .debug_loc     0x0000000000038df5      0xe33 build/default/production/_ext/977769160/pal_plc.o
 .debug_loc     0x0000000000039c28     0x19c1 build/default/production/_ext/1278466877/pal_rf.o
 .debug_loc     0x000000000003b5e9      0x836 build/default/production/_ext/1832805299/sys_console_uart.o
 .debug_loc     0x000000000003be1f      0x8b8 build/default/production/_ext/1832805299/sys_console.o
 .debug_loc     0x000000000003c6d7      0x115 build/default/production/_ext/944882569/sys_debug.o
 .debug_loc     0x000000000003c7ec      0x192 build/default/production/_ext/14461671/sys_dma.o
 .debug_loc     0x000000000003c97e      0x154 build/default/production/_ext/1881668453/sys_int.o
 .debug_loc     0x000000000003cad2     0x246e build/default/production/_ext/101884895/sys_time.o
 .debug_loc     0x000000000003ef40      0x13e build/default/production/_ext/753841488/sys_time_h2_adapter.o
 .debug_loc     0x000000000003f07e      0x2b1 build/default/production/_ext/1171490990/tasks.o
 .debug_loc     0x000000000003f32f      0x136 build/default/production/_ext/1171490990/initialization.o
 .debug_loc     0x000000000003f465       0x4a build/default/production/_ext/1171490990/startup_xc32.o
 .debug_loc     0x000000000003f4af       0x8e build/default/production/_ext/1171490990/freertos_hooks.o
 .debug_loc     0x000000000003f53d      0x1aa build/default/production/_ext/246609638/port.o
 .debug_loc     0x000000000003f6e7      0x596 build/default/production/_ext/1665200909/heap_4.o
 .debug_loc     0x000000000003fc7d      0x11c build/default/production/_ext/404212886/list.o
 .debug_loc     0x000000000003fd99     0x3015 build/default/production/_ext/404212886/FreeRTOS_tasks.o
 .debug_loc     0x0000000000042dae     0x22f8 build/default/production/_ext/404212886/queue.o
 .debug_loc     0x00000000000450a6     0x15e1 build/default/production/_ext/1716827871/cmac.o
 .debug_loc     0x0000000000046687     0x12d5 build/default/production/_ext/1716827871/sha256.o
 .debug_loc     0x000000000004795c     0x281b build/default/production/_ext/1716827871/random.o
 .debug_loc     0x000000000004a177     0xe5b5 build/default/production/_ext/1716827871/aes.o
 .debug_loc     0x000000000005872c     0x149f build/default/production/_ext/1664057780/misc.o
 .debug_loc     0x0000000000059bcb      0x1b0 build/default/production/_ext/1360937237/app_storage_wbz451h.o
 .debug_loc     0x0000000000059d7b       0xfe build/default/production/_ext/1360937237/app_idle_task.o
 .debug_loc     0x0000000000059e79      0x54a build/default/production/_ext/1360937237/app_udp_responder.o
 .debug_loc     0x000000000005a3c3      0x169 build/default/production/_ext/1360937237/app_tcpip_management.o
 .debug_loc     0x000000000005a52c      0x9f3 build/default/production/_ext/1360937237/app_g3_management.o
 .debug_loc     0x000000000005af1f       0x20 build/default/production/_ext/1360937237/main.o
 .debug_loc     0x000000000005af3f      0x222 build/default/production/_ext/1360937237/app_matrix_led.o
 .debug_loc     0x000000000005b161      0x7b9 ../src/config/default/driver/lib/lib-ieee802154_phy_pic32cxbz-v1.2.0.a(phy.o)
 .debug_loc     0x000000000005b91a      0x363 ../src/config/default/driver/lib/lib-ieee802154_phy_pic32cxbz-v1.2.0.a(phy_ed.o)
 .debug_loc     0x000000000005bc7d     0x126e ../src/config/default/driver/lib/lib-ieee802154_phy_pic32cxbz-v1.2.0.a(phy_helper.o)
 .debug_loc     0x000000000005ceeb      0x2b9 ../src/config/default/driver/lib/lib-ieee802154_phy_pic32cxbz-v1.2.0.a(phy_init.o)
 .debug_loc     0x000000000005d1a4      0x6d7 ../src/config/default/driver/lib/lib-ieee802154_phy_pic32cxbz-v1.2.0.a(phy_irq_handler.o)
 .debug_loc     0x000000000005d87b     0x13c9 ../src/config/default/driver/lib/lib-ieee802154_phy_pic32cxbz-v1.2.0.a(phy_pib.o)
 .debug_loc     0x000000000005ec44      0x26c ../src/config/default/driver/lib/lib-ieee802154_phy_pic32cxbz-v1.2.0.a(phy_pwr_mgmt.o)
 .debug_loc     0x000000000005eeb0      0xd48 ../src/config/default/driver/lib/lib-ieee802154_phy_pic32cxbz-v1.2.0.a(phy_rx.o)
 .debug_loc     0x000000000005fbf8       0x7f ../src/config/default/driver/lib/lib-ieee802154_phy_pic32cxbz-v1.2.0.a(phy_rx_enable.o)
 .debug_loc     0x000000000005fc77      0xbe7 ../src/config/default/driver/lib/lib-ieee802154_phy_pic32cxbz-v1.2.0.a(phy_tx.o)
 .debug_loc     0x000000000006085e      0x683 ../src/config/default/driver/lib/lib-ieee802154_phy_pic32cxbz-v1.2.0.a(tfa.o)
 .debug_loc     0x0000000000060ee1      0xccb ../src/config/default/driver/pds/pds.a(wlPdsDataServer.o)
 .debug_loc     0x0000000000061bac      0x13b ../src/config/default/driver/pds/pds.a(wlPdsInit.o)
 .debug_loc     0x0000000000061ce7      0x58b ../src/config/default/driver/pds/pds.a(D_Nv.o)
 .debug_loc     0x0000000000062272     0x177e ../src/config/default/driver/pds/pds.a(S_Nv-Chimera.o)
 .debug_loc     0x00000000000639f0     0x1076 ../src/config/default/driver/device_support/pic32cx_bz2_device_support.a(info_block.o)
 .debug_loc     0x0000000000064a66      0x6e9 ../src/config/default/driver/device_support/pic32cx_bz2_device_support.a(rf_system.o)
 .debug_loc     0x000000000006514f      0x300 ../src/config/default/driver/device_support/pic32cx_bz2_device_support.a(info_block_plat.o)
 .debug_loc     0x000000000006544f       0x9c ../src/config/default/driver/device_support/pic32cx_bz2_device_support.a(pmu_dvr.o)
 .debug_loc     0x00000000000654eb      0x402 ../src/config/default/driver/device_support/pic32cx_bz2_device_support.a(rf.o)
 .debug_loc     0x00000000000658ed       0x14 c:/program files/microchip/xc32/v4.60/bin/bin/../../lib/gcc/pic32c/8.3.1/../../../../pic32c/lib/thumb/v7e-m+fp/hard\libpic32c.a(data_init.o)
 .debug_loc     0x0000000000065901      0x10c c:/program files/microchip/xc32/v4.60/bin/bin/../../lib/gcc/pic32c/8.3.1/../../../../pic32c/lib/thumb/v7e-m+fp/hard\libc-size-musl.a(memcmp.o)
 .debug_loc     0x0000000000065a0d      0x10b c:/program files/microchip/xc32/v4.60/bin/bin/../../lib/gcc/pic32c/8.3.1/../../../../pic32c/lib/thumb/v7e-m+fp/hard\libc-size-musl.a(memcpy.o)
 .debug_loc     0x0000000000065b18      0x169 c:/program files/microchip/xc32/v4.60/bin/bin/../../lib/gcc/pic32c/8.3.1/../../../../pic32c/lib/thumb/v7e-m+fp/hard\libc-size-musl.a(memmove.o)
 .debug_loc     0x0000000000065c81       0x7d c:/program files/microchip/xc32/v4.60/bin/bin/../../lib/gcc/pic32c/8.3.1/../../../../pic32c/lib/thumb/v7e-m+fp/hard\libc-size-musl.a(memset.o)
 .debug_loc     0x0000000000065cfe       0x90 c:/program files/microchip/xc32/v4.60/bin/bin/../../lib/gcc/pic32c/8.3.1/../../../../pic32c/lib/thumb/v7e-m+fp/hard\libc-size-musl.a(strlen.o)
 .debug_loc     0x0000000000065d8e       0x96 c:/program files/microchip/xc32/v4.60/bin/bin/../../lib/gcc/pic32c/8.3.1/../../../../pic32c/lib/thumb/v7e-m+fp/hard\libc-size-musl.a(strcmp.o)
 .debug_loc     0x0000000000065e24       0x8c c:/program files/microchip/xc32/v4.60/bin/bin/../../lib/gcc/pic32c/8.3.1/../../../../pic32c/lib/thumb/v7e-m+fp/hard\libc-size-musl.a(strncpy.o)
 .debug_loc     0x0000000000065eb0       0xaa c:/program files/microchip/xc32/v4.60/bin/bin/../../lib/gcc/pic32c/8.3.1/../../../../pic32c/lib/thumb/v7e-m+fp/hard\libc-size-musl.a(strrchr.o)
 .debug_loc     0x0000000000065f5a       0xc6 c:/program files/microchip/xc32/v4.60/bin/bin/../../lib/gcc/pic32c/8.3.1/../../../../pic32c/lib/thumb/v7e-m+fp/hard\libc-size-musl.a(memrchr.o)
 .debug_loc     0x0000000000066020      0x13f c:/program files/microchip/xc32/v4.60/bin/bin/../../lib/gcc/pic32c/8.3.1/../../../../pic32c/lib/thumb/v7e-m+fp/hard\libc-size-musl.a(stpncpy.o)
 .debug_loc     0x000000000006615f      0x2ed c:/program files/microchip/xc32/v4.60/bin/bin/../../lib/gcc/pic32c/8.3.1/../../../../pic32c/lib/thumb/v7e-m+fp/hard\liblmalloc-musl.a(lite_free.o)
 .debug_loc     0x000000000006644c       0xf3 c:/program files/microchip/xc32/v4.60/bin/bin/../../lib/gcc/pic32c/8.3.1/../../../../pic32c/lib/thumb/v7e-m+fp/hard\liblmalloc-musl.a(lite_malloc.o)
 .debug_loc     0x000000000006653f       0x65 c:/program files/microchip/xc32/v4.60/bin/bin/../../lib/gcc/pic32c/8.3.1/../../../../pic32c/lib/thumb/v7e-m+fp/hard\libc-musl.a(isxdigit.o)
 .debug_loc     0x00000000000665a4       0x4a c:/program files/microchip/xc32/v4.60/bin/bin/../../lib/gcc/pic32c/8.3.1/../../../../pic32c/lib/thumb/v7e-m+fp/hard\libc-musl.a(tolower.o)
 .debug_loc     0x00000000000665ee       0x4a c:/program files/microchip/xc32/v4.60/bin/bin/../../lib/gcc/pic32c/8.3.1/../../../../pic32c/lib/thumb/v7e-m+fp/hard\libc-musl.a(toupper.o)
 .debug_loc     0x0000000000066638       0x51 c:/program files/microchip/xc32/v4.60/bin/bin/../../lib/gcc/pic32c/8.3.1/../../../../pic32c/lib/thumb/v7e-m+fp/hard\libc-musl.a(__libc_start_main.o)
 .debug_loc     0x0000000000066689       0x7c c:/program files/microchip/xc32/v4.60/bin/bin/../../lib/gcc/pic32c/8.3.1/../../../../pic32c/lib/thumb/v7e-m+fp/hard\libc-musl.a(expand_heap.o)
 .debug_loc     0x0000000000066705       0x24 c:/program files/microchip/xc32/v4.60/bin/bin/../../lib/gcc/pic32c/8.3.1/../../../../pic32c/lib/thumb/v7e-m+fp/hard\libc-musl.a(rand.o)
 .debug_loc     0x0000000000066729       0xeb c:/program files/microchip/xc32/v4.60/bin/bin/../../lib/gcc/pic32c/8.3.1/../../../../pic32c/lib/thumb/v7e-m+fp/hard\libc-musl.a(vsnprintf.o)
 .debug_loc     0x0000000000066814       0xaf c:/program files/microchip/xc32/v4.60/bin/bin/../../lib/gcc/pic32c/8.3.1/../../../../pic32c/lib/thumb/v7e-m+fp/hard\libc-musl.a(snprintf.o)
 .debug_loc     0x00000000000668c3       0x8a c:/program files/microchip/xc32/v4.60/bin/bin/../../lib/gcc/pic32c/8.3.1/../../../../pic32c/lib/thumb/v7e-m+fp/hard\libc-musl.a(sprintf.o)
 .debug_loc     0x000000000006694d       0x6c c:/program files/microchip/xc32/v4.60/bin/bin/../../lib/gcc/pic32c/8.3.1/../../../../pic32c/lib/thumb/v7e-m+fp/hard\libc-musl.a(vsprintf.o)
 .debug_loc     0x00000000000669b9      0x440 c:/program files/microchip/xc32/v4.60/bin/bin/../../lib/gcc/pic32c/8.3.1/../../../../pic32c/lib/thumb/v7e-m+fp/hard\libc-musl.a(strtol.o)
 .debug_loc     0x0000000000066df9      0x5df c:/program files/microchip/xc32/v4.60/bin/bin/../../lib/gcc/pic32c/8.3.1/../../../../pic32c/lib/thumb/v7e-m+fp/hard\libc-musl.a(intscan.o)
 .debug_loc     0x00000000000673d8       0x91 c:/program files/microchip/xc32/v4.60/bin/bin/../../lib/gcc/pic32c/8.3.1/../../../../pic32c/lib/thumb/v7e-m+fp/hard\libc-musl.a(shgetc.o)
 .debug_loc     0x0000000000067469       0x5a c:/program files/microchip/xc32/v4.60/bin/bin/../../lib/gcc/pic32c/8.3.1/../../../../pic32c/lib/thumb/v7e-m+fp/hard\libc-musl.a(__uflow.o)
 .debug_loc     0x00000000000674c3       0x88 c:/program files/microchip/xc32/v4.60/bin/bin/../../lib/gcc/pic32c/8.3.1/../../../../pic32c/lib/thumb/v7e-m+fp/hard\libc-musl.a(vfprintf.o)
 .debug_loc     0x000000000006754b       0x42 c:/program files/microchip/xc32/v4.60/bin/bin/../../lib/gcc/pic32c/8.3.1/../../../../pic32c/lib/thumb/v7e-m+fp/hard\libc-musl.a(__toread.o)
 .debug_loc     0x000000000006758d       0xa6 c:/program files/microchip/xc32/v4.60/bin/bin/../../lib/gcc/pic32c/8.3.1/../../../../pic32c/lib/thumb/v7e-m+fp/hard\libc-musl.a(__pop_float.o)
 .debug_loc     0x0000000000067633      0x2f5 c:/program files/microchip/xc32/v4.60/bin/bin/../../lib/gcc/pic32c/8.3.1/../../../../pic32c/lib/thumb/v7e-m+fp/hard\libc-musl.a(__pop_int.o)
 .debug_loc     0x0000000000067928      0x1db c:/program files/microchip/xc32/v4.60/bin/bin/../../lib/gcc/pic32c/8.3.1/../../../../pic32c/lib/thumb/v7e-m+fp/hard\libc-musl.a(__pop_ptr.o)
 .debug_loc     0x0000000000067b03      0x5e9 c:/program files/microchip/xc32/v4.60/bin/bin/../../lib/gcc/pic32c/8.3.1/../../../../pic32c/lib/thumb/v7e-m+fp/hard\libc-musl.a(__printf_core.o)
 .debug_loc     0x00000000000680ec       0xd8 c:/program files/microchip/xc32/v4.60/bin/bin/../../lib/gcc/pic32c/8.3.1/../../../../pic32c/lib/thumb/v7e-m+fp/hard\libc-musl.a(atoi.o)
 .debug_loc     0x00000000000681c4      0xb29 c:/program files/microchip/xc32/v4.60/bin/bin/../../lib/gcc/pic32c/8.3.1/../../../../pic32c/lib/thumb/v7e-m+fp/hard\libc-musl.a(__fmt_a.o)
 .debug_loc     0x0000000000068ced      0x1ef c:/program files/microchip/xc32/v4.60/bin/bin/../../lib/gcc/pic32c/8.3.1/../../../../pic32c/lib/thumb/v7e-m+fp/hard\libc-musl.a(__fmt_d.o)
 .debug_loc     0x0000000000068edc      0xa5d c:/program files/microchip/xc32/v4.60/bin/bin/../../lib/gcc/pic32c/8.3.1/../../../../pic32c/lib/thumb/v7e-m+fp/hard\libc-musl.a(__fmt_fp.o)
 .debug_loc     0x0000000000069939      0x10a c:/program files/microchip/xc32/v4.60/bin/bin/../../lib/gcc/pic32c/8.3.1/../../../../pic32c/lib/thumb/v7e-m+fp/hard\libc-musl.a(__fmt_o.o)
 .debug_loc     0x0000000000069a43      0x157 c:/program files/microchip/xc32/v4.60/bin/bin/../../lib/gcc/pic32c/8.3.1/../../../../pic32c/lib/thumb/v7e-m+fp/hard\libc-musl.a(__fmt_s.o)
 .debug_loc     0x0000000000069b9a      0x10a c:/program files/microchip/xc32/v4.60/bin/bin/../../lib/gcc/pic32c/8.3.1/../../../../pic32c/lib/thumb/v7e-m+fp/hard\libc-musl.a(__fmt_u.o)
 .debug_loc     0x0000000000069ca4      0x26d c:/program files/microchip/xc32/v4.60/bin/bin/../../lib/gcc/pic32c/8.3.1/../../../../pic32c/lib/thumb/v7e-m+fp/hard\libc-musl.a(__fmt_x.o)
 .debug_loc     0x0000000000069f11      0x197 c:/program files/microchip/xc32/v4.60/bin/bin/../../lib/gcc/pic32c/8.3.1/../../../../pic32c/lib/thumb/v7e-m+fp/hard\libc-musl.a(__cvt_u.o)
 .debug_loc     0x000000000006a0a8      0xe69 c:/program files/microchip/xc32/v4.60/bin/bin/../../lib/gcc/pic32c/8.3.1/thumb/v7e-m+fp/hard\libgcc.a(_udivmoddi4.o)
 .debug_loc     0x000000000006af11       0x28 c:/program files/microchip/xc32/v4.60/bin/bin/../../lib/gcc/pic32c/8.3.1/../../../../pic32c/lib/thumb/v7e-m+fp/hard\libpic32c.a(sbrk.o)
 .debug_loc     0x000000000006af39       0x67 c:/program files/microchip/xc32/v4.60/bin/bin/../../lib/gcc/pic32c/8.3.1/../../../../pic32c/lib/thumb/v7e-m+fp/hard\libc-size-musl.a(strcpy.o)
 .debug_loc     0x000000000006afa0       0x60 c:/program files/microchip/xc32/v4.60/bin/bin/../../lib/gcc/pic32c/8.3.1/../../../../pic32c/lib/thumb/v7e-m+fp/hard\libc-size-musl.a(stpcpy.o)
 .debug_loc     0x000000000006b000       0x14 c:/program files/microchip/xc32/v4.60/bin/bin/../../lib/gcc/pic32c/8.3.1/../../../../pic32c/lib/thumb/v7e-m+fp/hard\libpic32c.a(pic32_data_init_copy.o)

.debug_ranges   0x0000000000000000     0x7800
 .debug_ranges  0x0000000000000000       0x10 build/default/production/_ext/1726652707/MCHP_Crypto_Aead_WolfCryptWrapper.o
 .debug_ranges  0x0000000000000010       0x10 build/default/production/_ext/1726652707/MCHP_Crypto_Mac_WolfCryptWrapper.o
 .debug_ranges  0x0000000000000020       0x40 build/default/production/_ext/1726652707/MCHP_Crypto_Sym_WolfcryptWrapper.o
 .debug_ranges  0x0000000000000060       0x50 build/default/production/_ext/745501718/pal.o
 .debug_ranges  0x00000000000000b0       0x10 build/default/production/_ext/957911548/phy_task.o
 .debug_ranges  0x00000000000000c0       0x10 build/default/production/_ext/1374435801/bmm.o
 .debug_ranges  0x00000000000000d0       0x18 build/default/production/_ext/874725666/qmm.o
 .debug_ranges  0x00000000000000e8       0x90 build/default/production/_ext/1014741959/drv_plc_boot.o
 .debug_ranges  0x0000000000000178       0x88 build/default/production/_ext/1014741959/drv_plc_hal.o
 .debug_ranges  0x0000000000000200      0x150 build/default/production/_ext/410113559/drv_g3_macrt_local_comm.o
 .debug_ranges  0x0000000000000350       0x48 build/default/production/_ext/410113559/drv_g3_macrt.o
 .debug_ranges  0x0000000000000398       0x50 build/default/production/_ext/1033058136/tcpip_notify.o
 .debug_ranges  0x00000000000003e8      0x238 build/default/production/_ext/1033058136/ndp.o
 .debug_ranges  0x0000000000000620      0x958 build/default/production/_ext/1033058136/udp.o
 .debug_ranges  0x0000000000000f78       0xe8 build/default/production/_ext/1033058136/tcpip_packet.o
 .debug_ranges  0x0000000000001060      0xc08 build/default/production/_ext/1033058136/ipv6.o
 .debug_ranges  0x0000000000001c68      0x130 build/default/production/_ext/1033058136/icmpv6.o
 .debug_ranges  0x0000000000001d98      0xa08 build/default/production/_ext/1033058136/tcpip_manager.o
 .debug_ranges  0x00000000000027a0      0x3d8 build/default/production/_ext/1033058136/tcpip_helpers.o
 .debug_ranges  0x0000000000002b78       0xc8 build/default/production/_ext/1033058136/tcpip_heap_internal.o
 .debug_ranges  0x0000000000002c40       0x78 build/default/production/_ext/1865161661/plib_dmac.o
 .debug_ranges  0x0000000000002cb8       0x18 build/default/production/_ext/60167341/plib_eic.o
 .debug_ranges  0x0000000000002cd0      0x128 build/default/production/_ext/1865468468/plib_nvic.o
 .debug_ranges  0x0000000000002df8      0x1e0 build/default/production/_ext/60176403/plib_nvm.o
 .debug_ranges  0x0000000000002fd8      0x1c8 build/default/production/_ext/504274921/plib_sercom1_usart.o
 .debug_ranges  0x00000000000031a0       0x78 build/default/production/_ext/2065812886/srv_queue.o
 .debug_ranges  0x0000000000003218       0x10 build/default/production/_ext/373899042/srv_random.o
 .debug_ranges  0x0000000000003228      0x4f8 build/default/production/_ext/1534551086/lbp_dev.o
 .debug_ranges  0x0000000000003720       0xd0 build/default/production/_ext/1534551086/routing_wrapper.o
 .debug_ranges  0x00000000000037f0       0x38 build/default/production/_ext/1534551086/eap_psk.o
 .debug_ranges  0x0000000000003828      0x110 build/default/production/_ext/1632721610/mac_common.o
 .debug_ranges  0x0000000000003938       0xd0 build/default/production/_ext/1570337448/mac_wrapper.o
 .debug_ranges  0x0000000000003a08      0x200 build/default/production/_ext/710515956/drv_mac_g3adp.o
 .debug_ranges  0x0000000000003c08       0xa0 build/default/production/_ext/977769160/pal_plc.o
 .debug_ranges  0x0000000000003ca8      0x178 build/default/production/_ext/1278466877/pal_rf.o
 .debug_ranges  0x0000000000003e20       0xa8 build/default/production/_ext/1832805299/sys_console_uart.o
 .debug_ranges  0x0000000000003ec8       0x68 build/default/production/_ext/1881668453/sys_int.o
 .debug_ranges  0x0000000000003f30      0x1e0 build/default/production/_ext/101884895/sys_time.o
 .debug_ranges  0x0000000000004110       0x68 build/default/production/_ext/1171490990/initialization.o
 .debug_ranges  0x0000000000004178       0x18 build/default/production/_ext/1171490990/startup_xc32.o
 .debug_ranges  0x0000000000004190       0x18 build/default/production/_ext/246609638/port.o
 .debug_ranges  0x00000000000041a8       0x48 build/default/production/_ext/1665200909/heap_4.o
 .debug_ranges  0x00000000000041f0      0x890 build/default/production/_ext/404212886/FreeRTOS_tasks.o
 .debug_ranges  0x0000000000004a80      0x2f8 build/default/production/_ext/404212886/queue.o
 .debug_ranges  0x0000000000004d78       0x18 build/default/production/_ext/1716827871/cmac.o
 .debug_ranges  0x0000000000004d90      0x150 build/default/production/_ext/1716827871/sha256.o
 .debug_ranges  0x0000000000004ee0      0x1b0 build/default/production/_ext/1716827871/random.o
 .debug_ranges  0x0000000000005090      0xdd8 build/default/production/_ext/1716827871/aes.o
 .debug_ranges  0x0000000000005e68      0x110 build/default/production/_ext/1664057780/misc.o
 .debug_ranges  0x0000000000005f78       0x28 build/default/production/_ext/1360937237/app_idle_task.o
 .debug_ranges  0x0000000000005fa0      0x100 build/default/production/_ext/1360937237/app_udp_responder.o
 .debug_ranges  0x00000000000060a0       0x18 build/default/production/_ext/1360937237/app_tcpip_management.o
 .debug_ranges  0x00000000000060b8      0x118 build/default/production/_ext/1360937237/app_g3_management.o
 .debug_ranges  0x00000000000061d0      0x238 ../src/config/default/driver/lib/lib-ieee802154_phy_pic32cxbz-v1.2.0.a(phy.o)
 .debug_ranges  0x0000000000006408       0x80 ../src/config/default/driver/lib/lib-ieee802154_phy_pic32cxbz-v1.2.0.a(phy_ed.o)
 .debug_ranges  0x0000000000006488      0x1e8 ../src/config/default/driver/lib/lib-ieee802154_phy_pic32cxbz-v1.2.0.a(phy_helper.o)
 .debug_ranges  0x0000000000006670       0x60 ../src/config/default/driver/lib/lib-ieee802154_phy_pic32cxbz-v1.2.0.a(phy_init.o)
 .debug_ranges  0x00000000000066d0       0x78 ../src/config/default/driver/lib/lib-ieee802154_phy_pic32cxbz-v1.2.0.a(phy_irq_handler.o)
 .debug_ranges  0x0000000000006748      0x2a8 ../src/config/default/driver/lib/lib-ieee802154_phy_pic32cxbz-v1.2.0.a(phy_pib.o)
 .debug_ranges  0x00000000000069f0       0x60 ../src/config/default/driver/lib/lib-ieee802154_phy_pic32cxbz-v1.2.0.a(phy_pwr_mgmt.o)
 .debug_ranges  0x0000000000006a50       0xc8 ../src/config/default/driver/lib/lib-ieee802154_phy_pic32cxbz-v1.2.0.a(phy_rx.o)
 .debug_ranges  0x0000000000006b18       0x10 ../src/config/default/driver/lib/lib-ieee802154_phy_pic32cxbz-v1.2.0.a(phy_rx_enable.o)
 .debug_ranges  0x0000000000006b28      0x1c8 ../src/config/default/driver/lib/lib-ieee802154_phy_pic32cxbz-v1.2.0.a(phy_tx.o)
 .debug_ranges  0x0000000000006cf0      0x108 ../src/config/default/driver/lib/lib-ieee802154_phy_pic32cxbz-v1.2.0.a(tfa.o)
 .debug_ranges  0x0000000000006df8       0x28 ../src/config/default/driver/lib/lib-ieee802154_phy_pic32cxbz-v1.2.0.a(phy_frame_handling.o)
 .debug_ranges  0x0000000000006e20      0x190 ../src/config/default/driver/pds/pds.a(wlPdsDataServer.o)
 .debug_ranges  0x0000000000006fb0       0x18 ../src/config/default/driver/pds/pds.a(wlPdsInit.o)
 .debug_ranges  0x0000000000006fc8       0x30 ../src/config/default/driver/pds/pds.a(D_Nv.o)
 .debug_ranges  0x0000000000006ff8      0x2b8 ../src/config/default/driver/pds/pds.a(S_Nv-Chimera.o)
 .debug_ranges  0x00000000000072b0       0x30 ../src/config/default/driver/device_support/pic32cx_bz2_device_support.a(info_block.o)
 .debug_ranges  0x00000000000072e0       0x18 ../src/config/default/driver/device_support/pic32cx_bz2_device_support.a(rf_system.o)
 .debug_ranges  0x00000000000072f8       0x18 ../src/config/default/driver/device_support/pic32cx_bz2_device_support.a(info_block_plat.o)
 .debug_ranges  0x0000000000007310       0x28 ../src/config/default/driver/device_support/pic32cx_bz2_device_support.a(rf.o)
 .debug_ranges  0x0000000000007338       0x20 c:/program files/microchip/xc32/v4.60/bin/bin/../../lib/gcc/pic32c/8.3.1/../../../../pic32c/lib/thumb/v7e-m+fp/hard\libpic32c.a(data_init.o)
 .debug_ranges  0x0000000000007358       0x10 c:/program files/microchip/xc32/v4.60/bin/bin/../../lib/gcc/pic32c/8.3.1/../../../../pic32c/lib/thumb/v7e-m+fp/hard\libc-size-musl.a(memcmp.o)
 .debug_ranges  0x0000000000007368       0x10 c:/program files/microchip/xc32/v4.60/bin/bin/../../lib/gcc/pic32c/8.3.1/../../../../pic32c/lib/thumb/v7e-m+fp/hard\libc-size-musl.a(memcpy.o)
 .debug_ranges  0x0000000000007378       0x10 c:/program files/microchip/xc32/v4.60/bin/bin/../../lib/gcc/pic32c/8.3.1/../../../../pic32c/lib/thumb/v7e-m+fp/hard\libc-size-musl.a(memmove.o)
 .debug_ranges  0x0000000000007388       0x10 c:/program files/microchip/xc32/v4.60/bin/bin/../../lib/gcc/pic32c/8.3.1/../../../../pic32c/lib/thumb/v7e-m+fp/hard\libc-size-musl.a(memset.o)
 .debug_ranges  0x0000000000007398       0x10 c:/program files/microchip/xc32/v4.60/bin/bin/../../lib/gcc/pic32c/8.3.1/../../../../pic32c/lib/thumb/v7e-m+fp/hard\libc-size-musl.a(strlen.o)
 .debug_ranges  0x00000000000073a8       0x10 c:/program files/microchip/xc32/v4.60/bin/bin/../../lib/gcc/pic32c/8.3.1/../../../../pic32c/lib/thumb/v7e-m+fp/hard\libc-size-musl.a(strcmp.o)
 .debug_ranges  0x00000000000073b8       0x10 c:/program files/microchip/xc32/v4.60/bin/bin/../../lib/gcc/pic32c/8.3.1/../../../../pic32c/lib/thumb/v7e-m+fp/hard\libc-size-musl.a(strncpy.o)
 .debug_ranges  0x00000000000073c8       0x10 c:/program files/microchip/xc32/v4.60/bin/bin/../../lib/gcc/pic32c/8.3.1/../../../../pic32c/lib/thumb/v7e-m+fp/hard\libc-size-musl.a(strrchr.o)
 .debug_ranges  0x00000000000073d8       0x10 c:/program files/microchip/xc32/v4.60/bin/bin/../../lib/gcc/pic32c/8.3.1/../../../../pic32c/lib/thumb/v7e-m+fp/hard\libc-size-musl.a(memrchr.o)
 .debug_ranges  0x00000000000073e8       0x10 c:/program files/microchip/xc32/v4.60/bin/bin/../../lib/gcc/pic32c/8.3.1/../../../../pic32c/lib/thumb/v7e-m+fp/hard\libc-size-musl.a(stpncpy.o)
 .debug_ranges  0x00000000000073f8       0x20 c:/program files/microchip/xc32/v4.60/bin/bin/../../lib/gcc/pic32c/8.3.1/../../../../pic32c/lib/thumb/v7e-m+fp/hard\liblmalloc-musl.a(lite_free.o)
 .debug_ranges  0x0000000000007418       0x10 c:/program files/microchip/xc32/v4.60/bin/bin/../../lib/gcc/pic32c/8.3.1/../../../../pic32c/lib/thumb/v7e-m+fp/hard\liblmalloc-musl.a(lite_malloc.o)
 .debug_ranges  0x0000000000007428       0x18 c:/program files/microchip/xc32/v4.60/bin/bin/../../lib/gcc/pic32c/8.3.1/../../../../pic32c/lib/thumb/v7e-m+fp/hard\libc-musl.a(isxdigit.o)
 .debug_ranges  0x0000000000007440       0x18 c:/program files/microchip/xc32/v4.60/bin/bin/../../lib/gcc/pic32c/8.3.1/../../../../pic32c/lib/thumb/v7e-m+fp/hard\libc-musl.a(tolower.o)
 .debug_ranges  0x0000000000007458       0x18 c:/program files/microchip/xc32/v4.60/bin/bin/../../lib/gcc/pic32c/8.3.1/../../../../pic32c/lib/thumb/v7e-m+fp/hard\libc-musl.a(toupper.o)
 .debug_ranges  0x0000000000007470       0x40 c:/program files/microchip/xc32/v4.60/bin/bin/../../lib/gcc/pic32c/8.3.1/../../../../pic32c/lib/thumb/v7e-m+fp/hard\libc-musl.a(__libc_start_main.o)
 .debug_ranges  0x00000000000074b0       0x10 c:/program files/microchip/xc32/v4.60/bin/bin/../../lib/gcc/pic32c/8.3.1/../../../../pic32c/lib/thumb/v7e-m+fp/hard\libc-musl.a(expand_heap.o)
 .debug_ranges  0x00000000000074c0       0x18 c:/program files/microchip/xc32/v4.60/bin/bin/../../lib/gcc/pic32c/8.3.1/../../../../pic32c/lib/thumb/v7e-m+fp/hard\libc-musl.a(rand.o)
 .debug_ranges  0x00000000000074d8       0x10 c:/program files/microchip/xc32/v4.60/bin/bin/../../lib/gcc/pic32c/8.3.1/../../../../pic32c/lib/thumb/v7e-m+fp/hard\libc-musl.a(vsnprintf.o)
 .debug_ranges  0x00000000000074e8       0x10 c:/program files/microchip/xc32/v4.60/bin/bin/../../lib/gcc/pic32c/8.3.1/../../../../pic32c/lib/thumb/v7e-m+fp/hard\libc-musl.a(snprintf.o)
 .debug_ranges  0x00000000000074f8       0x10 c:/program files/microchip/xc32/v4.60/bin/bin/../../lib/gcc/pic32c/8.3.1/../../../../pic32c/lib/thumb/v7e-m+fp/hard\libc-musl.a(sprintf.o)
 .debug_ranges  0x0000000000007508       0x10 c:/program files/microchip/xc32/v4.60/bin/bin/../../lib/gcc/pic32c/8.3.1/../../../../pic32c/lib/thumb/v7e-m+fp/hard\libc-musl.a(vsprintf.o)
 .debug_ranges  0x0000000000007518       0x40 c:/program files/microchip/xc32/v4.60/bin/bin/../../lib/gcc/pic32c/8.3.1/../../../../pic32c/lib/thumb/v7e-m+fp/hard\libc-musl.a(strtol.o)
 .debug_ranges  0x0000000000007558       0x28 c:/program files/microchip/xc32/v4.60/bin/bin/../../lib/gcc/pic32c/8.3.1/../../../../pic32c/lib/thumb/v7e-m+fp/hard\libc-musl.a(intscan.o)
 .debug_ranges  0x0000000000007580       0x18 c:/program files/microchip/xc32/v4.60/bin/bin/../../lib/gcc/pic32c/8.3.1/../../../../pic32c/lib/thumb/v7e-m+fp/hard\libc-musl.a(shgetc.o)
 .debug_ranges  0x0000000000007598       0x10 c:/program files/microchip/xc32/v4.60/bin/bin/../../lib/gcc/pic32c/8.3.1/../../../../pic32c/lib/thumb/v7e-m+fp/hard\libc-musl.a(__uflow.o)
 .debug_ranges  0x00000000000075a8       0x18 c:/program files/microchip/xc32/v4.60/bin/bin/../../lib/gcc/pic32c/8.3.1/../../../../pic32c/lib/thumb/v7e-m+fp/hard\libc-musl.a(vfprintf.o)
 .debug_ranges  0x00000000000075c0       0x18 c:/program files/microchip/xc32/v4.60/bin/bin/../../lib/gcc/pic32c/8.3.1/../../../../pic32c/lib/thumb/v7e-m+fp/hard\libc-musl.a(__toread.o)
 .debug_ranges  0x00000000000075d8       0x10 c:/program files/microchip/xc32/v4.60/bin/bin/../../lib/gcc/pic32c/8.3.1/../../../../pic32c/lib/thumb/v7e-m+fp/hard\libc-musl.a(__pop_float.o)
 .debug_ranges  0x00000000000075e8       0x10 c:/program files/microchip/xc32/v4.60/bin/bin/../../lib/gcc/pic32c/8.3.1/../../../../pic32c/lib/thumb/v7e-m+fp/hard\libc-musl.a(__pop_int.o)
 .debug_ranges  0x00000000000075f8       0x10 c:/program files/microchip/xc32/v4.60/bin/bin/../../lib/gcc/pic32c/8.3.1/../../../../pic32c/lib/thumb/v7e-m+fp/hard\libc-musl.a(__pop_ptr.o)
 .debug_ranges  0x0000000000007608       0x58 c:/program files/microchip/xc32/v4.60/bin/bin/../../lib/gcc/pic32c/8.3.1/../../../../pic32c/lib/thumb/v7e-m+fp/hard\libc-musl.a(__printf_core.o)
 .debug_ranges  0x0000000000007660       0x10 c:/program files/microchip/xc32/v4.60/bin/bin/../../lib/gcc/pic32c/8.3.1/../../../../pic32c/lib/thumb/v7e-m+fp/hard\libc-musl.a(atoi.o)
 .debug_ranges  0x0000000000007670       0x10 c:/program files/microchip/xc32/v4.60/bin/bin/../../lib/gcc/pic32c/8.3.1/../../../../pic32c/lib/thumb/v7e-m+fp/hard\libc-musl.a(__fmt_a.o)
 .debug_ranges  0x0000000000007680       0x10 c:/program files/microchip/xc32/v4.60/bin/bin/../../lib/gcc/pic32c/8.3.1/../../../../pic32c/lib/thumb/v7e-m+fp/hard\libc-musl.a(__fmt_d.o)
 .debug_ranges  0x0000000000007690       0x10 c:/program files/microchip/xc32/v4.60/bin/bin/../../lib/gcc/pic32c/8.3.1/../../../../pic32c/lib/thumb/v7e-m+fp/hard\libc-musl.a(__fmt_fp.o)
 .debug_ranges  0x00000000000076a0       0x10 c:/program files/microchip/xc32/v4.60/bin/bin/../../lib/gcc/pic32c/8.3.1/../../../../pic32c/lib/thumb/v7e-m+fp/hard\libc-musl.a(__fmt_o.o)
 .debug_ranges  0x00000000000076b0       0x10 c:/program files/microchip/xc32/v4.60/bin/bin/../../lib/gcc/pic32c/8.3.1/../../../../pic32c/lib/thumb/v7e-m+fp/hard\libc-musl.a(__fmt_s.o)
 .debug_ranges  0x00000000000076c0       0x10 c:/program files/microchip/xc32/v4.60/bin/bin/../../lib/gcc/pic32c/8.3.1/../../../../pic32c/lib/thumb/v7e-m+fp/hard\libc-musl.a(__fmt_u.o)
 .debug_ranges  0x00000000000076d0       0x10 c:/program files/microchip/xc32/v4.60/bin/bin/../../lib/gcc/pic32c/8.3.1/../../../../pic32c/lib/thumb/v7e-m+fp/hard\libc-musl.a(__fmt_x.o)
 .debug_ranges  0x00000000000076e0       0x10 c:/program files/microchip/xc32/v4.60/bin/bin/../../lib/gcc/pic32c/8.3.1/../../../../pic32c/lib/thumb/v7e-m+fp/hard\libc-musl.a(__cvt_u.o)
 .debug_ranges  0x00000000000076f0       0xb0 c:/program files/microchip/xc32/v4.60/bin/bin/../../lib/gcc/pic32c/8.3.1/thumb/v7e-m+fp/hard\libgcc.a(_udivmoddi4.o)
 .debug_ranges  0x00000000000077a0       0x20 c:/program files/microchip/xc32/v4.60/bin/bin/../../lib/gcc/pic32c/8.3.1/../../../../pic32c/lib/thumb/v7e-m+fp/hard\libpic32c.a(sbrk.o)
 .debug_ranges  0x00000000000077c0       0x10 c:/program files/microchip/xc32/v4.60/bin/bin/../../lib/gcc/pic32c/8.3.1/../../../../pic32c/lib/thumb/v7e-m+fp/hard\libc-size-musl.a(strcpy.o)
 .debug_ranges  0x00000000000077d0       0x10 c:/program files/microchip/xc32/v4.60/bin/bin/../../lib/gcc/pic32c/8.3.1/../../../../pic32c/lib/thumb/v7e-m+fp/hard\libc-size-musl.a(stpcpy.o)
 .debug_ranges  0x00000000000077e0       0x10 c:/program files/microchip/xc32/v4.60/bin/bin/../../lib/gcc/pic32c/8.3.1/../../../../pic32c/lib/thumb/v7e-m+fp/hard\libpic32c.a(pic32_data_init_clear.o)
 .debug_ranges  0x00000000000077f0       0x10 c:/program files/microchip/xc32/v4.60/bin/bin/../../lib/gcc/pic32c/8.3.1/../../../../pic32c/lib/thumb/v7e-m+fp/hard\libpic32c.a(pic32_data_init_copy.o)

.note.GNU-stack
                0x0000000000000000        0x0
 .note.GNU-stack
                0x0000000000000000        0x0 c:/program files/microchip/xc32/v4.60/bin/bin/../../lib/gcc/pic32c/8.3.1/../../../../pic32c/lib/thumb/v7e-m+fp/hard\libc-size-musl.a(memcmp.o)
 .note.GNU-stack
                0x0000000000000000        0x0 c:/program files/microchip/xc32/v4.60/bin/bin/../../lib/gcc/pic32c/8.3.1/../../../../pic32c/lib/thumb/v7e-m+fp/hard\libc-size-musl.a(memcpy.o)
 .note.GNU-stack
                0x0000000000000000        0x0 c:/program files/microchip/xc32/v4.60/bin/bin/../../lib/gcc/pic32c/8.3.1/../../../../pic32c/lib/thumb/v7e-m+fp/hard\libc-size-musl.a(memmove.o)
 .note.GNU-stack
                0x0000000000000000        0x0 c:/program files/microchip/xc32/v4.60/bin/bin/../../lib/gcc/pic32c/8.3.1/../../../../pic32c/lib/thumb/v7e-m+fp/hard\libc-size-musl.a(memset.o)
 .note.GNU-stack
                0x0000000000000000        0x0 c:/program files/microchip/xc32/v4.60/bin/bin/../../lib/gcc/pic32c/8.3.1/../../../../pic32c/lib/thumb/v7e-m+fp/hard\libc-size-musl.a(strlen.o)
 .note.GNU-stack
                0x0000000000000000        0x0 c:/program files/microchip/xc32/v4.60/bin/bin/../../lib/gcc/pic32c/8.3.1/../../../../pic32c/lib/thumb/v7e-m+fp/hard\libc-size-musl.a(strcmp.o)
 .note.GNU-stack
                0x0000000000000000        0x0 c:/program files/microchip/xc32/v4.60/bin/bin/../../lib/gcc/pic32c/8.3.1/../../../../pic32c/lib/thumb/v7e-m+fp/hard\libc-size-musl.a(strncpy.o)
 .note.GNU-stack
                0x0000000000000000        0x0 c:/program files/microchip/xc32/v4.60/bin/bin/../../lib/gcc/pic32c/8.3.1/../../../../pic32c/lib/thumb/v7e-m+fp/hard\libc-size-musl.a(strrchr.o)
 .note.GNU-stack
                0x0000000000000000        0x0 c:/program files/microchip/xc32/v4.60/bin/bin/../../lib/gcc/pic32c/8.3.1/../../../../pic32c/lib/thumb/v7e-m+fp/hard\libc-size-musl.a(memrchr.o)
 .note.GNU-stack
                0x0000000000000000        0x0 c:/program files/microchip/xc32/v4.60/bin/bin/../../lib/gcc/pic32c/8.3.1/../../../../pic32c/lib/thumb/v7e-m+fp/hard\libc-size-musl.a(stpncpy.o)
 .note.GNU-stack
                0x0000000000000000        0x0 c:/program files/microchip/xc32/v4.60/bin/bin/../../lib/gcc/pic32c/8.3.1/../../../../pic32c/lib/thumb/v7e-m+fp/hard\liblmalloc-musl.a(lite_free.o)
 .note.GNU-stack
                0x0000000000000000        0x0 c:/program files/microchip/xc32/v4.60/bin/bin/../../lib/gcc/pic32c/8.3.1/../../../../pic32c/lib/thumb/v7e-m+fp/hard\liblmalloc-musl.a(lite_malloc.o)
 .note.GNU-stack
                0x0000000000000000        0x0 c:/program files/microchip/xc32/v4.60/bin/bin/../../lib/gcc/pic32c/8.3.1/../../../../pic32c/lib/thumb/v7e-m+fp/hard\libc-musl.a(isxdigit.o)
 .note.GNU-stack
                0x0000000000000000        0x0 c:/program files/microchip/xc32/v4.60/bin/bin/../../lib/gcc/pic32c/8.3.1/../../../../pic32c/lib/thumb/v7e-m+fp/hard\libc-musl.a(tolower.o)
 .note.GNU-stack
                0x0000000000000000        0x0 c:/program files/microchip/xc32/v4.60/bin/bin/../../lib/gcc/pic32c/8.3.1/../../../../pic32c/lib/thumb/v7e-m+fp/hard\libc-musl.a(toupper.o)
 .note.GNU-stack
                0x0000000000000000        0x0 c:/program files/microchip/xc32/v4.60/bin/bin/../../lib/gcc/pic32c/8.3.1/../../../../pic32c/lib/thumb/v7e-m+fp/hard\libc-musl.a(__libc_start_main.o)
 .note.GNU-stack
                0x0000000000000000        0x0 c:/program files/microchip/xc32/v4.60/bin/bin/../../lib/gcc/pic32c/8.3.1/../../../../pic32c/lib/thumb/v7e-m+fp/hard\libc-musl.a(__errno_location.o)
 .note.GNU-stack
                0x0000000000000000        0x0 c:/program files/microchip/xc32/v4.60/bin/bin/../../lib/gcc/pic32c/8.3.1/../../../../pic32c/lib/thumb/v7e-m+fp/hard\libc-musl.a(libc.o)
 .note.GNU-stack
                0x0000000000000000        0x0 c:/program files/microchip/xc32/v4.60/bin/bin/../../lib/gcc/pic32c/8.3.1/../../../../pic32c/lib/thumb/v7e-m+fp/hard\libc-musl.a(expand_heap.o)
 .note.GNU-stack
                0x0000000000000000        0x0 c:/program files/microchip/xc32/v4.60/bin/bin/../../lib/gcc/pic32c/8.3.1/../../../../pic32c/lib/thumb/v7e-m+fp/hard\libc-musl.a(rand.o)
 .note.GNU-stack
                0x0000000000000000        0x0 c:/program files/microchip/xc32/v4.60/bin/bin/../../lib/gcc/pic32c/8.3.1/../../../../pic32c/lib/thumb/v7e-m+fp/hard\libc-musl.a(vsnprintf.o)
 .note.GNU-stack
                0x0000000000000000        0x0 c:/program files/microchip/xc32/v4.60/bin/bin/../../lib/gcc/pic32c/8.3.1/../../../../pic32c/lib/thumb/v7e-m+fp/hard\libc-musl.a(snprintf.o)
 .note.GNU-stack
                0x0000000000000000        0x0 c:/program files/microchip/xc32/v4.60/bin/bin/../../lib/gcc/pic32c/8.3.1/../../../../pic32c/lib/thumb/v7e-m+fp/hard\libc-musl.a(sprintf.o)
 .note.GNU-stack
                0x0000000000000000        0x0 c:/program files/microchip/xc32/v4.60/bin/bin/../../lib/gcc/pic32c/8.3.1/../../../../pic32c/lib/thumb/v7e-m+fp/hard\libc-musl.a(vsprintf.o)
 .note.GNU-stack
                0x0000000000000000        0x0 c:/program files/microchip/xc32/v4.60/bin/bin/../../lib/gcc/pic32c/8.3.1/../../../../pic32c/lib/thumb/v7e-m+fp/hard\libc-musl.a(strtol.o)
 .note.GNU-stack
                0x0000000000000000        0x0 c:/program files/microchip/xc32/v4.60/bin/bin/../../lib/gcc/pic32c/8.3.1/../../../../pic32c/lib/thumb/v7e-m+fp/hard\libc-musl.a(__environ.o)
 .note.GNU-stack
                0x0000000000000000        0x0 c:/program files/microchip/xc32/v4.60/bin/bin/../../lib/gcc/pic32c/8.3.1/../../../../pic32c/lib/thumb/v7e-m+fp/hard\libc-musl.a(intscan.o)
 .note.GNU-stack
                0x0000000000000000        0x0 c:/program files/microchip/xc32/v4.60/bin/bin/../../lib/gcc/pic32c/8.3.1/../../../../pic32c/lib/thumb/v7e-m+fp/hard\libc-musl.a(shgetc.o)
 .note.GNU-stack
                0x0000000000000000        0x0 c:/program files/microchip/xc32/v4.60/bin/bin/../../lib/gcc/pic32c/8.3.1/../../../../pic32c/lib/thumb/v7e-m+fp/hard\libc-musl.a(__uflow.o)
 .note.GNU-stack
                0x0000000000000000        0x0 c:/program files/microchip/xc32/v4.60/bin/bin/../../lib/gcc/pic32c/8.3.1/../../../../pic32c/lib/thumb/v7e-m+fp/hard\libc-musl.a(vfprintf.o)
 .note.GNU-stack
                0x0000000000000000        0x0 c:/program files/microchip/xc32/v4.60/bin/bin/../../lib/gcc/pic32c/8.3.1/../../../../pic32c/lib/thumb/v7e-m+fp/hard\libc-musl.a(__toread.o)
 .note.GNU-stack
                0x0000000000000000        0x0 c:/program files/microchip/xc32/v4.60/bin/bin/../../lib/gcc/pic32c/8.3.1/../../../../pic32c/lib/thumb/v7e-m+fp/hard\libc-musl.a(__pop_float.o)
 .note.GNU-stack
                0x0000000000000000        0x0 c:/program files/microchip/xc32/v4.60/bin/bin/../../lib/gcc/pic32c/8.3.1/../../../../pic32c/lib/thumb/v7e-m+fp/hard\libc-musl.a(__pop_int.o)
 .note.GNU-stack
                0x0000000000000000        0x0 c:/program files/microchip/xc32/v4.60/bin/bin/../../lib/gcc/pic32c/8.3.1/../../../../pic32c/lib/thumb/v7e-m+fp/hard\libc-musl.a(__pop_ptr.o)
 .note.GNU-stack
                0x0000000000000000        0x0 c:/program files/microchip/xc32/v4.60/bin/bin/../../lib/gcc/pic32c/8.3.1/../../../../pic32c/lib/thumb/v7e-m+fp/hard\libc-musl.a(__printf_core.o)
 .note.GNU-stack
                0x0000000000000000        0x0 c:/program files/microchip/xc32/v4.60/bin/bin/../../lib/gcc/pic32c/8.3.1/../../../../pic32c/lib/thumb/v7e-m+fp/hard\libc-musl.a(atoi.o)
 .note.GNU-stack
                0x0000000000000000        0x0 c:/program files/microchip/xc32/v4.60/bin/bin/../../lib/gcc/pic32c/8.3.1/../../../../pic32c/lib/thumb/v7e-m+fp/hard\libc-musl.a(__fmt_a.o)
 .note.GNU-stack
                0x0000000000000000        0x0 c:/program files/microchip/xc32/v4.60/bin/bin/../../lib/gcc/pic32c/8.3.1/../../../../pic32c/lib/thumb/v7e-m+fp/hard\libc-musl.a(__fmt_d.o)
 .note.GNU-stack
                0x0000000000000000        0x0 c:/program files/microchip/xc32/v4.60/bin/bin/../../lib/gcc/pic32c/8.3.1/../../../../pic32c/lib/thumb/v7e-m+fp/hard\libc-musl.a(__fmt_fp.o)
 .note.GNU-stack
                0x0000000000000000        0x0 c:/program files/microchip/xc32/v4.60/bin/bin/../../lib/gcc/pic32c/8.3.1/../../../../pic32c/lib/thumb/v7e-m+fp/hard\libc-musl.a(__fmt_o.o)
 .note.GNU-stack
                0x0000000000000000        0x0 c:/program files/microchip/xc32/v4.60/bin/bin/../../lib/gcc/pic32c/8.3.1/../../../../pic32c/lib/thumb/v7e-m+fp/hard\libc-musl.a(__fmt_s.o)
 .note.GNU-stack
                0x0000000000000000        0x0 c:/program files/microchip/xc32/v4.60/bin/bin/../../lib/gcc/pic32c/8.3.1/../../../../pic32c/lib/thumb/v7e-m+fp/hard\libc-musl.a(__fmt_u.o)
 .note.GNU-stack
                0x0000000000000000        0x0 c:/program files/microchip/xc32/v4.60/bin/bin/../../lib/gcc/pic32c/8.3.1/../../../../pic32c/lib/thumb/v7e-m+fp/hard\libc-musl.a(__fmt_x.o)
 .note.GNU-stack
                0x0000000000000000        0x0 c:/program files/microchip/xc32/v4.60/bin/bin/../../lib/gcc/pic32c/8.3.1/../../../../pic32c/lib/thumb/v7e-m+fp/hard\libc-musl.a(__cvt_u.o)
 .note.GNU-stack
                0x0000000000000000        0x0 c:/program files/microchip/xc32/v4.60/bin/bin/../../lib/gcc/pic32c/8.3.1/../../../../pic32c/lib/thumb/v7e-m+fp/hard\libc-size-musl.a(strcpy.o)
 .note.GNU-stack
                0x0000000000000000        0x0 c:/program files/microchip/xc32/v4.60/bin/bin/../../lib/gcc/pic32c/8.3.1/../../../../pic32c/lib/thumb/v7e-m+fp/hard\libc-size-musl.a(stpcpy.o)

__xc_reference_data
                0x0000000000000000       0x5c
 __xc_reference_data
                0x0000000000000000        0x4 c:/program files/microchip/xc32/v4.60/bin/bin/../../lib/gcc/pic32c/8.3.1/../../../../pic32c/lib/thumb/v7e-m+fp/hard\libc-musl.a(vfprintf.o)
                0x0000000000000000                __vfprintf_needs_fmt
 __xc_reference_data
                0x0000000000000004       0x58 c:/program files/microchip/xc32/v4.60/bin/bin/../../lib/gcc/pic32c/8.3.1/../../../../pic32c/lib/thumb/v7e-m+fp/hard\libc-musl.a(__io_fmt_needed.o)
                0x0000000000000004                __io_fmt_needed

.stack          0x00000000200170f8      0x100
 .stack         0x00000000200170f8      0x100 stack

.bss%1          0x0000000020001968     0xa01c
 .bss           0x0000000020001968     0xa01c build/default/production/_ext/1665200909/heap_4.o

.bss%2          0x000000002000b984     0x126c
 .bss           0x000000002000b984     0x126c build/default/production/_ext/1171490990/initialization.o

.bss%3          0x000000002000cbf0      0xe70
 .bss           0x000000002000cbf0      0xe70 build/default/production/_ext/1570337448/mac_wrapper.o

.bss%4          0x000000002000da60      0xd30
 .bss           0x000000002000da60      0xd30 build/default/production/_ext/1534551086/routing_wrapper.o

.bss%5          0x000000002000e790      0xa10
 .bss           0x000000002000e790      0xa10 ../src/config/default/stack/g3/adaptation/g3_lib_adp.a(Adp.o)
                0x000000002000e790                g_AdpExecutionContext

.bss%6          0x000000002000f1a0      0x674
 .bss           0x000000002000f1a0      0x674 ../src/config/default/stack/g3/mac/mac_rf/g3_lib_mac_rf.a(MacRfLow.o)
                0x000000002000f708                palRfHandle

.bss%7          0x000000002000f820      0x650
 .bss           0x000000002000f820      0x650 build/default/production/_ext/410113559/drv_g3_macrt_local_comm.o

.bss%8          0x000000002000fe70      0x510
 .bss           0x000000002000fe70      0x510 build/default/production/_ext/1014741959/drv_plc_hal.o

.bss%9          0x0000000020010380      0x415
 .bss           0x0000000020010380      0x415 ../src/config/default/driver/pds/pds.a(S_Nv-Chimera.o)

.bss%10         0x0000000020010798      0x398
 .bss           0x0000000020010798      0x398 build/default/production/_ext/1374435801/bmm.o

.bss%11         0x0000000020010b30      0x388
 .bss           0x0000000020010b30      0x388 build/default/production/_ext/1033058136/tcpip_manager.o
                0x0000000020010eb4                _TCPIP_Stack_LeaveCondLoop

.bss%12         0x0000000020010eb8      0x37d
 .bss           0x0000000020010eb8      0x37d ../src/config/default/stack/g3/mac/mac_rf/g3_lib_mac_rf.a(MacRfSublayer.o)

.bss%13         0x0000000020011238      0x37c
 .bss           0x0000000020011238      0x37c ../src/config/default/stack/g3/mac/mac_plc/g3_lib_mac_plc.a(MacSublayer.o)

.bss%14         0x00000000200115b8      0x360
 .bss           0x00000000200115b8      0x360 build/default/production/_ext/101884895/sys_time.o

.bss%15         0x0000000020011918      0x2c0
 .bss           0x0000000020011918      0x2c0 build/default/production/_ext/504274921/plib_sercom1_usart.o

.bss%16         0x0000000020011bd8      0x290
 .bss           0x0000000020011bd8      0x290 build/default/production/_ext/2135967589/cipher_wrapper.o

.bss%17         0x0000000020011e68      0x238
 .bss           0x0000000020011e68      0x238 ../src/config/default/stack/g3/mac/mac_plc/g3_lib_mac_plc.a(MacLow.o)
                0x0000000020012098                palHandle
                0x000000002001209c                palSysObj

.bss%18         0x00000000200120a0      0x214
 .bss           0x00000000200120a0      0x214 build/default/production/_ext/1832805299/sys_console.o

.bss%19         0x00000000200122b4      0x208
 .bss           0x00000000200122b4      0x208 build/default/production/_ext/2135967589/aes_wrapper.o

.bss%20         0x00000000200124c0      0x1d4
 .bss           0x00000000200124c0      0x1d4 build/default/production/_ext/1278466877/pal_rf.o

.bss%21         0x0000000020012694      0x1a4
 .bss           0x0000000020012694      0x1a4 ../src/config/default/stack/g3/adaptation/g3_lib_loadng.a(ProtoLoadNg.o)
                0x0000000020012694                g_LoadNgContext

.bss%22         0x0000000020012838      0x1a3
 .bss           0x0000000020012838      0x1a3 build/default/production/_ext/1534551086/lbp_dev.o

.bss%23         0x00000000200129dc      0x195
 .bss           0x00000000200129dc      0x195 build/default/production/_ext/745501718/pal.o

.bss%24         0x0000000020012b74      0x10c
 .bss           0x0000000020012b74      0x10c build/default/production/_ext/977769160/pal_plc.o

.bss%25         0x0000000020012c80      0x104
 .bss           0x0000000020012c80      0x104 build/default/production/_ext/404212886/FreeRTOS_tasks.o
                0x0000000020012c84                pxCurrentTCB

.bss%26         0x0000000020012d84       0xf0
 .bss           0x0000000020012d84       0xf0 ../src/config/default/stack/g3/mac/mac_rf/g3_lib_mac_rf.a(MacRfMib.o)
                0x0000000020012d84                g_MacMibRF
                0x0000000020012e4e                g_MacMibRFDeviceID
                0x0000000020012e72                g_u16BackoffUnitPeriod

.bss%27         0x0000000020012e74       0x8c
 .bss           0x0000000020012e74       0x8c build/default/production/_ext/710515956/drv_mac_g3adp.o

.bss%28         0x0000000020012f00       0x78
 .bss           0x0000000020012f00       0x78 build/default/production/_ext/1033058136/ndp.o

.bss%29         0x0000000020012f78       0x60
 .bss           0x0000000020012f78       0x60 build/default/production/_ext/1865161661/plib_dmac.o

.bss%30         0x0000000020012fd8       0x5c
 .bss           0x0000000020012fd8       0x5c build/default/production/_ext/410113559/drv_g3_macrt.o

.bss%31         0x0000000020013034       0x5c
 .bss           0x0000000020013034       0x5c build/default/production/_ext/1033058136/ipv6.o

.bss%32         0x0000000020013090       0x52
 .bss           0x0000000020013090       0x52 ../src/config/default/stack/g3/mac/mac_plc/g3_lib_mac_plc.a(MacMib.o)
                0x0000000020013090                g_MacMib

.bss%33         0x00000000200130e4       0x50
 .bss           0x00000000200130e4       0x50 c:/program files/microchip/xc32/v4.60/bin/bin/../../lib/gcc/pic32c/8.3.1/../../../../pic32c/lib/thumb/v7e-m+fp/hard\libc-musl.a(libc.o)
                0x00000000200130e4                __progname_full
                0x00000000200130e4                program_invocation_name
                0x00000000200130e8                program_invocation_short_name
                0x00000000200130e8                __progname
                0x00000000200130ec                __sysinfo
                0x00000000200130f0                __hwcap
                0x00000000200130f4                __libc

.bss%34         0x0000000020013134       0x4c
 .bss           0x0000000020013134       0x4c build/default/production/_ext/1014741959/drv_plc_boot.o

.bss%35         0x0000000020013180       0x30
 .bss           0x0000000020013180       0x30 build/default/production/_ext/60167341/plib_eic.o

.bss.phy_info%36
                0x00000000200131b0       0x24
 .bss.phy_info  0x00000000200131b0       0x24 ../src/config/default/driver/lib/lib-ieee802154_phy_pic32cxbz-v1.2.0.a(phy.o)
                0x00000000200131b0                phy_info

.bss.tal_pib%37
                0x00000000200131d4       0x1e
 .bss.tal_pib   0x00000000200131d4       0x1e ../src/config/default/driver/lib/lib-ieee802154_phy_pic32cxbz-v1.2.0.a(phy.o)
                0x00000000200131d4                tal_pib

.bss%38         0x00000000200131f4       0x1c
 .bss           0x00000000200131f4       0x1c c:/program files/microchip/xc32/v4.60/bin/bin/../../lib/gcc/pic32c/8.3.1/thumb/v7e-m+fp/hard/crtbegin.o

.bss%39         0x0000000020013210       0x1c
 .bss           0x0000000020013210       0x1c build/default/production/_ext/1033058136/udp.o

.bss%40         0x000000002001322c       0x1c
 .bss           0x000000002001322c       0x1c build/default/production/_ext/1033058136/icmpv6.o

.bss%41         0x0000000020013248       0x1c
 .bss           0x0000000020013248       0x1c build/default/production/_ext/1632721610/mac_common.o

.bss%42         0x0000000020013264       0x1c
 .bss           0x0000000020013264       0x1c ../src/config/default/driver/pds/pds.a(wlPdsDataServer.o)
                0x0000000020013268                pdsItemCount
                0x000000002001326a                pdsDirectoryCount
                0x000000002001326c                pdsItemToStore

.bss.rec_frame_info%43
                0x0000000020013280       0x10
 .bss.rec_frame_info
                0x0000000020013280       0x10 ../src/config/default/driver/lib/lib-ieee802154_phy_pic32cxbz-v1.2.0.a(phy_rx.o)

.bss%44         0x000000002000f814        0xc
 .bss           0x000000002000f814        0xc build/default/production/_ext/1832805299/sys_console_uart.o

.bss%45         0x0000000020013290        0xc
 .bss           0x0000000020013290        0xc build/default/production/_ext/1360937237/app_g3_management.o
                0x0000000020013290                timeoutTraffic
                0x0000000020013298                flag_send_alarm

.bss.tal_incoming_frame_queue%46
                0x000000002001329c        0xc
 .bss.tal_incoming_frame_queue
                0x000000002001329c        0xc ../src/config/default/driver/lib/lib-ieee802154_phy_pic32cxbz-v1.2.0.a(phy.o)
                0x000000002001329c                tal_incoming_frame_queue

.bss%47         0x00000000200132a8        0xc
 .bss           0x00000000200132a8        0xc c:/program files/microchip/xc32/v4.60/bin/bin/../../lib/gcc/pic32c/8.3.1/../../../../pic32c/lib/thumb/v7e-m+fp/hard\libpic32c.a(sbrk.o)
                0x00000000200132ac                _maxbrk
                0x00000000200132b0                _minbrk

.bss%48         0x00000000200132b4        0x8
 .bss           0x00000000200132b4        0x8 build/default/production/_ext/60176403/plib_nvm.o

.bss%49         0x00000000200132bc        0x8
 .bss           0x00000000200132bc        0x8 build/default/production/_ext/829342655/plib_tc0.o

.bss%50         0x00000000200132c4        0x8
 .bss           0x00000000200132c4        0x8 build/default/production/_ext/753841488/sys_time_h2_adapter.o

.bss.enhAckFrame%51
                0x00000000200132cc        0x8
 .bss.enhAckFrame
                0x00000000200132cc        0x8 ../src/config/default/driver/lib/lib-ieee802154_phy_pic32cxbz-v1.2.0.a(phy_rx.o)
                0x00000000200132cc                enhAckFrame

.bss.immAckFrame%52
                0x00000000200132d4        0x8
 .bss.immAckFrame
                0x00000000200132d4        0x8 ../src/config/default/driver/lib/lib-ieee802154_phy_pic32cxbz-v1.2.0.a(phy_rx.o)
                0x00000000200132d4                immAckFrame

.bss%53         0x00000000200132dc        0x5
 .bss           0x00000000200132dc        0x5 ../src/config/default/driver/device_support/pic32cx_bz2_device_support.a(info_block.o)

.bss%54         0x00000000200115b4        0x4
 .bss           0x00000000200115b4        0x4 build/default/production/_ext/1033058136/tcpip_packet.o

.bss%55         0x00000000200124bc        0x4
 .bss           0x00000000200124bc        0x4 build/default/production/_ext/944882569/sys_debug.o

.bss.mac_frame_ptr%56
                0x00000000200132e4        0x4
 .bss.mac_frame_ptr
                0x00000000200132e4        0x4 ../src/config/default/driver/lib/lib-ieee802154_phy_pic32cxbz-v1.2.0.a(phy.o)
                0x00000000200132e4                mac_frame_ptr

.bss.tal_frame_to_tx%57
                0x00000000200132e8        0x4
 .bss.tal_frame_to_tx
                0x00000000200132e8        0x4 ../src/config/default/driver/lib/lib-ieee802154_phy_pic32cxbz-v1.2.0.a(phy.o)
                0x00000000200132e8                tal_frame_to_tx

.bss.tal_rx_buffer%58
                0x00000000200132ec        0x4
 .bss.tal_rx_buffer
                0x00000000200132ec        0x4 ../src/config/default/driver/lib/lib-ieee802154_phy_pic32cxbz-v1.2.0.a(phy.o)
                0x00000000200132ec                tal_rx_buffer

.bss.sampler_counter%59
                0x00000000200132f0        0x4
 .bss.sampler_counter
                0x00000000200132f0        0x4 ../src/config/default/driver/lib/lib-ieee802154_phy_pic32cxbz-v1.2.0.a(phy_ed.o)

.bss.recEnhAckFrame%60
                0x00000000200132f4        0x4
 .bss.recEnhAckFrame
                0x00000000200132f4        0x4 ../src/config/default/driver/lib/lib-ieee802154_phy_pic32cxbz-v1.2.0.a(phy_rx.o)
                0x00000000200132f4                recEnhAckFrame

.bss.address.10250%61
                0x00000000200132f8        0x4
 .bss.address.10250
                0x00000000200132f8        0x4 ../src/config/default/driver/lib/lib-ieee802154_phy_pic32cxbz-v1.2.0.a(phy_tx.o)

.bss.write_data.10249%62
                0x00000000200132fc        0x4
 .bss.write_data.10249
                0x00000000200132fc        0x4 ../src/config/default/driver/lib/lib-ieee802154_phy_pic32cxbz-v1.2.0.a(phy_tx.o)

.bss.address.10204%63
                0x0000000020013300        0x4
 .bss.address.10204
                0x0000000020013300        0x4 ../src/config/default/driver/lib/lib-ieee802154_phy_pic32cxbz-v1.2.0.a(tfa.o)

.bss.write_data.10203%64
                0x0000000020013304        0x4
 .bss.write_data.10203
                0x0000000020013304        0x4 ../src/config/default/driver/lib/lib-ieee802154_phy_pic32cxbz-v1.2.0.a(tfa.o)

.bss%65         0x0000000020013308        0x4
 .bss           0x0000000020013308        0x4 ../src/config/default/driver/pds/pds.a(wlPdsInit.o)
                0x0000000020013308                pdsWriteItemQ

.bss%66         0x000000002001330c        0x4
 .bss           0x000000002001330c        0x4 ../src/config/default/driver/pds/pds.a(D_Nv.o)

.bss%67         0x0000000020013310        0x4
 .bss           0x0000000020013310        0x4 c:/program files/microchip/xc32/v4.60/bin/bin/../../lib/gcc/pic32c/8.3.1/../../../../pic32c/lib/thumb/v7e-m+fp/hard\libpic32c.a(data_init.o)

.bss%68         0x0000000020013314        0x4
 .bss           0x0000000020013314        0x4 c:/program files/microchip/xc32/v4.60/bin/bin/../../lib/gcc/pic32c/8.3.1/../../../../pic32c/lib/thumb/v7e-m+fp/hard\liblmalloc-musl.a(lite_free.o)
                0x0000000020013314                __freelist

.bss%69         0x0000000020013318        0x4
 .bss           0x0000000020013318        0x4 c:/program files/microchip/xc32/v4.60/bin/bin/../../lib/gcc/pic32c/8.3.1/../../../../pic32c/lib/thumb/v7e-m+fp/hard\libc-musl.a(__errno_location.o)
                0x0000000020013318                __errno_val

.bss%70         0x000000002001331c        0x4
 .bss           0x000000002001331c        0x4 c:/program files/microchip/xc32/v4.60/bin/bin/../../lib/gcc/pic32c/8.3.1/../../../../pic32c/lib/thumb/v7e-m+fp/hard\libc-musl.a(rand.o)

.bss%71         0x0000000020013320        0x4
 .bss           0x0000000020013320        0x4 c:/program files/microchip/xc32/v4.60/bin/bin/../../lib/gcc/pic32c/8.3.1/../../../../pic32c/lib/thumb/v7e-m+fp/hard\libc-musl.a(__environ.o)
                0x0000000020013320                __environ
                0x0000000020013320                environ
                0x0000000020013320                ___environ
                0x0000000020013320                _environ

.bss%72         0x0000000020013324        0x3
 .bss           0x0000000020013324        0x3 ../src/config/default/stack/g3/mac/mac_plc/g3_lib_mac_plc.a(MacConstants.o)
                0x0000000020013324                g_ToneMapDefault

.bss%73         0x00000000200129db        0x1
 .bss           0x00000000200129db        0x1 build/default/production/_ext/1360937237/app_udp_responder.o
                0x00000000200129db                flag_received_panel_cmd

.bss%74         0x00000000200130e2        0x1
 .bss           0x00000000200130e2        0x1 ../src/config/default/stack/g3/adaptation/g3_lib_adp.a(AdpMacInterface.o)

.bss.max_ed_level%75
                0x00000000200130e3        0x1
 .bss.max_ed_level
                0x00000000200130e3        0x1 ../src/config/default/driver/lib/lib-ieee802154_phy_pic32cxbz-v1.2.0.a(phy_ed.o)

.bss.TAL_RETRY_TIMER%76
                0x00000000200131f2        0x1
 .bss.TAL_RETRY_TIMER
                0x00000000200131f2        0x1 ../src/config/default/driver/lib/lib-ieee802154_phy_pic32cxbz-v1.2.0.a(phy_init.o)
                0x00000000200131f2                TAL_RETRY_TIMER

.bss.TAL_T_ACK_TIMEOUT%77
                0x00000000200131f3        0x1
 .bss.TAL_T_ACK_TIMEOUT
                0x00000000200131f3        0x1 ../src/config/default/driver/lib/lib-ieee802154_phy_pic32cxbz-v1.2.0.a(phy_init.o)
                0x00000000200131f3                TAL_T_ACK_TIMEOUT

.bss.TAL_T_BOFF%78
                0x0000000020010795        0x1
 .bss.TAL_T_BOFF
                0x0000000020010795        0x1 ../src/config/default/driver/lib/lib-ieee802154_phy_pic32cxbz-v1.2.0.a(phy_init.o)
                0x0000000020010795                TAL_T_BOFF

.bss.rxStart%79
                0x0000000020010796        0x1
 .bss.rxStart   0x0000000020010796        0x1 ../src/config/default/driver/lib/lib-ieee802154_phy_pic32cxbz-v1.2.0.a(phy_irq_handler.o)
                0x0000000020010796                rxStart

.bss.rcvd2015Frame%80
                0x0000000020010797        0x1
 .bss.rcvd2015Frame
                0x0000000020010797        0x1 ../src/config/default/driver/lib/lib-ieee802154_phy_pic32cxbz-v1.2.0.a(phy_rx.o)

.bss.sendSwAck%81
                0x0000000020011235        0x1
 .bss.sendSwAck
                0x0000000020011235        0x1 ../src/config/default/driver/lib/lib-ieee802154_phy_pic32cxbz-v1.2.0.a(phy_rx.o)

.bss.mod_size.10247%82
                0x0000000020011236        0x1
 .bss.mod_size.10247
                0x0000000020011236        0x1 ../src/config/default/driver/lib/lib-ieee802154_phy_pic32cxbz-v1.2.0.a(phy_tx.o)

.bss.total_len.10248%83
                0x0000000020011237        0x1
 .bss.total_len.10248
                0x0000000020011237        0x1 ../src/config/default/driver/lib/lib-ieee802154_phy_pic32cxbz-v1.2.0.a(phy_tx.o)

.bss.k.10251%84
                0x0000000020012b71        0x1
 .bss.k.10251   0x0000000020012b71        0x1 ../src/config/default/driver/lib/lib-ieee802154_phy_pic32cxbz-v1.2.0.a(phy_tx.o)

.bss.BE%85      0x0000000020012b72        0x1
 .bss.BE        0x0000000020012b72        0x1 ../src/config/default/driver/lib/lib-ieee802154_phy_pic32cxbz-v1.2.0.a(phy_tx.o)

.bss.NB%86      0x0000000020012b73        0x1
 .bss.NB        0x0000000020012b73        0x1 ../src/config/default/driver/lib/lib-ieee802154_phy_pic32cxbz-v1.2.0.a(phy_tx.o)

.bss.tal_sw_retry_count%87
                0x00000000200132e1        0x1
 .bss.tal_sw_retry_count
                0x00000000200132e1        0x1 ../src/config/default/driver/lib/lib-ieee802154_phy_pic32cxbz-v1.2.0.a(phy_tx.o)

.bss.tal_sw_retry_no_csma_ca%88
                0x00000000200132e2        0x1
 .bss.tal_sw_retry_no_csma_ca
                0x00000000200132e2        0x1 ../src/config/default/driver/lib/lib-ieee802154_phy_pic32cxbz-v1.2.0.a(phy_tx.o)

.bss.trx_trac_status%89
                0x00000000200132e3        0x1
 .bss.trx_trac_status
                0x00000000200132e3        0x1 ../src/config/default/driver/lib/lib-ieee802154_phy_pic32cxbz-v1.2.0.a(phy_tx.o)

.bss.mod_size.10201%90
                0x0000000020013327        0x1
 .bss.mod_size.10201
                0x0000000020013327        0x1 ../src/config/default/driver/lib/lib-ieee802154_phy_pic32cxbz-v1.2.0.a(tfa.o)

.bss.total_len.10202%91
                0x0000000020013328        0x1
 .bss.total_len.10202
                0x0000000020013328        0x1 ../src/config/default/driver/lib/lib-ieee802154_phy_pic32cxbz-v1.2.0.a(tfa.o)

.bss.k.10205%92
                0x0000000020013329        0x1
 .bss.k.10205   0x0000000020013329        0x1 ../src/config/default/driver/lib/lib-ieee802154_phy_pic32cxbz-v1.2.0.a(tfa.o)

.data%93        0x000000002001332c       0x8c
 .data          0x000000002001332c       0x8c build/default/production/_ext/1171490990/initialization.o
                0x000000002001332c                drvG3MacRtInitData
                0x000000002001335c                tcpipHeapConfig

.data%94        0x00000000200133b8       0x64
 .data          0x00000000200133b8       0x64 build/default/production/_ext/710515956/drv_mac_g3adp.o

.data%95        0x000000002001341c       0x28
 .data          0x000000002001341c       0x28 build/default/production/_ext/1033058136/tcpip_helpers.o

.data.phyACLBTxPowerHpa%96
                0x0000000020013444       0x20
 .data.phyACLBTxPowerHpa
                0x0000000020013444       0x20 ../src/config/default/driver/lib/lib-ieee802154_phy_pic32cxbz-v1.2.0.a(phy_pib.o)
                0x0000000020013444                phyACLBTxPowerHpa

.data.phyTxPowerHpa%97
                0x0000000020013464       0x20
 .data.phyTxPowerHpa
                0x0000000020013464       0x20 ../src/config/default/driver/lib/lib-ieee802154_phy_pic32cxbz-v1.2.0.a(phy_pib.o)
                0x0000000020013464                phyTxPowerHpa

.ramfunc.PCHE_Setup%98
                0x0000000020013484       0x20
 .ramfunc.PCHE_Setup
                0x0000000020013484       0x20 build/default/production/_ext/1171490990/initialization.o
                0x0000000020013484                PCHE_Setup

.data%99        0x00000000200134a4       0x10
 .data          0x00000000200134a4       0x10 build/default/production/_ext/1534551086/lbp_dev.o

.data.tx_pwr_table_mpalpa%100
                0x00000000200134b4       0x10
 .data.tx_pwr_table_mpalpa
                0x00000000200134b4       0x10 ../src/config/default/driver/lib/lib-ieee802154_phy_pic32cxbz-v1.2.0.a(phy_pib.o)
                0x00000000200134b4                tx_pwr_table_mpalpa

.data%101       0x00000000200134c4        0x6
 .data          0x00000000200134c4        0x6 build/default/production/_ext/1360937237/app_g3_management.o
                0x00000000200134c4                blink_rate_factor
                0x00000000200134c8                coord_socket

.data%102       0x00000000200134cc        0x4
 .data          0x00000000200134cc        0x4 build/default/production/_ext/1033058136/tcpip_manager.o

.data%103       0x00000000200134d0        0x4
 .data          0x00000000200134d0        0x4 build/default/production/_ext/246609638/port.o

.data%104       0x00000000200134d4        0x4
 .data          0x00000000200134d4        0x4 build/default/production/_ext/404212886/FreeRTOS_tasks.o

.data%105       0x00000000200134d8        0x4
 .data          0x00000000200134d8        0x4 c:/program files/microchip/xc32/v4.60/bin/bin/../../lib/gcc/pic32c/8.3.1/../../../../pic32c/lib/thumb/v7e-m+fp/hard\liblmalloc-musl.a(lite_malloc.o)

.data%106       0x000000002001332a        0x2
 .data          0x000000002001332a        0x2 build/default/production/_ext/101884895/sys_time.o

.data.kFcfAckRequested%107
                0x00000000200134ca        0x1
 .data.kFcfAckRequested
                0x00000000200134ca        0x1 ../src/config/default/driver/lib/lib-ieee802154_phy_pic32cxbz-v1.2.0.a(phy_rx.o)

.data.kFcfFrameVersion2015%108
                0x00000000200134cb        0x1
 .data.kFcfFrameVersion2015
                0x00000000200134cb        0x1 ../src/config/default/driver/lib/lib-ieee802154_phy_pic32cxbz-v1.2.0.a(phy_rx.o)

.data.kFcfFrameVersionMask%109
                0x00000000200134dc        0x1
 .data.kFcfFrameVersionMask
                0x00000000200134dc        0x1 ../src/config/default/driver/lib/lib-ieee802154_phy_pic32cxbz-v1.2.0.a(phy_rx.o)

.data.kFcfAckRequested%110
                0x00000000200134dd        0x1
 .data.kFcfAckRequested
                0x00000000200134dd        0x1 ../src/config/default/driver/lib/lib-ieee802154_phy_pic32cxbz-v1.2.0.a(phy_tx.o)

.eh_frame%z1    0x0000000000000000        0x0
 .eh_frame      0x0000000000000000        0x0 c:/program files/microchip/xc32/v4.60/bin/bin/../../lib/gcc/pic32c/8.3.1/thumb/v7e-m+fp/hard/crtbegin.o

.rodata%111     0x0000000001004100    0x12300
 .rodata        0x0000000001004100    0x12300 build/default/production/_ext/1089588495/drv_g3_macrt_bin.o
                0x0000000001004100                g3_mac_rt_bin_start
                0x0000000001016400                g3_mac_rt_bin2_start
                0x0000000001016400                g3_mac_rt_bin2_end
                0x0000000001016400                g3_mac_rt_bin_end

.text%112       0x0000000001016400     0x3630
 .text          0x0000000001016400     0x3630 build/default/production/_ext/1716827871/aes.o
                0x000000000101747c                wc_AesSetIV
                0x0000000001017870                wc_AesSetKey
                0x0000000001017890                wc_AesEncryptDirect
                0x00000000010178bc                wc_AesDecryptDirect
                0x00000000010178e8                wc_AesCbcEncrypt
                0x000000000101795c                wc_AesCbcDecrypt
                0x00000000010179fc                wc_AesCtrSetKey
                0x0000000001017a1c                wc_AesSetKeyDirect
                0x0000000001017a20                wc_AesGcmSetKey
                0x0000000001017a7c                GHASH
                0x0000000001017ca0                wc_AesGcmSetExtIV
                0x0000000001017ce0                wc_AesGcmSetIV
                0x0000000001017d3c                wc_GmacSetKey
                0x0000000001017d4c                wc_AesCcmSetKey
                0x0000000001017d74                wc_AesCcmCheckTagSize
                0x0000000001017d98                wc_AesCcmEncrypt
                0x0000000001017fb4                wc_AesCcmDecrypt
                0x0000000001018238                wc_AesCcmSetNonce
                0x0000000001018264                wc_AesCcmEncrypt_ex
                0x0000000001018324                wc_AesInit
                0x000000000101833c                wc_AesFree
                0x0000000001018340                wc_AesGetKeySize
                0x000000000101837c                wc_AesEcbEncrypt
                0x00000000010183c4                wc_AesCtrEncrypt
                0x000000000101856c                wc_AesGcmEncrypt
                0x0000000001018748                wc_AesGcmEncrypt_ex
                0x0000000001018804                wc_Gmac
                0x000000000101888c                wc_GmacUpdate
                0x00000000010188bc                wc_AesGcmDecrypt
                0x0000000001018ad0                wc_GmacVerify
                0x0000000001018b40                wc_AesEcbDecrypt
                0x0000000001018b88                wc_AesCfbEncrypt
                0x0000000001018b98                wc_AesCfbDecrypt
                0x0000000001018ba8                wc_AesCfb1Encrypt
                0x0000000001018bcc                wc_AesCfb8Encrypt
                0x0000000001018c3c                wc_AesCfb1Decrypt
                0x0000000001018c60                wc_AesCfb8Decrypt
                0x0000000001018ccc                wc_AesOfbEncrypt
                0x0000000001018cdc                wc_AesOfbDecrypt
                0x0000000001018cec                wc_AesKeyWrap_ex
                0x0000000001018dd8                wc_AesKeyWrap
                0x0000000001018e28                wc_AesKeyUnWrap_ex
                0x0000000001018f38                wc_AesKeyUnWrap
                0x0000000001018f88                wc_AesXtsInit
                0x0000000001018fa8                wc_AesXtsSetKeyNoInit
                0x0000000001019018                wc_AesXtsSetKey
                0x0000000001019040                wc_AesXtsFree
                0x0000000001019044                wc_AesXtsEncrypt
                0x00000000010191e4                wc_AesXtsEncryptSector
                0x0000000001019210                wc_AesXtsDecrypt
                0x0000000001019464                wc_AesXtsDecryptSector
                0x0000000001019490                wc_AesXtsEncryptConsecutiveSectors
                0x0000000001019558                wc_AesXtsDecryptConsecutiveSectors
                0x0000000001019620                wc_AesEaxInit
                0x000000000101976c                wc_AesEaxEncryptUpdate
                0x00000000010197b4                wc_AesEaxDecryptUpdate
                0x00000000010197fc                wc_AesEaxAuthDataUpdate
                0x0000000001019804                wc_AesEaxEncryptFinal
                0x0000000001019874                wc_AesEaxEncryptAuth
                0x0000000001019900                wc_AesEaxDecryptFinal
                0x0000000001019984                wc_AesEaxDecryptAuth
                0x0000000001019a10                wc_AesEaxFree

.text%113       0x0000000001019a30     0x2d94
 .text          0x0000000001019a30     0x2d94 ../src/config/default/stack/g3/adaptation/g3_lib_loadng.a(ProtoLoadNg.o)
                0x0000000001019ecc                LOADNG_Reset
                0x000000000101a138                LOADNG_IsInDestinationAddressSet
                0x000000000101a174                _IsRoutingTableFull
                0x000000000101a1a8                LOADNG_AddCircularRoute
                0x000000000101a1c0                LOADNG_DeleteRoute
                0x000000000101a238                LOADNG_DeleteRoutePosition
                0x000000000101a2d0                LOADNG_AddBlacklistOnMedium
                0x000000000101a368                LOADNG_RemoveBlacklistOnMedium
                0x000000000101a3a4                LOADNG_AddRouteEntry
                0x000000000101a6e4                LOADNG_AddRoute
                0x000000000101a754                LOADNG_GetRouteEntry
                0x000000000101a8f4                LOADNG_RefreshRoute
                0x000000000101a9bc                LOADNG_RouteExists
                0x000000000101a9d0                LOADNG_GetRouteAndMediaType
                0x000000000101aa48                LOADNG_DiscoverPath
                0x000000000101aaf8                LOADNG_NotifyRouteError
                0x000000000101aca8                LOADNG_DiscoverRoute
                0x000000000101c1b4                LOADNG_ProcessMessage
                0x000000000101c4d8                LOADNG_GetRouteCount
                0x000000000101c508                LOADNG_IsRouterTo
                0x000000000101c534                LOADNG_Tasks

.text%114       0x000000000101c7c4     0x2ce8
 .text          0x000000000101c7c4     0x2ce8 build/default/production/_ext/1033058136/ipv6.o
                0x000000000101cb08                TCPIP_IPV6_Initialize
                0x000000000101cc44                TCPIP_IPV6_InitializeStop
                0x000000000101cc74                TCPIP_IPV6_InterfaceIsReady
                0x000000000101cc98                TCPIP_IPV6_TxPacketAllocate
                0x000000000101ccf0                TCPIP_IPV6_PacketIPProtocolSet
                0x000000000101cd04                TCPIP_IPV6_PacketSegmentInsert
                0x000000000101cd0c                TCPIP_IPV6_DataSegmentGetByType
                0x000000000101cd8c                TCPIP_IPV6_HeaderPut
                0x000000000101cdb4                TCPIP_IPV6_DataSegmentContentsGetByType
                0x000000000101cdc0                TCPIP_IPV6_PayloadSet
                0x000000000101cdfc                TCPIP_IPV6_PseudoHeaderChecksumGet
                0x000000000101ce0c                TCPIP_IPV6_HopLimitSet
                0x000000000101ce24                TCPIP_IPV6_PayloadChecksumCalculate
                0x000000000101cec4                TCPIP_IPV6_TransmitPacketStateReset
                0x000000000101cf14                TCPIP_IPV6_AddressIsSolicitedNodeMulticast
                0x000000000101cf58                TCPIP_IPV6_PacketTransmitInFragments
                0x000000000101d29c                TCPIP_IPV6_PacketTransmit
                0x000000000101d464                TCPIP_IPV6_DataSegmentHeaderAllocate
                0x000000000101d49c                TCPIP_IPV6_TxPacketStructCopy
                0x000000000101d5a0                TCPIP_IPV6_UpperLayerHeaderPut
                0x000000000101d5e4                TCPIP_IPV6_TxIsPutReady
                0x000000000101d728                TCPIP_IPV6_ArrayPutHelper
                0x000000000101d730                TCPIP_IPV6_Put
                0x000000000101d758                TCPIP_IPV6_PacketFree
                0x000000000101d784                TCPIP_IPV6_PacketDataFree
                0x000000000101d7a4                TCPIP_IPV6_HeaderGet
                0x000000000101d844                TCPIP_IPV6_AddressesGet
                0x000000000101d870                TCPIP_IPV6_RxBufferSet
                0x000000000101d880                TCPIP_IPV6_AddressFind
                0x000000000101d91c                TCPIP_IPV6_SolicitedNodeMulticastAddressFind
                0x000000000101d978                TCPIP_IPV6_AddressTypeGet
                0x000000000101d9ec                TCPIP_IPV6_MulticastListenerAdd
                0x000000000101da80                TCPIP_IPV6_AddressUnicastRemove
                0x000000000101da88                TCPIP_IPV6_MulticastListenerRemove
                0x000000000101dae0                TCPIP_IPV6_HopByHopOptionsHeaderProcess
                0x000000000101dc64                TCPIP_IPV6_DestinationOptionsHeaderProcess
                0x000000000101ddfc                TCPIP_IPV6_FragmentBufferFree
                0x000000000101de20                TCPIP_IPV6_RoutingHeaderProcess
                0x000000000101de58                TCPIP_IPV6_DASPolicyGet
                0x000000000101df20                TCPIP_IPV6_UnicastAddressAdd
                0x000000000101e08c                TCPIP_IPV6_ASCompareSourceAddresses
                0x000000000101e2b0                TCPIP_IPV6_DASSourceAddressSelect
                0x000000000101e2c0                TCPIP_IPV6_TimestampsTaskUpdate
                0x000000000101e43c                TCPIP_IPV6_ErrorSend
                0x000000000101e4e8                TCPIP_IPV6_FragmentTask
                0x000000000101ebb8                TCPIP_IPV6_FragmentationHeaderProcess
                0x000000000101ebe8                TCPIP_IPV6_UpperLayerHeaderPtrGet
                0x000000000101ebf8                TCPIP_IPV6_PayloadLengthGet
                0x000000000101ec04                TCPIP_IPV6_DestAddressGet
                0x000000000101ec08                TCPIP_IPV6_DestAddressSet
                0x000000000101ec30                TCPIP_IPV6_SourceAddressSet
                0x000000000101ec68                TCPIP_IPV6_Flush
                0x000000000101eec8                TCPIP_IPV6_SourceAddressGet
                0x000000000101eecc                TCPIP_IPV6_HandlerRegister
                0x000000000101ef00                TCPIP_IPV6_HandlerDeregister
                0x000000000101ef18                TCPIP_IPV6_ClientsNotify
                0x000000000101ef54                TCPIP_IPV6_InterfaceConfigGet
                0x000000000101ef6c                TCPIP_IPV6_DefaultRouterGet
                0x000000000101ef88                TCPIP_IPV6_DoubleListFree
                0x000000000101efa8                TCPIP_IPV6_SingleListFree
                0x000000000101efc8                TCPIP_IPV6_FreeConfigLists
                0x000000000101f00c                TCPIP_IPV6_Deinitialize
                0x000000000101f05c                TCPIP_IPV6_Task
                0x000000000101f220                TCPIP_IPV6_RouterAddressAdd
                0x000000000101f260                TCPIP_IPV6_ArrayGet
                0x000000000101f280                TCPIP_IPV6_Get
                0x000000000101f294                TCPIP_IPV6_DiscardRx
                0x000000000101f29c                TCPIP_IPV6_GetReadPtrInRx
                0x000000000101f2a0                TCPIP_IPV6_SetReadPtr
                0x000000000101f2a8                TCPIP_IPV6_SetRemoteMacAddress
                0x000000000101f2b4                TCPIP_IPV6_SetPacketMacAcknowledge
                0x000000000101f2b8                TCPIP_IPV6_MaxDatagramDataSizeGet
                0x000000000101f2e8                TCPIP_IPV6_NeighborAddressAdd
                0x000000000101f430                TCPIP_IPV6_NeighborAddressDelete
                0x000000000101f468                TCPIP_IPV6_G3PLC_PanIdSet

.text%115       0x000000000101f4ac     0x2320
 .text          0x000000000101f4ac     0x2320 build/default/production/_ext/1033058136/tcpip_manager.o
                0x000000000101f9a4                TCPIP_STACK_Status
                0x000000000101f9bc                TCPIP_STACK_InitializeDataGet
                0x000000000101f9f4                TCPIP_STACK_NetDefaultGet
                0x000000000101fa00                TCPIP_STACK_NetDefaultSet
                0x000000000101fa28                TCPIP_STACK_NetMulticastGet
                0x000000000101fa2c                TCPIP_STACK_NetMulticastSet
                0x000000000101fa30                TCPIP_STACK_IPAddToNet
                0x000000000101fa88                _TCPIPStackIpAddFromAnyNet
                0x000000000101fae0                TCPIP_STACK_MacToNet
                0x000000000101fb1c                TCPIP_STACK_MacToNetIndex
                0x000000000101fb58                TCPIP_STACK_NumberOfNetworksGet
                0x000000000101fb64                TCPIP_STACK_IndexToNet
                0x000000000101fb80                TCPIP_STACK_NetIndexGet
                0x000000000101fb90                TCPIP_Stack_UserHandleToNet
                0x000000000101fbd4                TCPIP_STACK_MACIdToNet
                0x000000000101fc1c                TCPIP_STACK_NetNameGet
                0x000000000101fc28                TCPIP_STACK_NetAliasNameGet
                0x000000000101fc70                TCPIP_STACK_MACObjectGet
                0x000000000101fc78                TCPIP_STACK_NetByAddress
                0x000000000101fcb4                TCPIP_STACK_MatchNetAddress
                0x000000000101fcfc                TCPIP_STACK_NetIPv6AddressGet
                0x000000000101fe3c                _TCPIPStackIPv6AddToNet
                0x000000000101fea0                TCPIP_STACK_NetAddressMacSet
                0x000000000101fec0                TCPIP_STACK_NetBIOSName
                0x000000000101fec8                TCPIP_STACK_NetBiosNameSet
                0x000000000101fefc                TCPIP_STACK_NetAddressMac
                0x000000000101ff10                TCPIP_STACK_NetMACIdGet
                0x000000000101ff24                TCPIP_STACK_NetMACTypeGet
                0x000000000101ff44                TCPIP_STACK_NetMACStatisticsGet
                0x000000000101ff68                TCPIP_STACK_NetMACRegisterStatisticsGet
                0x000000000101ff8c                TCPIP_STACK_ModuleConfigGet
                0x000000000101ffd0                TCPIP_STACK_NetConfigGet
                0x0000000001020018                TCPIP_STACK_NetConfigSet
                0x0000000001020240                TCPIP_STACK_StringToMACId
                0x0000000001020288                TCPIP_STACK_NetHandleGet
                0x00000000010202f8                TCPIP_STACK_MACIdToString
                0x0000000001020330                TCPIP_STACK_NetAddressBcast
                0x000000000102034c                TCPIP_STACK_NetIsUp
                0x0000000001020358                TCPIP_STACK_NetIsLinked
                0x0000000001020374                TCPIP_STACK_NetIsReady
                0x00000000010203a0                TCPIP_STACK_AddressServiceSelect
                0x00000000010203a4                TCPIP_STACK_DNSServiceCanStart
                0x00000000010203d0                TCPIP_STACK_AddressServiceDefaultSet
                0x0000000001020510                TCPIP_STACK_EventsPendingGet
                0x0000000001020528                TCPIP_STACK_NetIxGet
                0x0000000001020538                TCPIP_STACK_NetAddressGet
                0x000000000102054c                TCPIP_STACK_NetStaticIPv6AddressGet
                0x0000000001020568                TCPIP_STACK_NetDefaultIPv6GatewayGet
                0x0000000001020578                TCPIP_STACK_NetMaskGet
                0x000000000102058c                TCPIP_STACK_GatewayAddressSet
                0x0000000001020594                TCPIP_STACK_PrimaryDNSAddressSet
                0x000000000102059c                TCPIP_STACK_SecondaryDNSAddressSet
                0x00000000010205a4                TCPIP_STACK_AddressIsOfNetUp
                0x00000000010205d0                TCPIP_STACK_NetIsBcastAddress
                0x00000000010205fc                TCPIP_STACK_IsBcastAddress
                0x0000000001020628                TCPIP_STACK_NetworkIsLinked
                0x0000000001020644                _TCPIPStackHandleToNetLinked
                0x0000000001020664                _TCPIPStackAnyNetLinked
                0x00000000010206b8                _TCPIPStackAnyNetDirected
                0x0000000001020700                TCPIP_STACK_NetMACId
                0x000000000102070c                TCPIP_STACK_NetToMAC
                0x0000000001020714                TCPIP_STACK_NetUpMACAddressGet
                0x0000000001020728                _TCPIPStackSignalHandlerRegister
                0x000000000102076c                _TCPIPStackSignalHandlerSetParams
                0x0000000001020790                _TCPIPStackSignalHandlerDeregister
                0x00000000010207a0                _TCPIPStackModuleSignalGet
                0x00000000010207d8                _TCPIPStackModuleSignalRequest
                0x000000000102083c                _TCPIPStackModuleRxInsert
                0x0000000001020888                _TCPIPStackModuleRxExtract
                0x00000000010208b4                _TCPIPStackModuleRxPurge
                0x0000000001020e44                TCPIP_STACK_Initialize
                0x0000000001020eb4                TCPIP_STACK_Deinitialize
                0x0000000001020ecc                TCPIP_STACK_NetUp
                0x0000000001020f8c                TCPIP_STACK_NetDown
                0x0000000001020fd0                TCPIP_STACK_Task
                0x000000000102164c                _TCPIPStackInsertRxPacket
                0x0000000001021680                _TCPIPStackPacketTx
                0x00000000010216b0                TCPIP_STACK_VersionGet
                0x00000000010216b8                TCPIP_STACK_VersionStrGet
                0x00000000010216c0                TCPIP_MODULE_SignalFunctionRegister
                0x00000000010216f8                TCPIP_MODULE_SignalFunctionDeregister
                0x0000000001021704                TCPIP_MODULE_SignalGet
                0x0000000001021728                TCPIP_STACK_HeapHandleGet
                0x0000000001021740                TCPIP_STACK_HEAP_Size
                0x0000000001021748                TCPIP_STACK_HEAP_MaxSize
                0x0000000001021750                TCPIP_STACK_HEAP_FreeSize
                0x0000000001021758                TCPIP_STACK_HEAP_HighWatermark
                0x0000000001021760                TCPIP_STACK_HEAP_LastError
                0x000000000102176c                _TCPIPStackHeapConfig
                0x0000000001021774                TCPIP_STACK_NetGetType
                0x000000000102177c                _TCPIP_SecCountGet
                0x0000000001021788                _TCPIP_MsecCountGet
                0x0000000001021794                _TCPIPStack_Assert
                0x00000000010217ac                _TCPIPStack_Condition

.text%116       0x00000000010217cc     0x1df0
 .text          0x00000000010217cc     0x1df0 ../src/config/default/stack/g3/mac/mac_rf/g3_lib_mac_rf.a(MacRfLow.o)
                0x0000000001022e08                MacLowTxRequestRF
                0x0000000001022f78                MacLowResetRequestRF
                0x0000000001022fd0                MacLowInitializeRF
                0x000000000102304c                MacLowEventHandlerRF
                0x0000000001023598                MAC_RF_Status

.text%117       0x00000000010235bc     0x1b24
 .text          0x00000000010235bc     0x1b24 build/default/production/_ext/1033058136/udp.o
                0x0000000001023a2c                TCPIP_UDP_Task
                0x0000000001023f14                TCPIP_UDP_Initialize
                0x0000000001024008                TCPIP_UDP_Deinitialize
                0x0000000001024114                TCPIP_UDP_OpenServerSkt
                0x00000000010241a4                TCPIP_UDP_ServerOpen
                0x00000000010241ac                TCPIP_UDP_OpenClientSkt
                0x00000000010241f4                TCPIP_UDP_ClientOpen
                0x00000000010241fc                TCPIP_UDP_IsConnected
                0x0000000001024260                TCPIP_UDP_Close
                0x00000000010242a0                TCPIP_UDP_Disconnect
                0x00000000010242b8                TCPIP_UDP_SocketInfoGet
                0x00000000010243e8                TCPIP_UDP_TxOffsetSet
                0x0000000001024438                TCPIP_UDP_TxPointerGet
                0x0000000001024470                TCPIP_UDP_PutIsReady
                0x0000000001024544                TCPIP_UDP_TxPutIsReady
                0x0000000001024548                TCPIP_UDP_Put
                0x0000000001024578                TCPIP_UDP_ArrayPut
                0x000000000102459c                TCPIP_UDP_StringPut
                0x00000000010245d4                TCPIP_UDP_Flush
                0x0000000001024690                TCPIP_UDP_TxCountGet
                0x00000000010246cc                TCPIP_UDP_GetIsReady
                0x000000000102470c                TCPIP_UDP_ArrayGet
                0x0000000001024804                TCPIP_UDP_RxOffsetSet
                0x000000000102484c                TCPIP_UDP_Get
                0x0000000001024854                TCPIP_UDP_Discard
                0x0000000001024894                TCPIP_UDP_SocketNetSet
                0x0000000001024938                TCPIP_UDP_SocketNetGet
                0x0000000001024958                TCPIP_UDP_SourceIPAddressSet
                0x0000000001024998                TCPIP_UDP_Bind
                0x0000000001024a94                TCPIP_UDP_RemoteBind
                0x0000000001024ba8                TCPIP_UDP_OptionsSet
                0x0000000001024e88                TCPIP_UDP_OptionsGet
                0x0000000001024fd8                TCPIP_UDP_DestinationIPAddressSet
                0x0000000001025000                TCPIP_UDP_DestinationPortSet
                0x0000000001025030                TCPIP_UDP_SignalHandlerRegister
                0x0000000001025090                TCPIP_UDP_SignalHandlerDeregister
                0x00000000010250d4                TCPIP_UDP_SocketsNumberGet

.text%118       0x00000000010250e0     0x1788
 .text          0x00000000010250e0     0x1788 build/default/production/_ext/404212886/FreeRTOS_tasks.o
                0x00000000010253e4                xTaskCreate
                0x0000000001025408                vTaskDelete
                0x00000000010254dc                eTaskGetState
                0x0000000001025554                uxTaskPriorityGet
                0x000000000102557c                uxTaskPriorityGetFromISR
                0x00000000010255ac                uxTaskBasePriorityGet
                0x00000000010255d4                uxTaskBasePriorityGetFromISR
                0x0000000001025604                vTaskPrioritySet
                0x0000000001025704                vTaskResume
                0x00000000010257a8                vTaskStartScheduler
                0x0000000001025818                vTaskEndScheduler
                0x000000000102584c                vTaskSuspendAll
                0x0000000001025860                xTaskGetTickCount
                0x000000000102586c                xTaskGetTickCountFromISR
                0x0000000001025878                uxTaskGetNumberOfTasks
                0x0000000001025884                pcTaskGetName
                0x0000000001025898                xTaskIncrementTick
                0x0000000001025a18                xTaskResumeAll
                0x0000000001025b4c                xTaskDelayUntil
                0x0000000001025ba8                vTaskDelay
                0x0000000001025be4                xTaskCatchUpTicks
                0x0000000001025c14                xTaskAbortDelay
                0x0000000001025ccc                vTaskSwitchContext
                0x0000000001025d58                vTaskSuspend
                0x0000000001025e24                vTaskPlaceOnEventList
                0x0000000001025e44                vTaskPlaceOnUnorderedEventList
                0x0000000001025e84                xTaskRemoveFromEventList
                0x0000000001025f58                vTaskRemoveFromUnorderedEventList
                0x0000000001025ff8                vTaskSetTimeOutState
                0x000000000102601c                vTaskInternalSetTimeOutState
                0x0000000001026030                xTaskCheckForTimeOut
                0x00000000010260b0                vTaskMissedYield
                0x00000000010260c0                xTaskGetCurrentTaskHandle
                0x00000000010260cc                xTaskGetCurrentTaskHandleForCore
                0x00000000010260dc                xTaskPriorityInherit
                0x000000000102618c                xTaskPriorityDisinherit
                0x0000000001026220                vTaskPriorityDisinheritAfterTimeout
                0x00000000010262bc                uxTaskResetEventItemValue
                0x00000000010262d4                pvTaskIncrementMutexHeldCount
                0x00000000010262e8                ulTaskGenericNotifyTake
                0x00000000010263a8                xTaskGenericNotifyWait
                0x000000000102647c                xTaskGenericNotify
                0x000000000102658c                xTaskGenericNotifyFromISR
                0x00000000010266c8                vTaskGenericNotifyGiveFromISR
                0x00000000010267cc                xTaskGenericNotifyStateClear
                0x0000000001026800                ulTaskGenericNotifyValueClear
                0x0000000001026830                vTaskResetState

.text%119       0x0000000001026868     0x1544
 .text          0x0000000001026868     0x1544 ../src/config/default/stack/g3/mac/mac_rf/g3_lib_mac_rf.a(MacRfMib.o)
                0x00000000010268c0                MacMibResetRF
                0x00000000010268c4                MacMibInitializeRF
                0x00000000010268dc                MAC_RF_GetRequestSync
                0x00000000010271b8                MibGetPOSEntryRF
                0x00000000010271f8                MibGetDeviceEntryRF
                0x0000000001027284                MibGetBackoffUnitPeriodRF
                0x00000000010272bc                MibGetUpdateAdaptivePowerHighBoundRF
                0x0000000001027308                MAC_RF_SetRequestSync
                0x0000000001027d94                MibGetLqiFromRssiRF

.text%120       0x0000000001027dac     0x13d8
 .text          0x0000000001027dac     0x13d8 ../src/config/default/stack/g3/adaptation/g3_lib_adp.a(ProtoRFC6282.o)
                0x0000000001028688                IPv6_IsValid
                0x000000000102870c                IPv6_GetShortDestinationAddress
                0x00000000010287c4                IPv6_IsMulticast
                0x00000000010287dc                IPv6_RepairHeader
                0x000000000102885c                IPv6_DecompressHeader
                0x0000000001028be4                IPv6_CompressHeader

.text%121       0x0000000001029184     0x1374
 .text          0x0000000001029184     0x1374 build/default/production/_ext/1033058136/tcpip_helpers.o
                0x0000000001029184                TCPIP_Helper_StringToIPAddress
                0x0000000001029248                TCPIP_Helper_IPAddressToString
                0x0000000001029290                TCPIP_Helper_StringToIPv6Address
                0x0000000001029630                TCPIP_Helper_IPv6AddressToString
                0x00000000010296c4                TCPIP_Helper_IsPrivateAddress
                0x00000000010296ec                TCPIP_Helper_StringToMACAddress
                0x000000000102978c                TCPIP_Helper_MACAddressToString
                0x00000000010297c8                TCPIP_Helper_StringToPowerMode
                0x00000000010297f8                TCPIP_Helper_PowerModeToString
                0x000000000102980c                TCPIP_Helper_Base64Decode
                0x00000000010298e0                TCPIP_Helper_Base64Encode
                0x00000000010299e0                TCPIP_Helper_CalcIPChecksum
                0x0000000001029a3c                TCPIP_Helper_Memcpy
                0x0000000001029a74                TCPIP_Helper_PacketChecksum
                0x0000000001029b08                TCPIP_Helper_ChecksumFold
                0x0000000001029b18                TCPIP_Helper_PacketCopy
                0x0000000001029bdc                TCPIP_Helper_FormatNetBIOSName
                0x0000000001029c18                TCPIP_Helper_FindCommonPrefix
                0x0000000001029c6c                TCPIP_Helper_SingleListInitialize
                0x0000000001029c78                TCPIP_Helper_SingleListHeadAdd
                0x0000000001029c94                TCPIP_Helper_SingleListTailAdd
                0x0000000001029cb4                TCPIP_Helper_SingleListMidAdd
                0x0000000001029cc8                TCPIP_Helper_SingleListHeadRemove
                0x0000000001029ce8                TCPIP_Helper_SingleListNextRemove
                0x0000000001029d2c                TCPIP_Helper_SingleListNodeRemove
                0x0000000001029d94                TCPIP_Helper_SingleListFind
                0x0000000001029db0                TCPIP_Helper_SingleListAppend
                0x0000000001029df0                TCPIP_Helper_ProtectedSingleListInitialize
                0x0000000001029e14                TCPIP_Helper_ProtectedSingleListDeinitialize
                0x0000000001029e5c                TCPIP_Helper_ProtectedSingleListHeadAdd
                0x0000000001029e94                TCPIP_Helper_ProtectedSingleListTailAdd
                0x0000000001029ed0                TCPIP_Helper_ProtectedSingleListMidAdd
                0x0000000001029f04                TCPIP_Helper_ProtectedSingleListHeadRemove
                0x0000000001029f44                TCPIP_Helper_ProtectedSingleListNextRemove
                0x0000000001029f70                TCPIP_Helper_ProtectedSingleListNodeRemove
                0x0000000001029f9c                TCPIP_Helper_ProtectedSingleListAppend
                0x0000000001029fc8                TCPIP_Helper_ProtectedSingleListRemoveAll
                0x000000000102a010                TCPIP_Helper_ProtectedSingleListLock
                0x000000000102a034                TCPIP_Helper_ProtectedSingleListUnlock
                0x000000000102a054                TCPIP_Helper_DoubleListInitialize
                0x000000000102a060                TCPIP_Helper_DoubleListHeadAdd
                0x000000000102a088                TCPIP_Helper_DoubleListTailAdd
                0x000000000102a0b0                TCPIP_Helper_DoubleListMidAdd
                0x000000000102a0c8                TCPIP_Helper_DoubleListHeadRemove
                0x000000000102a0ec                TCPIP_Helper_DoubleListTailRemove
                0x000000000102a110                TCPIP_Helper_DoubleListMidRemove
                0x000000000102a128                TCPIP_Helper_DoubleListNodeRemove
                0x000000000102a180                TCPIP_Helper_DoubleListFind
                0x000000000102a19c                TCPIP_Helper_ProtectedDoubleListInitialize
                0x000000000102a1c0                TCPIP_Helper_ProtectedDoubleListDeinitialize
                0x000000000102a208                TCPIP_Helper_ProtectedDoubleListHeadAdd
                0x000000000102a24c                TCPIP_Helper_ProtectedDoubleListTailAdd
                0x000000000102a290                TCPIP_Helper_ProtectedDoubleListMidAdd
                0x000000000102a2c8                TCPIP_Helper_ProtectedDoubleListHeadRemove
                0x000000000102a30c                TCPIP_Helper_ProtectedDoubleListTailRemove
                0x000000000102a350                TCPIP_Helper_ProtectedDoubleListMidRemove
                0x000000000102a384                TCPIP_Helper_ProtectedDoubleListNodeRemove
                0x000000000102a3b0                TCPIP_Helper_ProtectedDoubleListRemoveAll
                0x000000000102a3f4                TCPIP_Helper_ProtectedDoubleListLock
                0x000000000102a404                TCPIP_Helper_ProtectedDoubleListUnlock
                0x000000000102a410                TCPIP_Helper_TCPSecurePortGet
                0x000000000102a434                TCPIP_Helper_UDPSecurePortGet
                0x000000000102a458                TCPIP_Helper_SecurePortGetByIndex
                0x000000000102a490                TCPIP_Helper_SecurePortSet

.text%122       0x000000000102a4f8     0x12e4
 .text          0x000000000102a4f8     0x12e4 build/default/production/_ext/1360937237/app_g3_management.o
                0x000000000102ab40                APP_G3_MANAGEMENT_SendEmergency
                0x000000000102abf0                APP_G3_MANAGEMENT_Initialize
                0x000000000102ac70                APP_G3_MANAGEMENT_GetPanId
                0x000000000102ac7c                APP_G3_MANAGEMENT_GetShortAddress
                0x000000000102ac88                APP_G3_MANAGEMENT_GetCoordinatorShortAddress
                0x000000000102aca0                APP_G3_MANAGEMENT_GetExtendedAddress
                0x000000000102aca8                APP_G3_MANAGEMENT_SetConformanceConfig
                0x000000000102ace4                APP_G3_MANAGEMENT_SetConformanceTrickleConfig
                0x000000000102adf8                APP_G3_MANAGEMENT_SetConfigRF
                0x000000000102ae88                APP_G3_MANAGEMENT_Tasks
                0x000000000102b794                APP_G3_MANAGEMENT_SetContinuousTxRF
                0x000000000102b7bc                APP_G3_MANAGEMENT_SetLastGaspMode

.text%123       0x000000000102b7dc     0x1168
 .text          0x000000000102b7dc     0x1168 build/default/production/_ext/1033058136/icmpv6.o
                0x000000000102b82c                TCPIP_ICMPV6_Initialize
                0x000000000102b85c                TCPIP_ICMPV6_Deinitialize
                0x000000000102b888                TCPIP_ICMPV6_CallbackRegister
                0x000000000102b8b4                TCPIP_ICMPV6_CallbackDeregister
                0x000000000102b8c8                TCPIP_ICMPV6_Open
                0x000000000102b90c                TCPIP_ICMPV6_HeaderErrorPut
                0x000000000102b964                TCPIP_ICMPV6_HeaderEchoRequestPut
                0x000000000102b9cc                TCPIP_ICMPV6_EchoRequestSend
                0x000000000102ba8c                TCPIP_ICMPV6_HeaderRouterSolicitationPut
                0x000000000102bad4                TCPIP_ICMPV6_G3RouterAdvertisementPut
                0x000000000102bad8                TCPIP_ICMPV6_HeaderNeighborSolicitationPut
                0x000000000102bb30                TCPIP_ICMPV6_HeaderNeighborAdvertisementPut
                0x000000000102bbac                TCPIP_ICMPV6_Flush
                0x000000000102bbbc                TCPIP_ICMPV6_Process

.text%124       0x000000000102c944     0x110c
 .text          0x000000000102c944     0x110c build/default/production/_ext/1033058136/ndp.o
                0x000000000102c9f0                TCPIP_NDP_Initialize
                0x000000000102ca68                TCPIP_NDP_Deinitialize
                0x000000000102cab0                TCPIP_NDP_DefaultRouterEntryCreate
                0x000000000102cae8                TCPIP_NDP_DestCacheEntryCreate
                0x000000000102cb54                TCPIP_NDP_PrefixListEntryCreate
                0x000000000102cba4                TCPIP_NDP_DefaultRouterGet
                0x000000000102cbf4                TCPIP_NDP_DupAddrDiscoveryDetect
                0x000000000102cc34                TCPIP_NDP_DupAddrDiscoveryStatus
                0x000000000102cda0                TCPIP_NDP_DupAddrDiscoveryProcess
                0x000000000102cdd4                TCPIP_NDP_RouterSolicitStart
                0x000000000102cdf8                TCPIP_NDP_RouterSolicitStop
                0x000000000102ce24                TCPIP_NDP_PrefixFind
                0x000000000102ce8c                TCPIP_NDP_RemoteNodeFind
                0x000000000102cf00                TCPIP_NDP_ReachabilitySet
                0x000000000102cf7c                TCPIP_NDP_NborReachConfirm
                0x000000000102cfa8                TCPIP_NDP_NborEntryCreate
                0x000000000102d054                TCPIP_NDP_NextHopGet
                0x000000000102d0e8                TCPIP_NDP_IsG3PLC_Neighbor
                0x000000000102d160                TCPIP_NDP_PrefixOnLinkStatusGet
                0x000000000102d168                TCPIP_NDP_AddressConstructFromPrefix
                0x000000000102d1bc                TCPIP_NDP_SAAPrefixInfoProcess
                0x000000000102d26c                TCPIP_NDP_NborCacheLinkLayerAddressUpdate
                0x000000000102d2d8                TCPIP_NDP_AddressResolve
                0x000000000102d30c                TCPIP_NDP_LinkedListEntryRemove
                0x000000000102d3b8                TCPIP_NDP_NborEntryDelete
                0x000000000102d44c                TCPIP_NDP_DestCacheUpdate
                0x000000000102d478                TCPIP_NDP_PrefixInfoProcessForOnLinkStatus
                0x000000000102d4d0                TCPIP_NDP_LinkedListEntryInsert
                0x000000000102d4dc                TCPIP_NDP_UnicastAddressMove
                0x000000000102d53c                TCPIP_NDP_TentativeAddressPromote
                0x000000000102d574                TCPIP_NDP_Task
                0x000000000102da20                TCPIP_IPV6_DefaultRouterDelete

.text%125       0x000000000102da50     0x1034
 .text          0x000000000102da50     0x1034 ../src/config/default/stack/g3/adaptation/g3_lib_adp.a(AdpMacInterface.o)
                0x000000000102e04c                AdpMac_Initialize
                0x000000000102e0a8                AdpMac_EventHandler
                0x000000000102e2b8                AdpMac_DataRequest
                0x000000000102e3d0                AdpMac_DataRequestHelper
                0x000000000102e448                AdpMac_StartRequest
                0x000000000102e46c                AdpMac_ScanRequest
                0x000000000102e494                AdpMac_ResetRequest
                0x000000000102e524                AdpMac_GetExtendedAddressSync
                0x000000000102e560                AdpMac_GetShortAddressSync
                0x000000000102e590                AdpMac_GetPLCPOSRecentEntriesSync
                0x000000000102e5c0                AdpMac_GetRFPOSRecentEntriesSync
                0x000000000102e5f0                AdpMac_GetLastFrameDurationSync
                0x000000000102e654                AdpMac_GetPLCFrameCounterSync
                0x000000000102e684                AdpMac_GetRFFrameCounterSync
                0x000000000102e6b4                AdpMac_GetNeighbourDescriptorSync
                0x000000000102e790                AdpMac_GetMibSync
                0x000000000102e7ac                ADP_MacGetRequestSync
                0x000000000102e7f0                ADP_MacGetRequest
                0x000000000102e84c                AdpMac_SetPanIdSync
                0x000000000102e87c                AdpMac_SetGroupMasterKeySync
                0x000000000102e8c0                AdpMac_DeleteGroupMasterKeySync
                0x000000000102e8ec                AdpMac_SetShortAddressSync
                0x000000000102e91c                AdpMac_SetRcCoordSync
                0x000000000102e94c                AdpMac_SetExtendedAddressSync
                0x000000000102e988                AdpMac_SecurityResetSync
                0x000000000102e9b4                AdpMac_SetTrickleMinLQISync
                0x000000000102e9e8                AdpMac_SetTrickleMinLQISyncRF
                0x000000000102ea1c                AdpMac_SetMibSync
                0x000000000102ea28                ADP_MacSetRequestSync
                0x000000000102ea44                ADP_MacSetRequest
                0x000000000102ea74                IsResetPending

.text%126       0x000000000102ea84      0xfcc
 .text          0x000000000102ea84      0xfcc ../src/config/default/stack/g3/adaptation/g3_lib_adp.a(AdpCommon.o)
                0x000000000102f540                AdpCommon_DataSendEx
                0x000000000102f7f0                AdpCommon_DataSend
                0x000000000102f880                GenerateAdpPREQIndication
                0x000000000102f890                AdpCommon_CheckProcessingQueue
                0x000000000102f8e4                AdpCommon_ProcessSendQueue
                0x000000000102f990                AdpCommon_PurgeFullProcessingQueue
                0x000000000102f9c8                AdpCommon_PurgeProcessingQueue
                0x000000000102fa1c                AdpCommon_EventHandler

.text%127       0x000000000102fa50      0xfa4
 .text          0x000000000102fa50      0xfa4 build/default/production/_ext/1534551086/lbp_dev.o
                0x000000000103063c                LBP_InitDev
                0x00000000010306d0                LBP_TasksDev
                0x000000000103075c                LBP_SetNotificationsDev
                0x000000000103076c                LBP_SetParamDev
                0x00000000010307fc                LBP_ForceRegister
                0x000000000103085c                LBP_AdpNetworkJoinRequest
                0x0000000001030974                LBP_AdpNetworkLeaveRequest

.text%128       0x00000000010309f4      0xf30
 .text          0x00000000010309f4      0xf30 ../src/config/default/stack/g3/adaptation/g3_lib_loadng.a(ProtoLoadNg_GetSet.o)
                0x00000000010309f4                LOADNG_GetMib
                0x00000000010310bc                LOADNG_SetMib
                0x0000000001031800                GetAdpNetTraversalTime
                0x0000000001031818                GetAdpShortAddress
                0x0000000001031830                GetAdpCoordShortAddress
                0x0000000001031848                GetAdpMaxHops
                0x0000000001031860                GetAdpRcCoord
                0x000000000103187c                AdpGetPendingDataIndicationShortAddr
                0x0000000001031898                GetAdpBandContextTones
                0x00000000010318b4                GetLastPhaseDiff
                0x00000000010318d0                GetAdpDutyCycleUsageRF
                0x00000000010318f8                GetNeighbourDutyCycleUsageRF

.text%129       0x0000000001031924      0xe88
 .text          0x0000000001031924      0xe88 ../src/config/default/stack/g3/adaptation/g3_lib_adp.a(AdpGetSet.o)
                0x000000000103271c                ADP_GetRequest
                0x000000000103275c                ADP_SetRequest
                0x000000000103277c                ADP_GetRequestSync
                0x00000000010327a8                ADP_SetRequestSync

.text%130       0x00000000010327ac      0xd90
 .text          0x00000000010327ac      0xd90 ../src/config/default/driver/pds/pds.a(S_Nv-Chimera.o)
                0x0000000001032e60                S_Nv_EarlyInit
                0x0000000001033008                S_Nv_Init
                0x000000000103301c                S_Nv_Write_Impl
                0x00000000010330dc                S_Nv_Read_Impl
                0x0000000001033130                S_Nv_ItemLength_Impl
                0x000000000103316c                S_Nv_ItemInit_Impl
                0x00000000010333e0                S_Nv_Delete_Impl
                0x0000000001033490                S_Nv_EraseAll_Impl
                0x0000000001033504                S_Nv_SetPowerSupplyCheckingFunction_Impl
                0x0000000001033510                S_Nv_IsItemAvailable_Impl
                0x000000000103351e                S_Nv_CompactSector_Impl

.text%131       0x000000000103353c      0xccc
 .text          0x000000000103353c      0xccc ../src/config/default/stack/g3/mac/mac_plc/g3_lib_mac_plc.a(MacLow.o)
                0x0000000001033d2c                MacLowTxRequest
                0x0000000001034078                MacLowResetRequest
                0x00000000010340bc                MacLowInitialize
                0x0000000001034140                MacLowEventHandler
                0x00000000010341e4                MAC_PLC_Status

.text%132       0x0000000001034208      0xc6c
 .text          0x0000000001034208      0xc6c build/default/production/_ext/1278466877/pal_rf.o
                0x000000000103437c                PHY_TxDoneCallback
                0x00000000010343f8                PHY_RxFrameCallback
                0x00000000010344ac                PAL_RF_Initialize
                0x0000000001034574                PAL_RF_HandleGet
                0x0000000001034590                PAL_RF_Status
                0x00000000010345a4                PAL_RF_Deinitialize
                0x00000000010345cc                PAL_RF_Tasks
                0x0000000001034688                PAL_RF_TxRequest
                0x0000000001034828                PAL_RF_TxCancel
                0x0000000001034870                PAL_RF_Reset
                0x0000000001034880                PAL_RF_GetRfPhyPib
                0x0000000001034bfc                PAL_RF_SetRfPhyPib
                0x0000000001034d98                PAL_RF_GetRfPhyPibLength

.text%133       0x0000000001034e74      0xc1c
 .text          0x0000000001034e74      0xc1c build/default/production/_ext/1570337448/mac_wrapper.o
                0x0000000001035580                MAC_WRP_Initialize
                0x00000000010355b4                MAC_WRP_Open
                0x0000000001035700                MAC_WRP_SetCallbacks
                0x0000000001035744                MAC_WRP_Tasks
                0x0000000001035758                MAC_WRP_Status
                0x0000000001035784                MAC_WRP_DataRequest
                0x00000000010358a0                MAC_WRP_GetRequestSync
                0x000000000103591c                MAC_WRP_SetRequestSync
                0x0000000001035994                MAC_WRP_ResetRequest
                0x00000000010359dc                MAC_WRP_ScanRequest
                0x0000000001035a3c                MAC_WRP_StartRequest
                0x0000000001035a7c                MAC_WRP_GetAvailableMacLayers
                0x0000000001035a80                MAC_WRP_GetMsCounter
                0x0000000001035a84                MAC_WRP_TimeIsPast
                0x0000000001035a88                MAC_WRP_GetSecondsCounter
                0x0000000001035a8c                MAC_WRP_TimeIsPastSeconds

.text%134       0x0000000001035a90      0xbb0
 .text          0x0000000001035a90      0xbb0 ../src/config/default/stack/g3/adaptation/g3_lib_adp.a(Proto6Lowpan.o)
                0x0000000001035af0                LoWPAN_Encode_CMD_Bootstrap
                0x0000000001035b18                LoWPAN_Encode_CMD_Loadng
                0x0000000001035b40                LoWPAN_Encode_IPv6
                0x0000000001035b64                LoWPAN_Encode_Broadcast
                0x0000000001035b8c                LoWPAN_Decode_Broadcast
                0x0000000001035bac                LoWPAN_Sizeof_MeshHeader
                0x0000000001035bb8                LoWPAN_Sizeof_IPv6Header
                0x0000000001035bbc                LoWPAN_Sizeof_Frag1Header
                0x0000000001035bc0                LoWPAN_Sizeof_FragNHeader
                0x0000000001035bc4                LoWPAN_Sizeof_BroadcastHeader
                0x0000000001035bc8                LoWPAN_Encode_MeshHeader
                0x0000000001035c10                LoWPAN_Decode_MeshHeader
                0x0000000001035c54                LoWPAN_Encode_Frag1Header
                0x0000000001035c84                LoWPAN_Decode_Frag1Header
                0x0000000001035cc4                LoWPAN_Encode_FragNHeader
                0x0000000001035d08                LoWPAN_Decode_FragNHeader
                0x0000000001035d50                LoWPAN_IsMeshHeader
                0x0000000001035d6c                LoWPAN_IsIPv6Header
                0x0000000001035d84                LoWPAN_IsCompressedIPv6Header
                0x0000000001035da0                LoWPAN_IsBroadcastHeader
                0x0000000001035db8                LoWPAN_IsEscHeader
                0x0000000001035dd0                LoWPAN_IsFrag1Header
                0x0000000001035dec                LoWPAN_IsFragNHeader
                0x0000000001035e08                LoWPAN_Decode_EscHeader
                0x0000000001035e34                LoWPAN_Decode_IPv6
                0x0000000001035e50                GetFragmentedDataEntry
                0x0000000001035f50                AddFragment
                0x0000000001035ff8                DataFragmentReceived
                0x00000000010360cc                LoWPAN_DataSend_Callback
                0x00000000010360d0                IsGroupAddress
                0x000000000103612c                SearchBroadcastLogTable
                0x00000000010361d8                AddBroadcastLogTable
                0x00000000010365a0                FullBroadcastLogTable
                0x00000000010365d0                DropBroadcastForTrickleRedundancy

.text%135       0x0000000001036640      0xb1c
 .text          0x0000000001036640      0xb1c ../src/config/default/stack/g3/adaptation/g3_lib_adp.a(Adp.o)
                0x0000000001036640                ADP_Initialize
                0x00000000010366b4                ADP_Status
                0x00000000010366dc                ADP_SetLBPStatusConnection
                0x00000000010366e8                ADP_SetDataNotifications
                0x00000000010366fc                ADP_SetManagementNotifications
                0x0000000001036730                ADP_SetNotificationsToLbp
                0x0000000001036744                ADP_GetAvailableMacLayers
                0x0000000001036750                ADP_Tasks
                0x0000000001036830                ADP_Reset
                0x0000000001036a0c                ADP_Open
                0x0000000001036aa8                ADP_ProcessIncomingMessage

.text%136       0x000000000103715c      0xa70
 .text          0x000000000103715c      0xa70 ../src/config/default/stack/g3/mac/mac_plc/g3_lib_mac_plc.a(MacMib.o)
                0x000000000103715c                MacMibReset
                0x000000000103717c                MacMibInitialize
                0x00000000010371a8                MAC_PLC_GetRequestSync
                0x0000000001037604                MAC_PLC_SetRequestSync
                0x0000000001037aec                MAC_PLC_MIB_SetAttributeSync
                0x0000000001037b50                MibGetDeviceEntry

.text%137       0x0000000001037bcc      0xa44
 .text          0x0000000001037bcc      0xa44 build/default/production/_ext/101884895/sys_time.o
                0x0000000001037f34                SYS_TIME_Initialize
                0x0000000001037fec                SYS_TIME_Deinitialize
                0x000000000103801c                SYS_TIME_Status
                0x0000000001038030                SYS_TIME_FrequencyGet
                0x000000000103803c                SYS_TIME_Counter64Get
                0x0000000001038074                SYS_TIME_CounterGet
                0x000000000103807c                SYS_TIME_CounterSet
                0x0000000001038098                SYS_TIME_CountToUS
                0x00000000010380b4                SYS_TIME_CountToMS
                0x00000000010380d0                SYS_TIME_USToCount
                0x00000000010380ec                SYS_TIME_MSToCount
                0x0000000001038108                SYS_TIME_TimerCreate
                0x0000000001038124                SYS_TIME_TimerReload
                0x00000000010381e0                SYS_TIME_TimerDestroy
                0x0000000001038324                SYS_TIME_TimerStart
                0x00000000010383a0                SYS_TIME_TimerStop
                0x0000000001038400                SYS_TIME_TimerCounterGet
                0x000000000103849c                SYS_TIME_TimerPeriodHasExpired
                0x00000000010384b0                SYS_TIME_DelayUS
                0x00000000010384fc                SYS_TIME_DelayMS
                0x0000000001038548                SYS_TIME_DelayIsComplete
                0x000000000103856c                SYS_TIME_CallbackRegisterUS
                0x00000000010385c0                SYS_TIME_CallbackRegisterMS

.text%138       0x0000000001038610      0xa20
 .text          0x0000000001038610      0xa20 build/default/production/_ext/404212886/queue.o
                0x00000000010387a4                xQueueGenericReset
                0x0000000001038874                xQueueGenericCreate
                0x0000000001038884                xQueueCreateCountingSemaphore
                0x00000000010388a0                xQueueGenericSend
                0x00000000010389e4                xQueueCreateMutex
                0x0000000001038a08                xQueueGenericSendFromISR
                0x0000000001038aa0                xQueueGiveFromISR
                0x0000000001038b14                xQueueReceive
                0x0000000001038c24                xQueueSemaphoreTake
                0x0000000001038d8c                xQueuePeek
                0x0000000001038e94                xQueueReceiveFromISR
                0x0000000001038f0c                xQueuePeekFromISR
                0x0000000001038f40                uxQueueMessagesWaiting
                0x0000000001038f54                uxQueueSpacesAvailable
                0x0000000001038f6c                uxQueueMessagesWaitingFromISR
                0x0000000001038f70                vQueueDelete
                0x0000000001038f74                uxQueueGetQueueItemSize
                0x0000000001038f78                uxQueueGetQueueLength
                0x0000000001038f7c                xQueueIsQueueEmptyFromISR
                0x0000000001038f88                xQueueIsQueueFullFromISR
                0x0000000001038f98                xQueueCreateSet
                0x0000000001038fa8                xQueueAddToSet
                0x0000000001038fdc                xQueueRemoveFromSet
                0x0000000001039000                xQueueSelectFromSet
                0x0000000001039018                xQueueSelectFromSetFromISR

.text%139       0x0000000001039030      0xa10
 .text          0x0000000001039030      0xa10 build/default/production/_ext/1716827871/sha256.o
                0x00000000010395d8                wc_InitSha256_ex
                0x0000000001039634                wc_Sha256Update
                0x000000000103971c                wc_Sha256FinalRaw
                0x0000000001039754                wc_Sha256Final
                0x00000000010397f0                wc_InitSha224_ex
                0x0000000001039850                wc_Sha224Update
                0x0000000001039854                wc_Sha224Final
                0x00000000010398ec                wc_InitSha224
                0x000000000103994c                wc_InitSha256
                0x00000000010399a8                wc_Sha256Free
                0x00000000010399b4                wc_Sha224Free
                0x00000000010399b8                wc_Sha224GetHash
                0x00000000010399ec                wc_Sha256GetHash
                0x0000000001039a20                wc_Sha256Copy
                0x0000000001039a3c                wc_Sha224Copy

.text%140       0x0000000001039a40      0x9f4
 .text          0x0000000001039a40      0x9f4 build/default/production/_ext/1716827871/random.o
                0x0000000001039ec4                wc_RNG_DRBG_Reseed
                0x0000000001039ed8                wc_RNG_TestSeed
                0x0000000001039f24                wc_FreeRng
                0x0000000001039f74                wc_rng_free
                0x0000000001039f94                wc_RNG_HealthTest_ex
                0x000000000103a02c                wc_RNG_HealthTest
                0x000000000103a058                wc_GenerateSeed
                0x000000000103a248                wc_rng_new
                0x000000000103a280                wc_rng_new_ex
                0x000000000103a2c4                wc_InitRng
                0x000000000103a2e0                wc_InitRng_ex
                0x000000000103a2f8                wc_InitRngNonce
                0x000000000103a310                wc_InitRngNonce_ex
                0x000000000103a3f0                wc_RNG_GenerateBlock
                0x000000000103a41c                wc_RNG_GenerateByte

.text%141       0x000000000103a438      0x8e4
 .text          0x000000000103a438      0x8e4 ../src/config/default/driver/device_support/pic32cx_bz2_device_support.a(rf_system.o)
                0x000000000103a438                bt_modem_common_setup
                0x000000000103a528                btzbsys_initial_settings
                0x000000000103a538                Delay100us
                0x000000000103a570                aclb_initial_settings
                0x000000000103a66c                aclb_default_cal
                0x000000000103a802                VCO_Coarse_Tune
                0x000000000103a82c                Temperature_Reading
                0x000000000103a98c                TX_Power_Compensation
                0x000000000103aa74                RSSI_ED_Compensation
                0x000000000103aac8                Vref_Compensation
                0x000000000103ab44                RF_NeedCal
                0x000000000103ab7c                RF_Timer_Cal
                0x000000000103abf8                SYS_Load_Cal
                0x000000000103acac                RF_SetIdleMode
                0x000000000103acb4                SYS_ClkGen_Config
                0x000000000103acd4                RF_HpaInit

.text%142       0x000000000103ad1c      0x82c
 .text          0x000000000103ad1c      0x82c build/default/production/_ext/1534551086/eap_psk.o
                0x000000000103ad1c                EAP_PSK_Initialize
                0x000000000103ad7c                EAP_PSK_InitializeTEKMSK
                0x000000000103ade4                EAP_PSK_DecodeMessage
                0x000000000103ae3c                EAP_PSK_DecodeMessage1
                0x000000000103ae70                EAP_PSK_EncodeMessage2
                0x000000000103af90                EAP_PSK_DecodeMessage3
                0x000000000103b090                EAP_PSK_EncodeMessage4
                0x000000000103b170                EAP_PSK_EncodeMessage1
                0x000000000103b1c0                EAP_PSK_DecodeMessage2
                0x000000000103b30c                EAP_PSK_EncodeMessage3
                0x000000000103b460                EAP_PSK_DecodeMessage4
                0x000000000103b504                EAP_PSK_EncodeEAPSuccess
                0x000000000103b51c                EAP_PSK_EncodeEAPFailure
                0x000000000103b534                EAP_PSK_EncodeGMKActivation

.rodata%143     0x000000000103b548      0x800
 .rodata        0x000000000103b548      0x800 build/default/production/_ext/1360937237/app_matrix_led.o

.rodata.str1.4%144
                0x000000000103bd48      0x7ec
 .rodata.str1.4
                0x000000000103bd48      0x7ec build/default/production/_ext/1360937237/app_g3_management.o

.text%145       0x000000000103c534      0x738
 .text          0x000000000103c534      0x738 build/default/production/_ext/410113559/drv_g3_macrt_local_comm.o
                0x000000000103c660                DRV_G3_MACRT_Init
                0x000000000103c6a4                DRV_G3_MACRT_Task
                0x000000000103c7d8                DRV_G3_MACRT_TxRequest
                0x000000000103c838                DRV_G3_MACRT_PIBGet
                0x000000000103c8c8                DRV_G3_MACRT_PIBSet
                0x000000000103c960                DRV_G3_MACRT_SetCoordinator
                0x000000000103c980                DRV_G3_MACRT_EnablePhySniffer
                0x000000000103c9a0                DRV_G3_MACRT_GetTimerReference
                0x000000000103c9c4                DRV_G3_MACRT_ExternalInterruptHandler

.dinit%146      0x000000000103cc6c      0x6e0
 .dinit         0x000000000103cc6c      0x6e0 data_init

.text%147       0x000000000103d34c      0x66c
 .text          0x000000000103d34c      0x66c build/default/production/_ext/504274921/plib_sercom1_usart.o
                0x000000000103d34c                SERCOM1_USART_Initialize
                0x000000000103d3c8                SERCOM1_USART_FrequencyGet
                0x000000000103d3d0                SERCOM1_USART_SerialSetup
                0x000000000103d4f8                SERCOM1_USART_Enable
                0x000000000103d514                SERCOM1_USART_Disable
                0x000000000103d530                SERCOM1_USART_ErrorGet
                0x000000000103d540                SERCOM1_USART_Read
                0x000000000103d5c8                SERCOM1_USART_ReadCountGet
                0x000000000103d5e0                SERCOM1_USART_ReadFreeBufferCountGet
                0x000000000103d5fc                SERCOM1_USART_ReadBufferSizeGet
                0x000000000103d608                SERCOM1_USART_ReadNotificationEnable
                0x000000000103d620                SERCOM1_USART_ReadThresholdSet
                0x000000000103d62c                SERCOM1_USART_ReadCallbackRegister
                0x000000000103d638                SERCOM1_USART_TransmitComplete
                0x000000000103d648                SERCOM1_USART_WriteCountGet
                0x000000000103d660                SERCOM1_USART_Write
                0x000000000103d75c                SERCOM1_USART_WriteFreeBufferCountGet
                0x000000000103d778                SERCOM1_USART_WriteBufferSizeGet
                0x000000000103d784                SERCOM1_USART_WriteNotificationEnable
                0x000000000103d794                SERCOM1_USART_WriteThresholdSet
                0x000000000103d7a0                SERCOM1_USART_WriteCallbackRegister
                0x000000000103d968                SERCOM1_USART_InterruptHandler

.text%148       0x000000000103d9b8      0x664
 .text          0x000000000103d9b8      0x664 ../src/config/default/driver/pds/pds.a(wlPdsDataServer.o)
                0x000000000103dc2c                PDS_RegisterWriteCompleteCallback
                0x000000000103dc5c                PDS_RegisterUpdateMemoryCallback
                0x000000000103dc8c                PDS_AddItemExcpetionFromDeleteAll
                0x000000000103dcac                PDS_Delete
                0x000000000103dce8                PDS_Store
                0x000000000103dcfc                isItemEverPersistent
                0x000000000103dd18                PDS_DeleteAll
                0x000000000103dd84                PDS_GetItemDescr
                0x000000000103dddc                PDS_storeOffset
                0x000000000103de12                pdsDataStoreIndicator
                0x000000000103dece                PDS_GetPendingItemsCount
                0x000000000103dee0                PDS_StoreItemTaskHandler
                0x000000000103df48                PDS_StoreItem
                0x000000000103df84                PDS_IsAbleToRestore
                0x000000000103dfca                PDS_Restore
                0x000000000103e00a                PDS_Restore_Offset

.text%149       0x000000000103e01c      0x618
 .text          0x000000000103e01c      0x618 build/default/production/_ext/710515956/drv_mac_g3adp.o
                0x000000000103e01c                DRV_G3ADP_MAC_Status
                0x000000000103e03c                DRV_G3ADP_MAC_ConfigGet
                0x000000000103e048                DRV_G3ADP_MAC_RxFilterHashTableEntrySet
                0x000000000103e04c                DRV_G3ADP_MAC_PowerMode
                0x000000000103e050                DRV_G3ADP_MAC_RegisterStatisticsGet
                0x000000000103e058                DRV_G3ADP_MAC_EventPendingGet
                0x000000000103e068                DRV_G3ADP_MAC_Initialize
                0x000000000103e0f4                DRV_G3ADP_MAC_Process
                0x000000000103e15c                DRV_G3ADP_MAC_ParametersGet
                0x000000000103e31c                DRV_G3ADP_MAC_Open
                0x000000000103e348                DRV_G3ADP_MAC_Close
                0x000000000103e364                DRV_G3ADP_MAC_StatisticsGet
                0x000000000103e3a4                DRV_G3ADP_MAC_EventMaskSet
                0x000000000103e3c4                DRV_G3ADP_MAC_EventAcknowledge
                0x000000000103e3e8                DRV_G3ADP_MAC_Deinitialize
                0x000000000103e418                DRV_G3ADP_MAC_Tasks
                0x000000000103e450                DRV_G3ADP_MAC_LinkCheck
                0x000000000103e484                DRV_G3ADP_MAC_PacketTx
                0x000000000103e508                DRV_G3ADP_MAC_PacketRx

.text%150       0x000000000103e634      0x5dc
 .text          0x000000000103e634      0x5dc build/default/production/_ext/977769160/pal_plc.o
                0x000000000103e864                PAL_PLC_Initialize
                0x000000000103e87c                PAL_PLC_HandleGet
                0x000000000103e890                PAL_PLC_Status
                0x000000000103e8a4                PAL_PLC_Deinitialize
                0x000000000103e8ac                PAL_PLC_TxRequest
                0x000000000103e8e0                PAL_PLC_Reset
                0x000000000103e920                PAL_PLC_GetPhyTime
                0x000000000103e93c                PAL_PLC_GetMacRtPib
                0x000000000103e95c                PAL_PLC_SetMacRtPib
                0x000000000103ebf0                PAL_PLC_SetCoordinator

.text%151       0x000000000103ec10      0x588
 .text          0x000000000103ec10      0x588 ../src/config/default/stack/g3/mac/mac_rf/g3_lib_mac_rf.a(MacRfSublayer.o)
                0x000000000103ec10                MAC_RF_DataRequest
                0x000000000103ecc0                MAC_RF_ResetRequest
                0x000000000103ecf4                MAC_RF_ScanRequest
                0x000000000103ed7c                MAC_RF_StartRequest
                0x000000000103edc0                MacLowTxConfirmRF
                0x000000000103ee74                MacLowRxIndicationRF
                0x000000000103ef94                MacLowMacSnifferIndicationRF
                0x000000000103f00c                MacLowCommStatusIndicationRF
                0x000000000103f01c                MAC_RF_Init
                0x000000000103f058                MAC_RF_Tasks

.text%152       0x000000000103f198      0x570
 .text          0x000000000103f198      0x570 build/default/production/_ext/1360937237/app_udp_responder.o
                0x000000000103f198                _APP_UDP_RESPONDER_UdpRxCallback
                0x000000000103f660                APP_UDP_RESPONDER_Initialize
                0x000000000103f684                APP_UDP_RESPONDER_Tasks

.rodata.str1.4%153
                0x000000000103f708      0x55c
 .rodata.str1.4
                0x000000000103f708      0x55c build/default/production/_ext/1033058136/tcpip_manager.o

.text%154       0x000000000103fc64      0x548
 .text          0x000000000103fc64      0x548 ../src/config/default/stack/g3/mac/mac_plc/g3_lib_mac_plc.a(MacSublayer.o)
                0x000000000103fc64                MAC_PLC_DataRequest
                0x000000000103fd1c                MAC_PLC_ResetRequest
                0x000000000103fd50                MAC_PLC_ScanRequest
                0x000000000103fdd4                MAC_PLC_StartRequest
                0x000000000103fe30                MacLowTxConfirm
                0x000000000103feb4                MacLowRxIndication
                0x000000000103ffc0                MacLowMacSnifferIndication
                0x0000000001040074                MacLowCommStatusIndication
                0x0000000001040084                MAC_PLC_Init
                0x00000000010400d4                MAC_PLC_Tasks

.text%155       0x00000000010401ac      0x528
 .text          0x00000000010401ac      0x528 ../src/config/default/driver/device_support/pic32cx_bz2_device_support.a(info_block.o)
                0x00000000010401ac                _dump_IB
                0x00000000010401ae                _CalculateCRC16CCITT
                0x00000000010401f2                IB_FW_CRC_Proc
                0x0000000001040224                IB_BT_BB_REG_proc
                0x000000000104028c                IB_ZB_BB_REG_proc
                0x0000000001040324                IB_VERSION_proc
                0x000000000104032e                IB_USE_FLASH_proc
                0x0000000001040348                IB_SearchNextValidBlock
                0x00000000010403de                IB_LoadData
                0x000000000104047c                IB_Load
                0x00000000010404e8                InformationBlockLoad
                0x0000000001040514                IB_ReadData
                0x00000000010405bc                IB_Read_ID
                0x000000000104061e                IB_GetBdAddr
                0x0000000001040630                IB_GetMACAddr
                0x0000000001040642                IB_GetRssiOffset
                0x0000000001040654                IB_GetBatVoltage3v0Sar
                0x0000000001040672                IB_GetBatVoltage2v2Sar
                0x0000000001040690                IB_GetAntennaGain
                0x00000000010406b0                IB_GetFlashEnable
                0x00000000010406bc                IB_SetFlashEnable
                0x00000000010406c8                IB_GetFlashPageAddr

.text.__fmt_fp%156
                0x00000000010406d8      0x4c0
 .text.__fmt_fp
                0x00000000010406d8      0x4c0 c:/program files/microchip/xc32/v4.60/bin/bin/../../lib/gcc/pic32c/8.3.1/../../../../pic32c/lib/thumb/v7e-m+fp/hard\libc-musl.a(__fmt_fp.o)
                0x00000000010406d8                __fmt_f_needed
                0x00000000010406d8                __fmt_fp

.text.__fmt_a%157
                0x0000000001040b98      0x4b8
 .text.__fmt_a  0x0000000001040b98      0x4b8 c:/program files/microchip/xc32/v4.60/bin/bin/../../lib/gcc/pic32c/8.3.1/../../../../pic32c/lib/thumb/v7e-m+fp/hard\libc-musl.a(__fmt_a.o)
                0x0000000001040b98                __fmt_a_needed
                0x0000000001040b98                __fmt_a

.text.pow%158   0x0000000001041050      0x48c
 .text.pow      0x0000000001041050      0x48c c:/program files/microchip/xc32/v4.60/bin/bin/../../lib/gcc/pic32c/8.3.1/../../../../pic32c/lib/thumb/v7e-m+fp/hard\libm-fast-emfloat.a(pow.o)
                0x0000000001041050                pow

.text%159       0x00000000010414dc      0x45c
 .text          0x00000000010414dc      0x45c build/default/production/_ext/1664057780/misc.o
                0x00000000010414dc                rotlFixed
                0x00000000010414e4                rotrFixed
                0x00000000010414e8                ByteReverseWord32
                0x00000000010414ec                ByteReverseWords
                0x0000000001041508                rotlFixed64
                0x000000000104154c                rotrFixed64
                0x0000000001041590                ByteReverseWord64
                0x0000000001041598                ByteReverseWords64
                0x00000000010415c4                XorWordsOut
                0x00000000010415f4                xorbufout
                0x0000000001041674                XorWords
                0x000000000104169c                xorbuf
                0x0000000001041714                ForceZero
                0x0000000001041728                ConstantCompare
                0x0000000001041754                min
                0x000000000104175c                max
                0x0000000001041764                c32to24
                0x0000000001041770                c16toa
                0x0000000001041778                c32toa
                0x0000000001041780                c24to32
                0x0000000001041798                ato24
                0x000000000104179c                ato16
                0x00000000010417a4                ato32
                0x00000000010417ac                ato32le
                0x00000000010417b4                btoi
                0x00000000010417b8                HexCharToByte
                0x00000000010417e8                ByteToHex
                0x00000000010417f8                ByteToHexStr
                0x0000000001041818                CharIsWhiteSpace
                0x000000000104183c                ctMaskGT
                0x0000000001041848                ctMaskGTE
                0x0000000001041854                ctMaskIntGTE
                0x000000000104185c                ctMaskLT
                0x0000000001041868                ctMaskLTE
                0x0000000001041874                ctMaskEq
                0x0000000001041888                ctMask16GT
                0x0000000001041894                ctMask16GTE
                0x00000000010418a0                ctMask16LT
                0x00000000010418ac                ctMask16LTE
                0x00000000010418b8                ctMask16Eq
                0x00000000010418cc                ctMaskNotEq
                0x00000000010418e4                ctMaskSel
                0x00000000010418ec                ctMaskSelInt
                0x00000000010418f8                ctMaskSelWord32
                0x0000000001041904                ctSetLTE
                0x000000000104190c                ctMaskCopy
                0x0000000001041930                MakeWordFromHash

.text%160       0x0000000001041938      0x454
 .text          0x0000000001041938      0x454 build/default/production/_ext/1716827871/cmac.o
                0x0000000001041938                ShiftAndXorRb
                0x0000000001041970                wc_InitCmac_ex
                0x0000000001041a5c                wc_InitCmac
                0x0000000001041a78                wc_CmacUpdate
                0x0000000001041b34                wc_CmacFree
                0x0000000001041b54                wc_CmacFinalNoFree
                0x0000000001041bf8                wc_CmacFinal
                0x0000000001041c14                wc_AesCmacGenerate_ex
                0x0000000001041cac                wc_AesCmacGenerate
                0x0000000001041ce8                wc_AesCmacVerify_ex
                0x0000000001041d4c                wc_AesCmacVerify

.text%161       0x0000000001041d8c      0x444
 .text          0x0000000001041d8c      0x444 build/default/production/_ext/1014741959/drv_plc_hal.o
                0x0000000001041d8c                DRV_PLC_HAL_Init
                0x0000000001041dac                DRV_PLC_HAL_Setup
                0x0000000001041e18                DRV_PLC_HAL_SetTxEnable
                0x0000000001041e48                DRV_PLC_HAL_Delay
                0x0000000001041e78                DRV_PLC_HAL_Reset
                0x0000000001041f04                DRV_PLC_HAL_EnableInterrupts
                0x0000000001041f28                DRV_PLC_HAL_GetPinLevel
                0x0000000001041f48                DRV_PLC_HAL_SendBootCmd
                0x000000000104202c                DRV_PLC_HAL_SendWrRdCmd

.text.__intscan%162
                0x00000000010421d0      0x3f4
 .text.__intscan
                0x00000000010421d0      0x3f4 c:/program files/microchip/xc32/v4.60/bin/bin/../../lib/gcc/pic32c/8.3.1/../../../../pic32c/lib/thumb/v7e-m+fp/hard\libc-musl.a(intscan.o)
                0x00000000010421d0                __intscan

.text%163       0x00000000010425c8      0x3c0
 .text          0x00000000010425c8      0x3c0 ../src/config/default/stack/g3/adaptation/g3_lib_loadng.a(ProtoLoadNg_RouteCost_CompositeMetric.o)
                0x00000000010425c8                ProtoLoadNg_RouteCost_GetLinkCostUnidirectional_CompositeMetric
                0x0000000001042838                ProtoLoadNg_RouteCost_GetLinkCost_CompositeMetric
                0x0000000001042984                ProtoLoadNg_RouteCost_WeakLinkAdjust_CompositeMetric

.text%164       0x0000000001042988      0x3b4
 .text          0x0000000001042988      0x3b4 build/default/production/_ext/1014741959/drv_plc_boot.o
                0x0000000001042adc                DRV_PLC_BOOT_Start
                0x0000000001042b14                DRV_PLC_BOOT_Status
                0x0000000001042b20                DRV_PLC_BOOT_Tasks
                0x0000000001042cd8                DRV_PLC_BOOT_Restart

.text%165       0x0000000001042d3c      0x398
 .text          0x0000000001042d3c      0x398 build/default/production/_ext/1726652707/MCHP_Crypto_Aead_Cipher.o
                0x0000000001042d3c                Crypto_Aead_AesCcm_Init
                0x0000000001042d90                Crypto_Aead_AesCcm_Cipher
                0x0000000001042e24                Crypto_Aead_AesEax_Init
                0x0000000001042eb4                Crypto_Aead_AesEax_Cipher
                0x0000000001042f1c                Crypto_Aead_AesEax_Final
                0x0000000001042f60                Crypto_Aead_AesEax_AddAadData
                0x0000000001042f90                Crypto_Aead_AesEax_EncryptAuthDirect
                0x0000000001043034                Crypto_Aead_AesEax_DecryptAuthDirect

.text%166       0x00000000010430d4      0x398
 .text          0x00000000010430d4      0x398 build/default/production/_ext/1865161661/plib_dmac.o
                0x00000000010430d4                DMAC_Initialize
                0x0000000001043148                DMAC_ChannelTransfer
                0x00000000010431fc                DMAC_ChannelIsBusy
                0x0000000001043220                DMAC_ChannelTransferStatusGet
                0x000000000104323c                DMAC_ChannelDisable
                0x0000000001043264                DMAC_ChannelGetTransferredCount
                0x000000000104327c                DMAC_ChannelCallbackRegister
                0x000000000104328c                DMAC_ChannelSettingsGet
                0x0000000001043298                DMAC_ChannelSettingsSet
                0x00000000010432c0                DMAC_ChannelSuspend
                0x00000000010432dc                DMAC_ChannelResume
                0x00000000010432f8                DMAC_CRCDisable
                0x0000000001043304                DMAC_ChannelCRCSetup
                0x0000000001043344                DMAC_CRCRead
                0x0000000001043350                DMAC_CRCCalculate
                0x0000000001043444                DMAC_0_3_InterruptHandler

.text%167       0x000000000104346c      0x374
 .text          0x000000000104346c      0x374 build/default/production/_ext/1033058136/tcpip_heap_internal.o
                0x00000000010436fc                TCPIP_HEAP_CreateInternal

.text%168       0x00000000010437e0      0x354
 .text          0x00000000010437e0      0x354 build/default/production/_ext/1632721610/mac_common.o
                0x00000000010437e0                MAC_COMMON_Init
                0x000000000104382c                MAC_COMMON_Reset
                0x0000000001043850                MAC_COMMON_GetRequestSync
                0x000000000104391c                MAC_COMMON_SetRequestSync
                0x0000000001043a7c                MAC_COMMON_GetMsCounter
                0x0000000001043b00                MAC_COMMON_TimeIsPast
                0x0000000001043b14                MAC_COMMON_GetSecondsCounter
                0x0000000001043b20                MAC_COMMON_TimeIsPastSeconds

.rodata.str1.4%169
                0x0000000001043b34      0x34c
 .rodata.str1.4
                0x0000000001043b34      0x34c build/default/production/_ext/1360937237/app_udp_responder.o

.text%170       0x0000000001043e80      0x334
 .text          0x0000000001043e80      0x334 build/default/production/_ext/2064362748/srv_pcoup.o
                0x0000000001043e80                SRV_PCOUP_Get_Config
                0x0000000001043e90                SRV_PCOUP_Set_Config
                0x00000000010441a4                SRV_PCOUP_Get_Default_Branch
                0x00000000010441a8                SRV_PCOUP_Get_Phy_Band

.text.__printf_core%171
                0x00000000010441b4      0x308
 .text.__printf_core
                0x00000000010441b4      0x308 c:/program files/microchip/xc32/v4.60/bin/bin/../../lib/gcc/pic32c/8.3.1/../../../../pic32c/lib/thumb/v7e-m+fp/hard\libc-musl.a(__printf_core.o)
                0x00000000010441b4                __printf_core

.text%172       0x00000000010444bc      0x2f8
 .text          0x00000000010444bc      0x2f8 ../src/config/default/driver/pds/pds.a(D_Nv.o)
                0x00000000010444bc                D_Nv_Init
                0x00000000010444f8                D_Nv_SetSystemIntegrityCheckFunction
                0x0000000001044504                D_Nv_Read
                0x0000000001044570                D_Nv_Write
                0x0000000001044640                D_Nv_EraseSector
                0x0000000001044694                D_Nv_IsEmpty
                0x0000000001044730                D_Nv_IsEqual

.text.set_trx_state%173
                0x00000000010447b4      0x2c8
 .text.set_trx_state
                0x00000000010447b4      0x2c8 ../src/config/default/driver/lib/lib-ieee802154_phy_pic32cxbz-v1.2.0.a(phy.o)
                0x00000000010447b4                set_trx_state

.text%174       0x0000000001044a7c      0x2bc
 .text          0x0000000001044a7c      0x2bc c:/program files/microchip/xc32/v4.60/bin/bin/../../lib/gcc/pic32c/8.3.1/thumb/v7e-m+fp/hard\libgcc.a(_udivmoddi4.o)
                0x0000000001044a7c                __udivmoddi4

.text%175       0x0000000001044d38      0x2a8
 .text          0x0000000001044d38      0x2a8 build/default/production/_ext/60176403/plib_nvm.o
                0x0000000001044d38                NVM_CallbackRegister
                0x0000000001044d44                NVM_InterruptHandler
                0x0000000001044d58                NVM_Initialize
                0x0000000001044d9c                NVM_Read
                0x0000000001044dac                NVM_WordWrite
                0x0000000001044df0                NVM_QuadWordWrite
                0x0000000001044e44                NVM_RowWrite
                0x0000000001044e8c                NVM_PageErase
                0x0000000001044ed0                NVM_ErrorGet
                0x0000000001044ee0                NVM_IsBusy
                0x0000000001044ef0                NVM_ProgramFlashWriteProtect
                0x0000000001044f40                NVM_ProgramFlashWriteProtectLock
                0x0000000001044f78                NVM_BootFlashWriteProtectUnlock
                0x0000000001044fac                NVM_BootFlashWriteProtectLock

.text%176       0x0000000001044fe0      0x2a0
 .text          0x0000000001044fe0      0x2a0 build/default/production/_ext/1033058136/tcpip_packet.o
                0x0000000001044fe0                TCPIP_PKT_Initialize
                0x0000000001045010                TCPIP_PKT_Deinitialize
                0x000000000104501c                _TCPIP_PKT_PacketAcknowledge
                0x0000000001045050                TCPIP_PKT_SegmentAppend
                0x0000000001045068                TCPIP_PKT_PacketMACFormat
                0x000000000104509c                TCPIP_PKT_DataSegmentGet
                0x000000000104510c                TCPIP_PKT_PayloadLen
                0x0000000001045124                TCPIP_PKT_GapDcptOffset
                0x000000000104512c                TCPIP_PKT_GapDcptSize
                0x0000000001045130                _TCPIP_PKT_PacketAlloc
                0x00000000010451b4                _TCPIP_PKT_SocketAlloc
                0x00000000010451dc                _TCPIP_PKT_PacketFree
                0x000000000104521c                _TCPIP_PKT_SegmentAlloc
                0x0000000001045268                _TCPIP_PKT_SegmentFree

.text.PHY_PibSet%177
                0x0000000001045280      0x280
 .text.PHY_PibSet
                0x0000000001045280      0x280 ../src/config/default/driver/lib/lib-ieee802154_phy_pic32cxbz-v1.2.0.a(phy_pib.o)
                0x0000000001045280                PHY_PibSet

.text%178       0x0000000001045500      0x25c
 .text          0x0000000001045500      0x25c build/default/production/_ext/2065812886/srv_queue.o
                0x0000000001045500                SRV_QUEUE_Init
                0x0000000001045510                SRV_QUEUE_Append
                0x00000000010455b0                SRV_QUEUE_Append_With_Priority
                0x00000000010455c0                SRV_QUEUE_Remove_Element
                0x0000000001045640                SRV_QUEUE_Read_Element
                0x0000000001045674                SRV_QUEUE_Insert_Before
                0x000000000104569c                SRV_QUEUE_Insert_After
                0x00000000010456c4                SRV_QUEUE_Read_Or_Remove
                0x0000000001045708                SRV_QUEUE_Flush
                0x0000000001045758                SRV_QUEUE_Set_Capacity

.text%179       0x000000000104575c      0x254
 .text          0x000000000104575c      0x254 build/default/production/_ext/1665200909/heap_4.o
                0x000000000104575c                pvPortMalloc
                0x0000000001045854                vPortFree
                0x00000000010458d8                xPortGetFreeHeapSize
                0x00000000010458e4                xPortGetMinimumEverFreeHeapSize
                0x00000000010458f0                xPortResetHeapMinimumEverFreeHeapSize
                0x00000000010458fc                vPortInitialiseBlocks
                0x0000000001045900                pvPortCalloc
                0x0000000001045928                vPortGetHeapStats
                0x000000000104599c                vPortHeapResetState

.text%180       0x00000000010459b0      0x250
 .text          0x00000000010459b0      0x250 build/default/production/_ext/745501718/pal.o
                0x0000000001045a00                PAL_Init
                0x0000000001045a3c                PAL_TimerStart
                0x0000000001045ac8                PAL_TimerStop
                0x0000000001045aec                PAL_TimerGetId
                0x0000000001045b08                PAL_TimerIsRunning
                0x0000000001045b28                PAL_TimerDelay
                0x0000000001045b5c                PAL_GetCurrentTime
                0x0000000001045b6c                PAL_GetRandomNumber
                0x0000000001045bb8                PAL_GetTrxAntennaGain
                0x0000000001045be4                PAL_GetTrxTransmitPowerMax
                0x0000000001045be8                PAL_GetDeviceType
                0x0000000001045bec                PAL_HpaSetCps

.text%181       0x0000000001045c00      0x24c
 .text          0x0000000001045c00      0x24c build/default/production/_ext/1726652707/MCHP_Crypto_Aead_WolfCryptWrapper.o
                0x0000000001045c00                Crypto_Aead_Wc_AesCcm_Init
                0x0000000001045c2c                Crypto_Aead_Wc_AesCcm_Cipher
                0x0000000001045cc0                Crypto_Aead_Wc_AesEax_Init
                0x0000000001045d00                Crypto_Aead_Wc_AesEax_Cipher
                0x0000000001045d58                Crypto_Aead_Wc_AesEax_Final
                0x0000000001045da0                Crypto_Aead_Wc_AesEax_AddAadData
                0x0000000001045dc0                Crypto_Aead_Wc_AesEax_EncDecAuthDirect

.text%182       0x0000000001045e4c      0x244
 .text          0x0000000001045e4c      0x244 build/default/production/_ext/1832805299/sys_console.o
                0x0000000001045e4c                SYS_CONSOLE_Initialize
                0x0000000001045e90                SYS_CONSOLE_Status
                0x0000000001045ec4                SYS_CONSOLE_HandleGet
                0x0000000001045ed0                SYS_CONSOLE_DeviceGet
                0x0000000001045ee4                SYS_CONSOLE_Tasks
                0x0000000001045f00                SYS_CONSOLE_Read
                0x0000000001045f28                SYS_CONSOLE_ReadFreeBufferCountGet
                0x0000000001045f48                SYS_CONSOLE_ReadCountGet
                0x0000000001045f68                SYS_CONSOLE_Write
                0x0000000001045f90                SYS_CONSOLE_WriteFreeBufferCountGet
                0x0000000001045fb0                SYS_CONSOLE_WriteCountGet
                0x0000000001045fd0                SYS_CONSOLE_Print
                0x0000000001046044                SYS_CONSOLE_Message
                0x0000000001046074                SYS_CONSOLE_Flush

.text.__aeabi_dadd%183
                0x0000000001046090      0x23e
 .text.__aeabi_dadd
                0x0000000001046090      0x23e c:/program files/microchip/xc32/v4.60/bin/bin/../../lib/gcc/pic32c/8.3.1/../../../../pic32c/lib/thumb/v7e-m+fp/hard\libm-fast-emfloat.a(__aeabi_dadd.o)
                0x0000000001046090                __aeabi_dadd

.rodata%184     0x00000000010462d0      0x23c
 .rodata        0x00000000010462d0      0x23c build/default/production/_ext/2064362748/srv_pcoup.o

.rodata%185     0x000000000104650c      0x230
 .rodata        0x000000000104650c      0x230 build/default/production/_ext/1716827871/aes.o

.text.exp%186   0x0000000001046740      0x228
 .text.exp      0x0000000001046740      0x228 c:/program files/microchip/xc32/v4.60/bin/bin/../../lib/gcc/pic32c/8.3.1/../../../../pic32c/lib/thumb/v7e-m+fp/hard\libm-fast-emfloat.a(exp.o)
                0x0000000001046740                exp

.text.handle_received_frame_irq%187
                0x0000000001046968      0x218
 .text.handle_received_frame_irq
                0x0000000001046968      0x218 ../src/config/default/driver/lib/lib-ieee802154_phy_pic32cxbz-v1.2.0.a(phy_rx.o)
                0x0000000001046968                handle_received_frame_irq

.text.__aeabi_ddiv%188
                0x0000000001046b80      0x216
 .text.__aeabi_ddiv
                0x0000000001046b80      0x216 c:/program files/microchip/xc32/v4.60/bin/bin/../../lib/gcc/pic32c/8.3.1/../../../../pic32c/lib/thumb/v7e-m+fp/hard\libm-fast-emfloat.a(__aeabi_ddiv.o)
                0x0000000001046b80                __aeabi_ddiv

.text%189       0x0000000001046d98      0x214
 .text          0x0000000001046d98      0x214 build/default/production/_ext/1534551086/routing_wrapper.o
                0x0000000001046d98                ROUTING_WRP_Reset
                0x0000000001046df8                ROUTING_WRP_IsDisabled
                0x0000000001046e18                ROUTING_WRP_IsAutoRReqDisabled
                0x0000000001046e3c                ROUTING_WRP_IsDefaultCoordRouteEnabled
                0x0000000001046e5c                ROUTING_WRP_GetRRepWait
                0x0000000001046e74                ROUTING_WRP_GetDiscoverRouteGlobalSeqNo
                0x0000000001046e90                ROUTING_WRP_SetDiscoverRouteGlobalSeqNo
                0x0000000001046eb4                ROUTING_WRP_GetMib
                0x0000000001046eb8                ROUTING_WRP_SetMib
                0x0000000001046ebc                ROUTING_WRP_DiscoverPath
                0x0000000001046ef0                ROUTING_WRP_NotifyRouteError
                0x0000000001046ef4                ROUTING_WRP_DiscoverRoute
                0x0000000001046f3c                ROUTING_WRP_IsInDestinationAddressSet
                0x0000000001046f40                ROUTING_WRP_ProcessMessage
                0x0000000001046f5c                ROUTING_WRP_AddRoute
                0x0000000001046f60                ROUTING_WRP_RefreshRoute
                0x0000000001046f64                ROUTING_WRP_AddCircularRoute
                0x0000000001046f68                ROUTING_WRP_DeleteRoute
                0x0000000001046f6c                ROUTING_WRP_RouteExists
                0x0000000001046f70                ROUTING_WRP_GetRouteAndMediaType
                0x0000000001046f74                ROUTING_WRP_GetRouteEntry
                0x0000000001046f9c                ROUTING_WRP_AddBlacklistOnMedium
                0x0000000001046fa0                ROUTING_WRP_RemoveBlacklistOnMedium
                0x0000000001046fa4                ROUTING_WRP_IsRouterTo
                0x0000000001046fa8                ROUTING_WRP_Tasks

.text%190       0x0000000001046fac      0x210
 .text          0x0000000001046fac      0x210 build/default/production/_ext/410113559/drv_g3_macrt.o
                0x0000000001046fac                DRV_G3_MACRT_Initialize
                0x000000000104702c                DRV_G3_MACRT_Status
                0x0000000001047040                DRV_G3_MACRT_Open
                0x00000000010470a0                DRV_G3_MACRT_Close
                0x00000000010470b4                DRV_G3_MACRT_InitCallbackRegister
                0x00000000010470c0                DRV_G3_MACRT_TxCfmCallbackRegister
                0x00000000010470cc                DRV_G3_MACRT_DataIndCallbackRegister
                0x00000000010470d8                DRV_G3_MACRT_RxParamsIndCallbackRegister
                0x00000000010470e4                DRV_G3_MACRT_MacSnifferCallbackRegister
                0x00000000010470f4                DRV_G3_MACRT_CommStatusCallbackRegister
                0x0000000001047100                DRV_G3_MACRT_PhySnifferCallbackRegister
                0x0000000001047110                DRV_G3_MACRT_ExceptionCallbackRegister
                0x000000000104711c                DRV_G3_MACRT_Tasks
                0x00000000010471a8                DRV_G3_MACRT_EnableTX

.text%191       0x00000000010471bc      0x208
 .text          0x00000000010471bc      0x208 build/default/production/_ext/17022449/plib_sercom2_spi_master.o
                0x00000000010472d0                SERCOM2_SPI_Initialize
                0x00000000010472f8                SERCOM2_SPI_TransferSetup
                0x000000000104737c                SERCOM2_SPI_IsTransmitterBusy
                0x0000000001047390                SERCOM2_SPI_WriteRead
                0x00000000010473a0                SERCOM2_SPI_Write
                0x00000000010473b0                SERCOM2_SPI_Read

.rodata%192     0x00000000010473c4      0x200
 .rodata        0x00000000010473c4      0x200 build/default/production/_ext/1570337448/mac_wrapper.o

.text%193       0x00000000010475c4      0x1fc
 .text          0x00000000010475c4      0x1fc build/default/production/_ext/246609638/port.o
                0x0000000001047620                pxPortInitialiseStack
                0x000000000104764c                vPortSVCHandler
                0x000000000104766c                vPortEndScheduler
                0x0000000001047670                vPortEnterCritical
                0x0000000001047690                vPortExitCritical
                0x00000000010476a4                xPortPendSVHandler
                0x0000000001047704                xPortSysTickHandler
                0x0000000001047730                vPortSetupTimerInterrupt
                0x0000000001047758                xPortStartScheduler

.text%194       0x00000000010477c0      0x1f4
 .text          0x00000000010477c0      0x1f4 build/default/production/_ext/1360937237/app_matrix_led.o
                0x00000000010477c0                APP_MATRIX_LED_RefreshPanel
                0x0000000001047884                _APP_MATRIX_LED_TimeExpired
                0x00000000010478b4                APP_MATRIX_LED_SetPanelLine
                0x00000000010478b8                APP_MATRIX_LED_InitMatrixRed
                0x00000000010478dc                APP_MATRIX_LED_InitializePanel
                0x0000000001047940                APP_MATRIX_LED_Initialize
                0x0000000001047954                APP_MATRIX_LED_Tasks

.text.log%195   0x00000000010479b8      0x1f0
 .text.log      0x00000000010479b8      0x1f0 c:/program files/microchip/xc32/v4.60/bin/bin/../../lib/gcc/pic32c/8.3.1/../../../../pic32c/lib/thumb/v7e-m+fp/hard\libm-fast-emfloat.a(log.o)
                0x00000000010479b8                log

.text%196       0x0000000001047ba8      0x1e8
 .text          0x0000000001047ba8      0x1e8 build/default/production/_ext/1171490990/initialization.o
                0x0000000001047ba8                _on_reset
                0x0000000001047bc8                TCPIP_STACK_Init
                0x0000000001047bf0                SYS_Initialize

.text%197       0x0000000001047d90      0x1e4
 .text          0x0000000001047d90      0x1e4 build/default/production/_ext/1360937237/app_tcpip_management.o
                0x0000000001047e84                APP_TCPIP_MANAGEMENT_Initialize
                0x0000000001047ea0                APP_TCPIP_MANAGEMENT_Tasks
                0x0000000001047f1c                APP_TCPIP_MANAGEMENT_SetConformanceConfig
                0x0000000001047f38                APP_TCPIP_MANAGEMENT_NetworkJoined
                0x0000000001047f4c                APP_TCPIP_MANAGEMENT_NetworkDisconnected

.text.trx_config%198
                0x0000000001047f74      0x1d0
 .text.trx_config
                0x0000000001047f74      0x1d0 ../src/config/default/driver/lib/lib-ieee802154_phy_pic32cxbz-v1.2.0.a(phy_init.o)
                0x0000000001047f74                trx_config

.text%199       0x0000000001048144      0x1cc
 .text          0x0000000001048144      0x1cc build/default/production/_ext/1360937237/app_storage_wbz451h.o
                0x0000000001048144                APP_STORAGE_PDSWriteCompleteCallback
                0x0000000001048158                APP_STORAGE_WBZ451H_Initialize
                0x00000000010481ec                APP_STORAGE_WBZ451H_Tasks
                0x0000000001048200                APP_STORAGE_GetExtendedAddress
                0x0000000001048240                APP_STORAGE_GetNonVolatileData
                0x0000000001048298                APP_STORAGE_UpdateNonVolatileData

.text.PHY_ConfigTxPwr%200
                0x0000000001048310      0x1c4
 .text.PHY_ConfigTxPwr
                0x0000000001048310      0x1c4 ../src/config/default/driver/lib/lib-ieee802154_phy_pic32cxbz-v1.2.0.a(phy_helper.o)
                0x0000000001048310                PHY_ConfigTxPwr

.text%201       0x00000000010484d4      0x1ac
 .text          0x00000000010484d4      0x1ac build/default/production/_ext/1726652707/MCHP_Crypto_Sym_Cipher.o
                0x00000000010484d4                Crypto_Sym_Aes_Init
                0x0000000001048540                Crypto_Sym_Aes_Cipher
                0x00000000010485a8                Crypto_Sym_Aes_EncryptDirect
                0x000000000104860c                Crypto_Sym_Aes_DecryptDirect

.text%202       0x0000000001048680      0x1ac
 .text          0x0000000001048680      0x1ac build/default/production/_ext/1171490990/tasks.o
                0x0000000001048680                _TCPIP_STACK_Task
                0x000000000104870c                SYS_Tasks

.text%203       0x000000000104882c      0x1a8
 .text          0x000000000104882c      0x1a8 build/default/production/_ext/1534551086/lbp_encode_decode.o
                0x000000000104882c                LBP_EncodeKickFromLBDRequest
                0x0000000001048854                LBP_EncodeKickToLBD
                0x000000000104887c                LBP_EncodeJoiningRequest
                0x00000000010488c8                LBP_EncodeChallengeRequest
                0x0000000001048914                LBP_EncodeAcceptedRequest
                0x0000000001048960                LBP_EncodeDecline
                0x00000000010489a4                LBP_DecodeMessage

.text.apply_channel_page_configuration%204
                0x00000000010489d4      0x1a4
 .text.apply_channel_page_configuration
                0x00000000010489d4      0x1a4 ../src/config/default/driver/lib/lib-ieee802154_phy_pic32cxbz-v1.2.0.a(phy_pib.o)

.text%205       0x0000000001048b78      0x190
 .text          0x0000000001048b78      0x190 ../src/config/default/stack/g3/adaptation/g3_lib_adp.a(AdpData.o)
                0x0000000001048b9c                ADP_DataRequest
                0x0000000001048c44                ADP_NoIPDataRequest
                0x0000000001048ce4                DataIndication_Notify

.text%206       0x0000000001048d08      0x184
 .text          0x0000000001048d08      0x184 build/default/production/_ext/1832805299/sys_console_uart.o
                0x0000000001048d08                Console_UART_Flush
                0x0000000001048d0c                Console_UART_Status
                0x0000000001048d1c                Console_UART_Tasks
                0x0000000001048d20                Console_UART_Read
                0x0000000001048d5c                Console_UART_ReadCountGet
                0x0000000001048d90                Console_UART_ReadFreeBufferCountGet
                0x0000000001048dc4                Console_UART_Write
                0x0000000001048e00                Console_UART_WriteFreeBufferCountGet
                0x0000000001048e34                Console_UART_WriteCountGet
                0x0000000001048e68                Console_UART_Initialize

.rodata%207     0x0000000001048e8c      0x180
 .rodata        0x0000000001048e8c      0x180 build/default/production/_ext/1716827871/random.o
                0x0000000001048e8c                seedB_data
                0x0000000001048ebc                outputB_data
                0x0000000001048f3c                seedA_data
                0x0000000001048f6c                reseedSeedA_data
                0x0000000001048f8c                outputA_data

.text%208       0x000000000104900c      0x174
 .text          0x000000000104900c      0x174 build/default/production/_ext/1529399856/osal_freertos.o
                0x000000000104900c                OSAL_CRIT_Enter
                0x0000000001049024                OSAL_CRIT_Leave
                0x0000000001049034                OSAL_SEM_Create
                0x000000000104909c                OSAL_SEM_Delete
                0x00000000010490b0                OSAL_SEM_Pend
                0x00000000010490c4                OSAL_SEM_Post
                0x00000000010490e0                OSAL_SEM_PostISR
                0x0000000001049120                OSAL_SEM_GetCount
                0x0000000001049134                OSAL_MUTEX_Create
                0x0000000001049150                OSAL_MUTEX_Delete
                0x000000000104916c                OSAL_MUTEX_Lock
                0x0000000001049170                OSAL_MUTEX_Unlock
                0x0000000001049174                OSAL_Malloc
                0x0000000001049178                OSAL_Free
                0x000000000104917c                OSAL_Initialize

.text%209       0x0000000001049180      0x174
 .text          0x0000000001049180      0x174 ../src/config/default/stack/g3/adaptation/g3_lib_loadng.a(ProtoLoadNg_RouteCost_CapacityMetric.o)
                0x0000000001049180                ProtoLoadNg_RouteCost_GetLinkCostUnidirectional_CapacityMetric
                0x00000000010492a4                ProtoLoadNg_RouteCost_GetLinkCost_CapacityMetric
                0x00000000010492f0                ProtoLoadNg_RouteCost_WeakLinkAdjust_CapacityMetric

.rodata%210     0x00000000010492f4      0x170
 .rodata        0x00000000010492f4      0x170 build/default/production/_ext/1033058136/ipv6.o
                0x0000000001049310                gPolicyTable
                0x00000000010493d8                IPV6_FIXED_ADDR_UNSPECIFIED
                0x000000000104940c                IPV6_FIXED_ADDR_ALL_NODES_MULTICAST
                0x000000000104943c                IPV6_MULTICAST_MAC_ADDRESS
                0x0000000001049444                IPV6_SOLICITED_NODE_MULTICAST
                0x0000000001049454                IPV6_FIXED_ADDR_ALL_ROUTER_MULTICAST

.text.ZB_INT0_Handler%211
                0x0000000001049464      0x170
 .text.ZB_INT0_Handler
                0x0000000001049464      0x170 ../src/config/default/driver/lib/lib-ieee802154_phy_pic32cxbz-v1.2.0.a(phy_irq_handler.o)
                0x0000000001049464                ZB_INT0_Handler

.text%212       0x00000000010495d4      0x15c
 .text          0x00000000010495d4      0x15c build/default/production/_ext/1726652707/MCHP_Crypto_Sym_WolfcryptWrapper.o
                0x00000000010495d4                Crypto_Sym_Wc_Aes_Init
                0x0000000001049624                Crypto_Sym_Wc_Aes_Encrypt
                0x0000000001049654                Crypto_Sym_Wc_Aes_Decrypt
                0x0000000001049684                Crypto_Sym_Wc_Aes_EncryptDirect
                0x00000000010496d0                Crypto_Sym_Wc_Aes_DecryptDirect

.text.phyWriteFrameBuffer%213
                0x0000000001049730      0x154
 .text.phyWriteFrameBuffer
                0x0000000001049730      0x154 ../src/config/default/driver/lib/lib-ieee802154_phy_pic32cxbz-v1.2.0.a(phy_tx.o)

.text.phyWriteFrameBuffer%214
                0x0000000001049884      0x154
 .text.phyWriteFrameBuffer
                0x0000000001049884      0x154 ../src/config/default/driver/lib/lib-ieee802154_phy_pic32cxbz-v1.2.0.a(tfa.o)

.text%215       0x00000000010499d8      0x148
 .text          0x00000000010499d8      0x148 build/default/production/_ext/1033058136/helpers.o
                0x00000000010499d8                uitoa
                0x0000000001049a38                hexatob
                0x0000000001049a68                btohexa_high
                0x0000000001049a74                btohexa_low
                0x0000000001049a84                strncpy_m
                0x0000000001049ae8                stricmp

.text%216       0x0000000001049b20      0x148
 .text          0x0000000001049b20      0x148 build/default/production/_ext/2135967589/cipher_wrapper.o
                0x0000000001049b20                CIPHER_Wrapper_AesCmacDirect
                0x0000000001049b40                CIPHER_Wrapper_AesCcmSetkey
                0x0000000001049b60                CIPHER_Wrapper_AesCcmAuthDecrypt
                0x0000000001049b90                CIPHER_Wrapper_AesCcmEncryptAndTag
                0x0000000001049bc0                CIPHER_Wrapper_AesEaxEncrypt
                0x0000000001049c14                CIPHER_Wrapper_AesEaxDecrypt

.text%217       0x0000000001049c68      0x144
 .text          0x0000000001049c68      0x144 ../src/config/default/driver/device_support/pic32cx_bz2_device_support.a(rf.o)
                0x0000000001049c68                RF_Write_Reg
                0x0000000001049c98                RF_Read_RegWRet
                0x0000000001049cc4                RfWriteRegByRange
                0x0000000001049cfa                RfReadRegByRange
                0x0000000001049d18                read_bt_clkn_phase
                0x0000000001049d3c                Delay_us
                0x0000000001049d6e                Delay_ms

.text%218       0x0000000001049dac      0x138
 .text          0x0000000001049dac      0x138 build/default/production/_ext/60165520/plib_clk.o
                0x0000000001049dac                CLOCK_Initialize

.text%219       0x0000000001049ee4      0x134
 .text          0x0000000001049ee4      0x134 build/default/production/_ext/1726652707/MCHP_Crypto_Mac_Cipher.o
                0x0000000001049ee4                Crypto_Mac_AesCmac_Init
                0x0000000001049f38                Crypto_Mac_AesCmac_Cipher
                0x0000000001049f74                Crypto_Mac_AesCmac_Final
                0x0000000001049fb0                Crypto_Mac_AesCmac_Direct

.text.parseReceivedFrameHeader%220
                0x000000000104a018      0x134
 .text.parseReceivedFrameHeader
                0x000000000104a018      0x134 ../src/config/default/driver/lib/lib-ieee802154_phy_pic32cxbz-v1.2.0.a(phy_rx.o)

.text.PHY_PibGet%221
                0x000000000104a14c      0x130
 .text.PHY_PibGet
                0x000000000104a14c      0x130 ../src/config/default/driver/lib/lib-ieee802154_phy_pic32cxbz-v1.2.0.a(phy_pib.o)
                0x000000000104a14c                PHY_PibGet

.text.__aeabi_dmul%222
                0x000000000104a27c      0x130
 .text.__aeabi_dmul
                0x000000000104a27c      0x130 c:/program files/microchip/xc32/v4.60/bin/bin/../../lib/gcc/pic32c/8.3.1/../../../../pic32c/lib/thumb/v7e-m+fp/hard\libm-fast-emfloat.a(__aeabi_dmul.o)
                0x000000000104a27c                __aeabi_dmul

.text%223       0x000000000104a3ac      0x124
 .text          0x000000000104a3ac      0x124 build/default/production/_ext/1865468468/plib_nvic.o
                0x000000000104a3ac                NVIC_Initialize
                0x000000000104a428                NVIC_INT_Enable
                0x000000000104a430                NVIC_INT_Disable
                0x000000000104a444                NVIC_INT_Restore
                0x000000000104a458                NVIC_INT_SourceDisable
                0x000000000104a4b4                NVIC_INT_SourceRestore

.text.__fmt_x%224
                0x000000000104a4d0      0x124
 .text.__fmt_x  0x000000000104a4d0      0x124 c:/program files/microchip/xc32/v4.60/bin/bin/../../lib/gcc/pic32c/8.3.1/../../../../pic32c/lib/thumb/v7e-m+fp/hard\libc-musl.a(__fmt_x.o)
                0x000000000104a4d0                __fmt_x_needed
                0x000000000104a4d0                __fmt_x

.text.phyReadSramInline%225
                0x000000000104a5f4      0x122
 .text.phyReadSramInline
                0x000000000104a5f4      0x122 ../src/config/default/driver/lib/lib-ieee802154_phy_pic32cxbz-v1.2.0.a(phy_rx.o)

.text%226       0x000000000104a718      0x120
 .text          0x000000000104a718      0x120 build/default/production/_ext/829342655/plib_tc0.o
                0x000000000104a718                TC0_TimerInitialize
                0x000000000104a758                TC0_TimerStart
                0x000000000104a770                TC0_TimerStop
                0x000000000104a788                TC0_TimerFrequencyGet
                0x000000000104a790                TC0_TimerCommandSet
                0x000000000104a7a4                TC0_Timer16bitCounterGet
                0x000000000104a7c8                TC0_Timer16bitCounterSet
                0x000000000104a7d8                TC0_Timer16bitPeriodSet
                0x000000000104a7e8                TC0_Timer16bitPeriodGet
                0x000000000104a7f4                TC0_Timer16bitCompareSet
                0x000000000104a804                TC0_TimerCallbackRegister
                0x000000000104a810                TC0_TimerInterruptHandler

.text.phyReadFrameBuffer%227
                0x000000000104a838      0x11c
 .text.phyReadFrameBuffer
                0x000000000104a838      0x11c ../src/config/default/driver/lib/lib-ieee802154_phy_pic32cxbz-v1.2.0.a(phy_rx.o)

.text.send_frame%228
                0x000000000104a954      0x10c
 .text.send_frame
                0x000000000104a954      0x10c ../src/config/default/driver/lib/lib-ieee802154_phy_pic32cxbz-v1.2.0.a(phy_tx.o)
                0x000000000104a954                send_frame

.rodata%229     0x000000000104aa60      0x10a
 .rodata        0x000000000104aa60      0x10a c:/program files/microchip/xc32/v4.60/bin/bin/../../lib/gcc/pic32c/8.3.1/../../../../pic32c/lib/thumb/v7e-m+fp/hard\libc-musl.a(intscan.o)

.text%230       0x000000000104ab6c      0x104
 .text          0x000000000104ab6c      0x104 build/default/production/_ext/1374435801/bmm.o
                0x000000000104ab6c                bmm_buffer_init
                0x000000000104ac0c                bmm_buffer_alloc
                0x000000000104ac4c                bmm_buffer_free

.rodata%231     0x000000000104ac70      0x100
 .rodata        0x000000000104ac70      0x100 build/default/production/_ext/1716827871/sha256.o

.text.PHY_TaskHandler%232
                0x000000000104ad70       0xf4
 .text.PHY_TaskHandler
                0x000000000104ad70       0xf4 ../src/config/default/driver/lib/lib-ieee802154_phy_pic32cxbz-v1.2.0.a(phy.o)
                0x000000000104ad70                PHY_TaskHandler

.rodata.str1.4%233
                0x000000000104ae64       0xe8
 .rodata.str1.4
                0x000000000104ae64       0xe8 build/default/production/_ext/1360937237/app_storage_wbz451h.o

.text%234       0x000000000104af4c       0xe4
 .text          0x000000000104af4c       0xe4 build/default/production/_ext/874725666/qmm.o
                0x000000000104afc4                qmm_queue_init
                0x000000000104afd0                qmm_queue_append
                0x000000000104affc                qmm_queue_remove
                0x000000000104b004                qmm_queue_read
                0x000000000104b00c                qmm_queue_flush

.text%235       0x000000000104b030       0xdc
 .text          0x000000000104b030       0xdc build/default/production/_ext/1529399856/osal_freertos_extend.o
                0x000000000104b030                OSAL_QUEUE_Create
                0x000000000104b04c                OSAL_QUEUE_CreateSet
                0x000000000104b060                OSAL_QUEUE_AddToSet
                0x000000000104b078                OSAL_QUEUE_SelectFromSet
                0x000000000104b090                OSAL_QUEUE_Send
                0x000000000104b0a8                OSAL_QUEUE_SendISR
                0x000000000104b0e4                OSAL_QUEUE_Receive
                0x000000000104b0f8                OSAL_QUEUE_IsFullISR

.rodata%236     0x000000000104b10c       0xd8
 .rodata        0x000000000104b10c       0xd8 build/default/production/_ext/1171490990/initialization.o
                0x000000000104b10c                TCPIP_HOSTS_CONFIGURATION
                0x000000000104b144                TCPIP_STACK_MODULE_CONFIG_TBL
                0x000000000104b1cc                TCPIP_STACK_MODULE_CONFIG_TBL_SIZE
                0x000000000104b1d0                TCPIP_HOSTS_CONFIGURATION_SIZE
                0x000000000104b1d4                tcpipIPv6InitData
                0x000000000104b1dc                tcpipUDPInitData

.text%237       0x000000000104b1e4       0xd8
 .text          0x000000000104b1e4       0xd8 ../src/config/default/driver/device_support/pic32cx_bz2_device_support.a(info_block_plat.o)
                0x000000000104b1e4                IB_PMU_REG_proc
                0x000000000104b268                IB_RF_REG_proc
                0x000000000104b2a8                IB_GetFactoryCalTemp

.text%238       0x000000000104b2bc       0xd0
 .text          0x000000000104b2bc       0xd0 build/default/production/_ext/60167341/plib_eic.o
                0x000000000104b2bc                EIC_Initialize
                0x000000000104b300                EIC_InterruptEnable
                0x000000000104b310                EIC_InterruptDisable
                0x000000000104b320                EIC_CallbackRegister
                0x000000000104b340                EIC_InterruptHandler

.text.ARBITER_Handler%239
                0x000000000104b38c       0xd0
 .text.ARBITER_Handler
                0x000000000104b38c       0xd0 ../src/config/default/driver/lib/lib-ieee802154_phy_pic32cxbz-v1.2.0.a(phy_irq_handler.o)
                0x000000000104b38c                ARBITER_Handler

.text.floor%240
                0x000000000104b460       0xcc
 .text.floor    0x000000000104b460       0xcc c:/program files/microchip/xc32/v4.60/bin/bin/../../lib/gcc/pic32c/8.3.1/../../../../pic32c/lib/thumb/v7e-m+fp/hard\libm-fast-emfloat.a(floor.o)
                0x000000000104b460                floor

.text%241       0x0000000001004038       0xc8
 .text          0x0000000001004038       0xc8 build/default/production/_ext/1033058136/tcpip_notify.o
                0x0000000001004038                TCPIP_Notification_Initialize
                0x000000000100403c                TCPIP_Notification_Add
                0x0000000001004068                TCPIP_Notification_Remove
                0x0000000001004084                TCPIP_Notification_CbackRemove
                0x00000000010040d0                TCPIP_Notification_RemoveAll
                0x00000000010040ec                TCPIP_Notification_Deinitialize

.text.PHY_GetTrxConfig%242
                0x000000000104b52c       0xc8
 .text.PHY_GetTrxConfig
                0x000000000104b52c       0xc8 ../src/config/default/driver/lib/lib-ieee802154_phy_pic32cxbz-v1.2.0.a(phy_helper.o)
                0x000000000104b52c                PHY_GetTrxConfig

.text.PHY_Init%243
                0x000000000104b5f4       0xc0
 .text.PHY_Init
                0x000000000104b5f4       0xc0 ../src/config/default/driver/lib/lib-ieee802154_phy_pic32cxbz-v1.2.0.a(phy_init.o)
                0x000000000104b5f4                PHY_Init

.text.__SEGGER_RTL_float64_PolyEvalP%244
                0x000000000104b6b4       0xc0
 .text.__SEGGER_RTL_float64_PolyEvalP
                0x000000000104b6b4       0xc0 c:/program files/microchip/xc32/v4.60/bin/bin/../../lib/gcc/pic32c/8.3.1/../../../../pic32c/lib/thumb/v7e-m+fp/hard\libm-fast-emfloat.a(__SEGGER_RTL_float64_PolyEvalP.o)
                0x000000000104b6b4                __SEGGER_RTL_float64_PolyEvalP

.rodata.str1.4%245
                0x000000000104b774       0xbc
 .rodata.str1.4
                0x000000000104b774       0xbc build/default/production/_ext/1171490990/tasks.o

.text.write_all_tal_pib_to_trx%246
                0x000000000104b830       0xbc
 .text.write_all_tal_pib_to_trx
                0x000000000104b830       0xbc ../src/config/default/driver/lib/lib-ieee802154_phy_pic32cxbz-v1.2.0.a(phy_pib.o)
                0x000000000104b830                write_all_tal_pib_to_trx

.rodata.str1.4%247
                0x000000000104b8ec       0xb8
 .rodata.str1.4
                0x000000000104b8ec       0xb8 build/default/production/_ext/1360937237/app_tcpip_management.o

.text.zbArbitrationUsecase%248
                0x000000000104b9a4       0xb8
 .text.zbArbitrationUsecase
                0x000000000104b9a4       0xb8 ../src/config/default/driver/lib/lib-ieee802154_phy_pic32cxbz-v1.2.0.a(phy_irq_handler.o)

.text%249       0x000000000104ba5c       0xb4
 .text          0x000000000104ba5c       0xb4 build/default/production/_ext/1726652707/MCHP_Crypto_Mac_WolfCryptWrapper.o
                0x000000000104ba5c                Crypto_Mac_Wc_AesCmac_Init
                0x000000000104ba90                Crypto_Mac_Wc_AesCmac_Cipher
                0x000000000104baac                Crypto_Mac_Wc_AesCmac_Final
                0x000000000104bad8                Crypto_Mac_Wc_AesCmac_Direct

.text.limit_tx_pwr%250
                0x000000000104bb10       0xb4
 .text.limit_tx_pwr
                0x000000000104bb10       0xb4 ../src/config/default/driver/lib/lib-ieee802154_phy_pic32cxbz-v1.2.0.a(phy_pib.o)

.rodata%251     0x000000000104bbc4       0xb4
 .rodata        0x000000000104bbc4       0xb4 ../src/config/default/stack/g3/mac/mac_rf/g3_lib_mac_rf.a(MacRfMib.o)

.text.PHY_TxAckFrame%252
                0x000000000104bc78       0xac
 .text.PHY_TxAckFrame
                0x000000000104bc78       0xac ../src/config/default/driver/lib/lib-ieee802154_phy_pic32cxbz-v1.2.0.a(phy_tx.o)
                0x000000000104bc78                PHY_TxAckFrame

.text.PHY_StartContinuousTransmit%253
                0x000000000104bd24       0xac
 .text.PHY_StartContinuousTransmit
                0x000000000104bd24       0xac ../src/config/default/driver/lib/lib-ieee802154_phy_pic32cxbz-v1.2.0.a(tfa.o)
                0x000000000104bd24                PHY_StartContinuousTransmit

.text.__pop_int%254
                0x000000000104bdd0       0xac
 .text.__pop_int
                0x000000000104bdd0       0xac c:/program files/microchip/xc32/v4.60/bin/bin/../../lib/gcc/pic32c/8.3.1/../../../../pic32c/lib/thumb/v7e-m+fp/hard\libc-musl.a(__pop_int.o)
                0x000000000104bdd0                __pop_int_needed
                0x000000000104bdd0                __pop_int

.text.__fmt_d%255
                0x000000000104be7c       0xa8
 .text.__fmt_d  0x000000000104be7c       0xa8 c:/program files/microchip/xc32/v4.60/bin/bin/../../lib/gcc/pic32c/8.3.1/../../../../pic32c/lib/thumb/v7e-m+fp/hard\libc-musl.a(__fmt_d.o)
                0x000000000104be7c                __fmt_d
                0x000000000104be7c                __fmt_d_needed

.text%256       0x000000000104bf24       0xa0
 .text          0x000000000104bf24       0xa0 ../src/config/default/stack/g3/adaptation/g3_lib_adp.a(AdpLbp.o)
                0x000000000104bf48                ADP_LbpRequest

.text%257       0x000000000104bfc4       0x9c
 .text          0x000000000104bfc4       0x9c build/default/production/_ext/753841488/sys_time_h2_adapter.o
                0x000000000104bfc4                sy_time_h2_adapter_callback
                0x000000000104bfd0                SYS_TMR_CallbackPeriodic
                0x000000000104bfec                SYS_TMR_TickCountGet
                0x000000000104c010                SYS_TMR_TickCountGetLong
                0x000000000104c034                SYS_TMR_TickCounterFrequencyGet

.text%258       0x000000000104c060       0x9c
 .text          0x000000000104c060       0x9c build/default/production/_ext/404212886/list.o
                0x000000000104c060                vListInitialise
                0x000000000104c078                vListInitialiseItem
                0x000000000104c080                vListInsertEnd
                0x000000000104c0a0                vListInsert
                0x000000000104c0d4                uxListRemove

.text.tx_done_handling%259
                0x000000000104c0fc       0x98
 .text.tx_done_handling
                0x000000000104c0fc       0x98 ../src/config/default/driver/lib/lib-ieee802154_phy_pic32cxbz-v1.2.0.a(phy_tx.o)
                0x000000000104c0fc                tx_done_handling

.text.handle_tx_end_irq%260
                0x000000000104c194       0x98
 .text.handle_tx_end_irq
                0x000000000104c194       0x98 ../src/config/default/driver/lib/lib-ieee802154_phy_pic32cxbz-v1.2.0.a(phy_tx.o)
                0x000000000104c194                handle_tx_end_irq

.text%261       0x000000000104c22c       0x94
 .text          0x000000000104c22c       0x94 build/default/production/_ext/373899042/srv_random.o
                0x000000000104c22c                SRV_RANDOM_Get8bits
                0x000000000104c238                SRV_RANDOM_Get16bits
                0x000000000104c244                SRV_RANDOM_Get16bitsInRange
                0x000000000104c26c                SRV_RANDOM_Get32bits
                0x000000000104c270                SRV_RANDOM_Get32bitsInRange
                0x000000000104c294                SRV_RANDOM_Get128bits

.text.tx_frame%262
                0x000000000104c2c0       0x94
 .text.tx_frame
                0x000000000104c2c0       0x94 ../src/config/default/driver/lib/lib-ieee802154_phy_pic32cxbz-v1.2.0.a(phy_tx.o)

.text.Reset_Handler%263
                0x000000000104c354       0x88
 .text.Reset_Handler
                0x000000000104c354       0x88 build/default/production/_ext/1171490990/startup_xc32.o
                0x000000000104c354                Reset_Handler

.text%264       0x000000000104c3dc       0x88
 .text          0x000000000104c3dc       0x88 ../src/config/default/stack/g3/adaptation/g3_lib_adp.a(AdpNetwork.o)
                0x000000000104c404                ADP_NetworkStartRequest
                0x000000000104c44c                Network_NetworkJoined

.text%265       0x000000000104c464       0x88
 .text          0x000000000104c464       0x88 ../src/config/default/driver/pds/pds.a(wlPdsInit.o)
                0x000000000104c464                PDS_Init
                0x000000000104c494                PDS_InitItems

.text.round%266
                0x000000000104c4ec       0x88
 .text.round    0x000000000104c4ec       0x88 c:/program files/microchip/xc32/v4.60/bin/bin/../../lib/gcc/pic32c/8.3.1/../../../../pic32c/lib/thumb/v7e-m+fp/hard\libm-fast-emfloat.a(round.o)
                0x000000000104c4ec                round

.text%267       0x000000000104c574       0x84
 .text          0x000000000104c574       0x84 build/default/production/_ext/1865254177/plib_gpio.o
                0x000000000104c574                GPIO_Initialize
                0x000000000104c5d0                GPIO_PortRead
                0x000000000104c5d4                GPIO_PortWrite
                0x000000000104c5e0                GPIO_PortLatchRead
                0x000000000104c5e4                GPIO_PortSet
                0x000000000104c5e8                GPIO_PortClear
                0x000000000104c5ec                GPIO_PortToggle
                0x000000000104c5f0                GPIO_PortInputEnable
                0x000000000104c5f4                GPIO_PortOutputEnable

.text%268       0x000000000104c5f8       0x84
 .text          0x000000000104c5f8       0x84 ../src/config/default/stack/g3/adaptation/g3_lib_loadng.a(ProtoLoadNg_RouteCost.o)
                0x000000000104c5f8                ProtoLoadNg_RouteCost_GetLinkCost
                0x000000000104c628                ProtoLoadNg_RouteCost_GetLinkCostUnidirectional
                0x000000000104c64c                ProtoLoadNg_RouteCost_WeakLinkAdjust
                0x000000000104c668                ProtoLoadNg_RouteCost_MetricSupported

.text.__simple_search_fl%269
                0x000000000104c67c       0x84
 .text.__simple_search_fl
                0x000000000104c67c       0x84 c:/program files/microchip/xc32/v4.60/bin/bin/../../lib/gcc/pic32c/8.3.1/../../../../pic32c/lib/thumb/v7e-m+fp/hard\liblmalloc-musl.a(lite_free.o)
                0x000000000104c67c                __simple_search_fl

.text.__SEGGER_RTL_float64_PolyEvalQ%270
                0x000000000104c700       0x84
 .text.__SEGGER_RTL_float64_PolyEvalQ
                0x000000000104c700       0x84 c:/program files/microchip/xc32/v4.60/bin/bin/../../lib/gcc/pic32c/8.3.1/../../../../pic32c/lib/thumb/v7e-m+fp/hard\libm-fast-emfloat.a(__SEGGER_RTL_float64_PolyEvalQ.o)
                0x000000000104c700                __SEGGER_RTL_float64_PolyEvalQ

.text.__pad%271
                0x000000000104c784       0x84
 .text.__pad    0x000000000104c784       0x84 c:/program files/microchip/xc32/v4.60/bin/bin/../../lib/gcc/pic32c/8.3.1/../../../../pic32c/lib/thumb/v7e-m+fp/hard\libc-musl.a(__printf_core.o)
                0x000000000104c784                __pad

.text.__pop_ptr%272
                0x000000000104c808       0x7c
 .text.__pop_ptr
                0x000000000104c808       0x7c c:/program files/microchip/xc32/v4.60/bin/bin/../../lib/gcc/pic32c/8.3.1/../../../../pic32c/lib/thumb/v7e-m+fp/hard\libc-musl.a(__pop_ptr.o)
                0x000000000104c808                __pop_ptr
                0x000000000104c808                __pop_ptr_needed

.rodata%273     0x000000000104c884       0x78
 .rodata        0x000000000104c884       0x78 build/default/production/_ext/1033058136/tcpip_manager.o

.rodata%274     0x000000000104c8fc       0x78
 .rodata        0x000000000104c8fc       0x78 build/default/production/_ext/1360937237/app_g3_management.o

.text.tal_trx_wakeup%275
                0x000000000104c974       0x78
 .text.tal_trx_wakeup
                0x000000000104c974       0x78 ../src/config/default/driver/lib/lib-ieee802154_phy_pic32cxbz-v1.2.0.a(phy_pwr_mgmt.o)
                0x000000000104c974                tal_trx_wakeup

.text.__cvt_u%276
                0x000000000104c9ec       0x78
 .text.__cvt_u  0x000000000104c9ec       0x78 c:/program files/microchip/xc32/v4.60/bin/bin/../../lib/gcc/pic32c/8.3.1/../../../../pic32c/lib/thumb/v7e-m+fp/hard\libc-musl.a(__cvt_u.o)
                0x000000000104c9ec                __cvt_u

.text%277       0x000000000104ca64       0x74
 .text          0x000000000104ca64       0x74 ../src/config/default/stack/g3/adaptation/g3_lib_adp.a(AdpDiscovery.o)
                0x000000000104caa4                ADP_DiscoveryRequest

.text.convert_phyTransmitPower_to_reg_value%278
                0x000000000104cad8       0x74
 .text.convert_phyTransmitPower_to_reg_value
                0x000000000104cad8       0x74 ../src/config/default/driver/lib/lib-ieee802154_phy_pic32cxbz-v1.2.0.a(phy_pib.o)
                0x000000000104cad8                convert_phyTransmitPower_to_reg_value

.text.process_incoming_frame%279
                0x000000000104cb4c       0x74
 .text.process_incoming_frame
                0x000000000104cb4c       0x74 ../src/config/default/driver/lib/lib-ieee802154_phy_pic32cxbz-v1.2.0.a(phy_rx.o)
                0x000000000104cb4c                process_incoming_frame

.text.__fmt_o%280
                0x000000000104cbc0       0x72
 .text.__fmt_o  0x000000000104cbc0       0x72 c:/program files/microchip/xc32/v4.60/bin/bin/../../lib/gcc/pic32c/8.3.1/../../../../pic32c/lib/thumb/v7e-m+fp/hard\libc-musl.a(__fmt_o.o)
                0x000000000104cbc0                __fmt_o
                0x000000000104cbc0                __fmt_o_needed

.text%281       0x000000000104cc34       0x70
 .text          0x000000000104cc34       0x70 build/default/production/_ext/1881668453/sys_int.o
                0x000000000104cc34                SYS_INT_Enable
                0x000000000104cc38                SYS_INT_Disable
                0x000000000104cc3c                SYS_INT_Restore
                0x000000000104cc40                SYS_INT_SourceDisable
                0x000000000104cc88                SYS_INT_SourceRestore

.text.aclb_spi_read%282
                0x000000000104cca4       0x70
 .text.aclb_spi_read
                0x000000000104cca4       0x70 ../src/config/default/driver/lib/lib-ieee802154_phy_pic32cxbz-v1.2.0.a(phy_pib.o)

.text.PHY_RxEnable%283
                0x000000000104cd14       0x70
 .text.PHY_RxEnable
                0x000000000104cd14       0x70 ../src/config/default/driver/lib/lib-ieee802154_phy_pic32cxbz-v1.2.0.a(phy_rx_enable.o)
                0x000000000104cd14                PHY_RxEnable

.text.aclb_spi_write%284
                0x000000000104cd84       0x6c
 .text.aclb_spi_write
                0x000000000104cd84       0x6c ../src/config/default/driver/lib/lib-ieee802154_phy_pic32cxbz-v1.2.0.a(phy_pib.o)

.text%285       0x000000000104cdf0       0x68
 .text          0x000000000104cdf0       0x68 build/default/production/_ext/60184501/plib_wdt.o
                0x000000000104cdf0                WDT_Enable
                0x000000000104ce00                WDT_Disable
                0x000000000104ce10                WDT_IsEnabled
                0x000000000104ce20                WDT_WindowEnable
                0x000000000104ce2c                WDT_WindowDisable
                0x000000000104ce38                WDT_IsWindowEnabled
                0x000000000104ce48                WDT_Clear

.text%286       0x000000000104ce58       0x68
 .text          0x000000000104ce58       0x68 ../src/config/default/stack/g3/adaptation/g3_lib_adp.a(AdpReset.o)
                0x000000000104ceb0                ADP_ResetRequest

.text.PHY_Reset%287
                0x000000000104cec0       0x68
 .text.PHY_Reset
                0x000000000104cec0       0x68 ../src/config/default/driver/lib/lib-ieee802154_phy_pic32cxbz-v1.2.0.a(phy_init.o)
                0x000000000104cec0                PHY_Reset

.text.PHY_EdSample%288
                0x000000000104cf28       0x64
 .text.PHY_EdSample
                0x000000000104cf28       0x64 ../src/config/default/driver/lib/lib-ieee802154_phy_pic32cxbz-v1.2.0.a(tfa.o)
                0x000000000104cf28                PHY_EdSample

.text%289       0x000000000104cf8c       0x60
 .text          0x000000000104cf8c       0x60 build/default/production/_ext/944882569/sys_debug.o
                0x000000000104cf8c                SYS_DEBUG_Initialize
                0x000000000104cfa8                SYS_DEBUG_ConsoleInstanceGet
                0x000000000104cfb4                SYS_DEBUG_Status
                0x000000000104cfc0                SYS_DEBUG_ErrorLevelSet
                0x000000000104cfcc                SYS_DEBUG_ErrorLevelGet
                0x000000000104cfd8                SYS_DEBUG_Redirect

.text.ed_scan_done%290
                0x000000000104cfec       0x60
 .text.ed_scan_done
                0x000000000104cfec       0x60 ../src/config/default/driver/lib/lib-ieee802154_phy_pic32cxbz-v1.2.0.a(phy_ed.o)
                0x000000000104cfec                ed_scan_done

.text.csma_continue%291
                0x000000000104d04c       0x60
 .text.csma_continue
                0x000000000104d04c       0x60 ../src/config/default/driver/lib/lib-ieee802154_phy_pic32cxbz-v1.2.0.a(phy_tx.o)
                0x000000000104d04c                csma_continue

.text.cca_done_handling%292
                0x000000000104d0ac       0x60
 .text.cca_done_handling
                0x000000000104d0ac       0x60 ../src/config/default/driver/lib/lib-ieee802154_phy_pic32cxbz-v1.2.0.a(phy_tx.o)
                0x000000000104d0ac                cca_done_handling

.text.__simple_malloc%293
                0x000000000104d10c       0x60
 .text.__simple_malloc
                0x000000000104d10c       0x60 c:/program files/microchip/xc32/v4.60/bin/bin/../../lib/gcc/pic32c/8.3.1/../../../../pic32c/lib/thumb/v7e-m+fp/hard\liblmalloc-musl.a(lite_malloc.o)
                0x000000000104d10c                __malloc0
                0x000000000104d10c                __simple_malloc
                0x000000000104d10c                malloc

.text.vsnprintf%294
                0x000000000104d16c       0x60
 .text.vsnprintf
                0x000000000104d16c       0x60 c:/program files/microchip/xc32/v4.60/bin/bin/../../lib/gcc/pic32c/8.3.1/../../../../pic32c/lib/thumb/v7e-m+fp/hard\libc-musl.a(vsnprintf.o)
                0x000000000104d16c                vsnprintf

.text.start_backoff%295
                0x000000000104d1cc       0x5c
 .text.start_backoff
                0x000000000104d1cc       0x5c ../src/config/default/driver/lib/lib-ieee802154_phy_pic32cxbz-v1.2.0.a(phy_tx.o)

.text.__libc_start_init%296
                0x000000000104d228       0x5c
 .text.__libc_start_init
                0x000000000104d228       0x5c c:/program files/microchip/xc32/v4.60/bin/bin/../../lib/gcc/pic32c/8.3.1/../../../../pic32c/lib/thumb/v7e-m+fp/hard\libc-musl.a(__libc_start_main.o)
                0x000000000104d228                __libc_init_array

.rodata%297     0x000000000104d284       0x58
 .rodata        0x000000000104d284       0x58 build/default/production/_ext/710515956/drv_mac_g3adp.o
                0x000000000104d284                DRV_G3ADP_MACObject

.text.switch_pll_on%298
                0x000000000104d2dc       0x58
 .text.switch_pll_on
                0x000000000104d2dc       0x58 ../src/config/default/driver/lib/lib-ieee802154_phy_pic32cxbz-v1.2.0.a(phy.o)

.text.phySetHpaTxpower%299
                0x000000000104d334       0x58
 .text.phySetHpaTxpower
                0x000000000104d334       0x58 ../src/config/default/driver/lib/lib-ieee802154_phy_pic32cxbz-v1.2.0.a(phy_pib.o)
                0x000000000104d334                phySetHpaTxpower

.text.__shgetc%300
                0x000000000104d38c       0x58
 .text.__shgetc
                0x000000000104d38c       0x58 c:/program files/microchip/xc32/v4.60/bin/bin/../../lib/gcc/pic32c/8.3.1/../../../../pic32c/lib/thumb/v7e-m+fp/hard\libc-musl.a(shgetc.o)
                0x000000000104d38c                __shgetc

.text.__fmt_s%301
                0x000000000104d3e4       0x58
 .text.__fmt_s  0x000000000104d3e4       0x58 c:/program files/microchip/xc32/v4.60/bin/bin/../../lib/gcc/pic32c/8.3.1/../../../../pic32c/lib/thumb/v7e-m+fp/hard\libc-musl.a(__fmt_s.o)
                0x000000000104d3e4                __fmt_s
                0x000000000104d3e4                __fmt_0_needed
                0x000000000104d3e4                __fmt_s_needed

.text.__fmt_u%302
                0x000000000104d43c       0x56
 .text.__fmt_u  0x000000000104d43c       0x56 c:/program files/microchip/xc32/v4.60/bin/bin/../../lib/gcc/pic32c/8.3.1/../../../../pic32c/lib/thumb/v7e-m+fp/hard\libc-musl.a(__fmt_u.o)
                0x000000000104d43c                __fmt_u_needed
                0x000000000104d43c                __fmt_u

.text%303       0x000000000104d494       0x54
 .text          0x000000000104d494       0x54 build/default/production/_ext/1360937237/app_idle_task.o
                0x000000000104d494                app_idle_task
                0x000000000104d4e4                vPortSuppressTicksAndSleep

.text.tal_start_retransmission_timer%304
                0x000000000104d4e8       0x54
 .text.tal_start_retransmission_timer
                0x000000000104d4e8       0x54 ../src/config/default/driver/lib/lib-ieee802154_phy_pic32cxbz-v1.2.0.a(phy_tx.o)
                0x000000000104d4e8                tal_start_retransmission_timer

.text%305       0x000000000104d53c       0x54
 .text          0x000000000104d53c       0x54 ../src/config/default/driver/device_support/pic32cx_bz2_device_support.a(pmu_dvr.o)
                0x000000000104d53c                PMU_Read_Reg
                0x000000000104d574                PMU_Write_Reg

.text.stpncpy%306
                0x000000000104d590       0x54
 .text.stpncpy  0x000000000104d590       0x54 c:/program files/microchip/xc32/v4.60/bin/bin/../../lib/gcc/pic32c/8.3.1/../../../../pic32c/lib/thumb/v7e-m+fp/hard\libc-size-musl.a(stpncpy.o)
                0x000000000104d590                __stpncpy
                0x000000000104d590                stpncpy

.text.ldexp%307
                0x000000000104d5e4       0x54
 .text.ldexp    0x000000000104d5e4       0x54 c:/program files/microchip/xc32/v4.60/bin/bin/../../lib/gcc/pic32c/8.3.1/../../../../pic32c/lib/thumb/v7e-m+fp/hard\libm-fast-emfloat.a(ldexp.o)
                0x000000000104d5e4                ldexp

.text.strtox%308
                0x000000000104d638       0x52
 .text.strtox   0x000000000104d638       0x52 c:/program files/microchip/xc32/v4.60/bin/bin/../../lib/gcc/pic32c/8.3.1/../../../../pic32c/lib/thumb/v7e-m+fp/hard\libc-musl.a(strtol.o)

.text.trx_init%309
                0x000000000104d68c       0x50
 .text.trx_init
                0x000000000104d68c       0x50 ../src/config/default/driver/lib/lib-ieee802154_phy_pic32cxbz-v1.2.0.a(phy_init.o)

.text%310       0x000000000104d6dc       0x4c
 .text          0x000000000104d6dc       0x4c build/default/production/_ext/1171490990/freertos_hooks.o
                0x000000000104d6dc                vApplicationStackOverflowHook
                0x000000000104d6f0                vApplicationMallocFailedHook
                0x000000000104d704                vApplicationIdleHook
                0x000000000104d708                vApplicationTickHook
                0x000000000104d70c                vAssertCalled

.text%311       0x000000000104d728       0x4c
 .text          0x000000000104d728       0x4c ../src/config/default/stack/g3/mac/mac_plc/g3_lib_mac_plc.a(MacConstants.o)
                0x000000000104d728                MacConstantsInitialize

.text.init_tal_pib%312
                0x000000000104d774       0x4c
 .text.init_tal_pib
                0x000000000104d774       0x4c ../src/config/default/driver/lib/lib-ieee802154_phy_pic32cxbz-v1.2.0.a(phy_pib.o)
                0x000000000104d774                init_tal_pib

.text.PHY_TrxSleep%313
                0x000000000104d7c0       0x4c
 .text.PHY_TrxSleep
                0x000000000104d7c0       0x4c ../src/config/default/driver/lib/lib-ieee802154_phy_pic32cxbz-v1.2.0.a(phy_pwr_mgmt.o)
                0x000000000104d7c0                PHY_TrxSleep

.text.__aeabi_d2f%314
                0x000000000104d80c       0x4c
 .text.__aeabi_d2f
                0x000000000104d80c       0x4c c:/program files/microchip/xc32/v4.60/bin/bin/../../lib/gcc/pic32c/8.3.1/../../../../pic32c/lib/thumb/v7e-m+fp/hard\libm-fast-emfloat.a(__aeabi_d2f.o)
                0x000000000104d80c                __aeabi_d2f

.text._sbrk%315
                0x000000000104d858       0x4c
 .text._sbrk    0x000000000104d858       0x4c c:/program files/microchip/xc32/v4.60/bin/bin/../../lib/gcc/pic32c/8.3.1/../../../../pic32c/lib/thumb/v7e-m+fp/hard\libpic32c.a(sbrk.o)
                0x000000000104d858                _sbrk

.text.__aeabi_d2iz%316
                0x000000000104d8a4       0x4a
 .text.__aeabi_d2iz
                0x000000000104d8a4       0x4a c:/program files/microchip/xc32/v4.60/bin/bin/../../lib/gcc/pic32c/8.3.1/../../../../pic32c/lib/thumb/v7e-m+fp/hard\libm-fast-emfloat.a(__aeabi_d2iz.o)
                0x000000000104d8a4                __aeabi_d2iz

.text.__toread%317
                0x000000000104d8ee       0x4a
 .text.__toread
                0x000000000104d8ee       0x4a c:/program files/microchip/xc32/v4.60/bin/bin/../../lib/gcc/pic32c/8.3.1/../../../../pic32c/lib/thumb/v7e-m+fp/hard\libc-musl.a(__toread.o)
                0x000000000104d8ee                __toread

.text.tal_trx_sleep%318
                0x000000000104d938       0x48
 .text.tal_trx_sleep
                0x000000000104d938       0x48 ../src/config/default/driver/lib/lib-ieee802154_phy_pic32cxbz-v1.2.0.a(phy_pwr_mgmt.o)
                0x000000000104d938                tal_trx_sleep

.text.cca_start%319
                0x000000000104d980       0x48
 .text.cca_start
                0x000000000104d980       0x48 ../src/config/default/driver/lib/lib-ieee802154_phy_pic32cxbz-v1.2.0.a(phy_tx.o)

.text.atoi%320  0x000000000104d9c8       0x46
 .text.atoi     0x000000000104d9c8       0x46 c:/program files/microchip/xc32/v4.60/bin/bin/../../lib/gcc/pic32c/8.3.1/../../../../pic32c/lib/thumb/v7e-m+fp/hard\libc-musl.a(atoi.o)
                0x000000000104d9c8                atoi

.rodata.str1.4%321
                0x000000000104da10       0x44
 .rodata.str1.4
                0x000000000104da10       0x44 build/default/production/_ext/1033058136/udp.o

.text.handleAutoAck%322
                0x000000000104da54       0x44
 .text.handleAutoAck
                0x000000000104da54       0x44 ../src/config/default/driver/lib/lib-ieee802154_phy_pic32cxbz-v1.2.0.a(phy_rx.o)
                0x000000000104da54                handleAutoAck

.text.PHY_StopContinuousTransmit%323
                0x000000000104da98       0x44
 .text.PHY_StopContinuousTransmit
                0x000000000104da98       0x44 ../src/config/default/driver/lib/lib-ieee802154_phy_pic32cxbz-v1.2.0.a(tfa.o)
                0x000000000104da98                PHY_StopContinuousTransmit

.text.memmove%324
                0x000000000104dadc       0x44
 .text.memmove  0x000000000104dadc       0x44 c:/program files/microchip/xc32/v4.60/bin/bin/../../lib/gcc/pic32c/8.3.1/../../../../pic32c/lib/thumb/v7e-m+fp/hard\libc-size-musl.a(memmove.o)
                0x000000000104dadc                memmove

.text.__simple_free%325
                0x000000000104db20       0x44
 .text.__simple_free
                0x000000000104db20       0x44 c:/program files/microchip/xc32/v4.60/bin/bin/../../lib/gcc/pic32c/8.3.1/../../../../pic32c/lib/thumb/v7e-m+fp/hard\liblmalloc-musl.a(lite_free.o)
                0x000000000104db20                __simple_free
                0x000000000104db20                free
                0x000000000104db20                __free0

.text%326       0x000000000104db64       0x40
 .text          0x000000000104db64       0x40 c:/program files/microchip/xc32/v4.60/bin/bin/../../lib/gcc/pic32c/8.3.1/thumb/v7e-m+fp/hard/crtbegin.o

.rodata.str1.4%327
                0x000000000104dba4       0x40
 .rodata.str1.4
                0x000000000104dba4       0x40 build/default/production/_ext/1033058136/tcpip_helpers.o

.text.zigbeeArbReq%328
                0x000000000104dbe4       0x40
 .text.zigbeeArbReq
                0x000000000104dbe4       0x40 ../src/config/default/driver/lib/lib-ieee802154_phy_pic32cxbz-v1.2.0.a(phy_irq_handler.o)

.text.tal_ack_timeout_timer%329
                0x000000000104dc24       0x40
 .text.tal_ack_timeout_timer
                0x000000000104dc24       0x40 ../src/config/default/driver/lib/lib-ieee802154_phy_pic32cxbz-v1.2.0.a(phy_rx.o)
                0x000000000104dc24                tal_ack_timeout_timer

.text.frexp%330
                0x000000000104dc64       0x40
 .text.frexp    0x000000000104dc64       0x40 c:/program files/microchip/xc32/v4.60/bin/bin/../../lib/gcc/pic32c/8.3.1/../../../../pic32c/lib/thumb/v7e-m+fp/hard\libm-fast-emfloat.a(frexp.o)
                0x000000000104dc64                frexp

.text%331       0x000000000104dca4       0x3c
 .text          0x000000000104dca4       0x3c build/default/production/_ext/957911548/phy_task.o
                0x000000000104dca4                PHY_Tasks
                0x000000000104dcc4                PHY_PostTask

.text%332       0x000000000104dce0       0x3c
 .text          0x000000000104dce0       0x3c build/default/production/_ext/14461671/sys_dma.o
                0x000000000104dce0                SYS_DMA_AddressingModeSetup
                0x000000000104dd00                SYS_DMA_DataWidthSetup

.rodata.str1.4%333
                0x000000000104dd1c       0x3c
 .rodata.str1.4
                0x000000000104dd1c       0x3c build/default/production/_ext/1171490990/initialization.o

.text.trx_ed_irq_handler_cb%334
                0x000000000104dd58       0x3c
 .text.trx_ed_irq_handler_cb
                0x000000000104dd58       0x3c ../src/config/default/driver/lib/lib-ieee802154_phy_pic32cxbz-v1.2.0.a(phy_ed.o)
                0x000000000104dd58                trx_ed_irq_handler_cb

.text.trx_irq_init%335
                0x000000000104dd94       0x3c
 .text.trx_irq_init
                0x000000000104dd94       0x3c ../src/config/default/driver/lib/lib-ieee802154_phy_pic32cxbz-v1.2.0.a(phy_irq_handler.o)
                0x000000000104dd94                trx_irq_init

.text.tal_trx_deep_sleep%336
                0x000000000104ddd0       0x3c
 .text.tal_trx_deep_sleep
                0x000000000104ddd0       0x3c ../src/config/default/driver/lib/lib-ieee802154_phy_pic32cxbz-v1.2.0.a(phy_pwr_mgmt.o)
                0x000000000104ddd0                tal_trx_deep_sleep

.text.__fmt_state%337
                0x000000000104de0c       0x3c
 .text.__fmt_state
                0x000000000104de0c       0x3c c:/program files/microchip/xc32/v4.60/bin/bin/../../lib/gcc/pic32c/8.3.1/../../../../pic32c/lib/thumb/v7e-m+fp/hard\libc-musl.a(__printf_core.o)
                0x000000000104de0c                __fmt_state

.text.__aeabi_dcmple%338
                0x000000000104de48       0x3c
 .text.__aeabi_dcmple
                0x000000000104de48       0x3c c:/program files/microchip/xc32/v4.60/bin/bin/../../lib/gcc/pic32c/8.3.1/../../../../pic32c/lib/thumb/v7e-m+fp/hard\libm-fast-emfloat.a(__aeabi_dcmple.o)
                0x000000000104de48                __aeabi_dcmple

.text.PHY_ConfigRxSensitivity%339
                0x000000000104de84       0x38
 .text.PHY_ConfigRxSensitivity
                0x000000000104de84       0x38 ../src/config/default/driver/lib/lib-ieee802154_phy_pic32cxbz-v1.2.0.a(phy_helper.o)
                0x000000000104de84                PHY_ConfigRxSensitivity

.text.normalize_lqi%340
                0x000000000104debc       0x38
 .text.normalize_lqi
                0x000000000104debc       0x38 ../src/config/default/driver/lib/lib-ieee802154_phy_pic32cxbz-v1.2.0.a(phy_rx.o)

.text.PHY_TxFrame%341
                0x000000000104def4       0x38
 .text.PHY_TxFrame
                0x000000000104def4       0x38 ../src/config/default/driver/lib/lib-ieee802154_phy_pic32cxbz-v1.2.0.a(phy_tx.o)
                0x000000000104def4                PHY_TxFrame

.text.__pic32c_data_initialization%342
                0x000000000104df2c       0x38
 .text.__pic32c_data_initialization
                0x000000000104df2c       0x38 c:/program files/microchip/xc32/v4.60/bin/bin/../../lib/gcc/pic32c/8.3.1/../../../../pic32c/lib/thumb/v7e-m+fp/hard\libpic32c.a(data_init.o)
                0x000000000104df2c                __pic32c_data_initialization

.text.__aeabi_dcmpgt%343
                0x000000000104df64       0x38
 .text.__aeabi_dcmpgt
                0x000000000104df64       0x38 c:/program files/microchip/xc32/v4.60/bin/bin/../../lib/gcc/pic32c/8.3.1/../../../../pic32c/lib/thumb/v7e-m+fp/hard\libm-fast-emfloat.a(__aeabi_dcmpgt.o)
                0x000000000104df64                __aeabi_dcmpgt

.text.__aeabi_dcmplt%344
                0x000000000104df9c       0x38
 .text.__aeabi_dcmplt
                0x000000000104df9c       0x38 c:/program files/microchip/xc32/v4.60/bin/bin/../../lib/gcc/pic32c/8.3.1/../../../../pic32c/lib/thumb/v7e-m+fp/hard\libm-fast-emfloat.a(__aeabi_dcmplt.o)
                0x000000000104df9c                __aeabi_dcmplt

.rodata.str1.4%345
                0x000000000104dfd4       0x34
 .rodata.str1.4
                0x000000000104dfd4       0x34 build/default/production/_ext/1033058136/icmpv6.o

.text%346       0x000000000104e008       0x34
 .text          0x000000000104e008       0x34 build/default/production/_ext/2135967589/aes_wrapper.o
                0x000000000104e008                AES_Wrapper_SetEncryptEcbKey
                0x000000000104e02c                AES_Wrapper_EncryptEcb

.text.PHY_ConfigRxPromiscuousMode%347
                0x000000000104e03c       0x34
 .text.PHY_ConfigRxPromiscuousMode
                0x000000000104e03c       0x34 ../src/config/default/driver/lib/lib-ieee802154_phy_pic32cxbz-v1.2.0.a(phy_helper.o)
                0x000000000104e03c                PHY_ConfigRxPromiscuousMode

.text.PHY_ConvertTxPwrRegValToDbm%348
                0x000000000104e070       0x34
 .text.PHY_ConvertTxPwrRegValToDbm
                0x000000000104e070       0x34 ../src/config/default/driver/lib/lib-ieee802154_phy_pic32cxbz-v1.2.0.a(phy_helper.o)
                0x000000000104e070                PHY_ConvertTxPwrRegValToDbm

.text.__aeabi_f2d%349
                0x000000000104e0a4       0x34
 .text.__aeabi_f2d
                0x000000000104e0a4       0x34 c:/program files/microchip/xc32/v4.60/bin/bin/../../lib/gcc/pic32c/8.3.1/../../../../pic32c/lib/thumb/v7e-m+fp/hard\libm-fast-emfloat.a(__aeabi_f2d.o)
                0x000000000104e0a4                __aeabi_f2d

.text.trx_reg_bit_write%350
                0x000000000104e0d8       0x32
 .text.trx_reg_bit_write
                0x000000000104e0d8       0x32 ../src/config/default/driver/lib/lib-ieee802154_phy_pic32cxbz-v1.2.0.a(phy.o)

.text.trx_reg_bit_write%351
                0x000000000104e10a       0x32
 .text.trx_reg_bit_write
                0x000000000104e10a       0x32 ../src/config/default/driver/lib/lib-ieee802154_phy_pic32cxbz-v1.2.0.a(phy_ed.o)

.text.trx_reg_bit_write%352
                0x000000000104e13c       0x32
 .text.trx_reg_bit_write
                0x000000000104e13c       0x32 ../src/config/default/driver/lib/lib-ieee802154_phy_pic32cxbz-v1.2.0.a(phy_helper.o)

.text.trx_reg_bit_write%353
                0x000000000104e16e       0x32
 .text.trx_reg_bit_write
                0x000000000104e16e       0x32 ../src/config/default/driver/lib/lib-ieee802154_phy_pic32cxbz-v1.2.0.a(phy_pib.o)

.text.trx_reg_bit_write%354
                0x000000000104e1a0       0x32
 .text.trx_reg_bit_write
                0x000000000104e1a0       0x32 ../src/config/default/driver/lib/lib-ieee802154_phy_pic32cxbz-v1.2.0.a(phy_rx.o)

.text.trx_reg_bit_write%355
                0x000000000104e1d2       0x32
 .text.trx_reg_bit_write
                0x000000000104e1d2       0x32 ../src/config/default/driver/lib/lib-ieee802154_phy_pic32cxbz-v1.2.0.a(phy_tx.o)

.text.trx_reg_bit_write%356
                0x000000000104e204       0x32
 .text.trx_reg_bit_write
                0x000000000104e204       0x32 ../src/config/default/driver/lib/lib-ieee802154_phy_pic32cxbz-v1.2.0.a(tfa.o)

.text.__aeabi_dcmpeq%357
                0x000000000104e236       0x32
 .text.__aeabi_dcmpeq
                0x000000000104e236       0x32 c:/program files/microchip/xc32/v4.60/bin/bin/../../lib/gcc/pic32c/8.3.1/../../../../pic32c/lib/thumb/v7e-m+fp/hard\libm-fast-emfloat.a(__aeabi_dcmpeq.o)
                0x000000000104e236                __aeabi_dcmpeq

.rodata.str1.4%358
                0x000000000104e268       0x30
 .rodata.str1.4
                0x000000000104e268       0x30 build/default/production/_ext/1033058136/ipv6.o

.text.internal_tal_reset%359
                0x000000000104e298       0x30
 .text.internal_tal_reset
                0x000000000104e298       0x30 ../src/config/default/driver/lib/lib-ieee802154_phy_pic32cxbz-v1.2.0.a(phy_init.o)

.text%360       0x000000000104e2c8       0x30
 .text          0x000000000104e2c8       0x30 c:/program files/microchip/xc32/v4.60/bin/bin/../../lib/gcc/pic32c/8.3.1/thumb/v7e-m+fp/hard\libgcc.a(_aeabi_uldivmod.o)
                0x000000000104e2c8                __aeabi_uldivmod

.text._sbrk_init%361
                0x000000000104e2f8       0x30
 .text._sbrk_init
                0x000000000104e2f8       0x30 c:/program files/microchip/xc32/v4.60/bin/bin/../../lib/gcc/pic32c/8.3.1/../../../../pic32c/lib/thumb/v7e-m+fp/hard\libpic32c.a(sbrk.o)

.rodata%362     0x000000000104e328       0x2c
 .rodata        0x000000000104e328       0x2c build/default/production/_ext/1832805299/sys_console_uart.o
                0x000000000104e328                sysConsoleUARTDevDesc

.text%363       0x000000000104e354       0x2c
 .text          0x000000000104e354       0x2c ../src/config/default/stack/g3/adaptation/g3_lib_adp.a(AdpRouteDiscovery.o)
                0x000000000104e364                ADP_RouteDiscoveryRequest

.rodata%364     0x000000000104e380       0x2c
 .rodata        0x000000000104e380       0x2c ../src/config/default/stack/g3/adaptation/g3_lib_adp.a(ProtoRFC6282.o)

.text.PHY_ConfigAutoAck%365
                0x000000000104e3ac       0x2c
 .text.PHY_ConfigAutoAck
                0x000000000104e3ac       0x2c ../src/config/default/driver/lib/lib-ieee802154_phy_pic32cxbz-v1.2.0.a(phy_helper.o)
                0x000000000104e3ac                PHY_ConfigAutoAck

.text.tal_timer_init%366
                0x000000000104e3d8       0x2c
 .text.tal_timer_init
                0x000000000104e3d8       0x2c ../src/config/default/driver/lib/lib-ieee802154_phy_pic32cxbz-v1.2.0.a(phy_init.o)

.text.z_reg_write8_slice%367
                0x000000000104e404       0x2c
 .text.z_reg_write8_slice
                0x000000000104e404       0x2c ../src/config/default/driver/lib/lib-ieee802154_phy_pic32cxbz-v1.2.0.a(phy_irq_handler.o)

.text.stopAckTimeoutTimer%368
                0x000000000104e430       0x2c
 .text.stopAckTimeoutTimer
                0x000000000104e430       0x2c ../src/config/default/driver/lib/lib-ieee802154_phy_pic32cxbz-v1.2.0.a(phy_rx.o)
                0x000000000104e430                stopAckTimeoutTimer

.text.retransmissionTimerCallback%369
                0x000000000104e45c       0x2c
 .text.retransmissionTimerCallback
                0x000000000104e45c       0x2c ../src/config/default/driver/lib/lib-ieee802154_phy_pic32cxbz-v1.2.0.a(phy_tx.o)

.text.fma%370   0x000000000104e488       0x2c
 .text.fma      0x000000000104e488       0x2c c:/program files/microchip/xc32/v4.60/bin/bin/../../lib/gcc/pic32c/8.3.1/../../../../pic32c/lib/thumb/v7e-m+fp/hard\libm-fast-emfloat.a(fma.o)
                0x000000000104e488                fma

.text.__pop_float%371
                0x000000000104e4b4       0x2a
 .text.__pop_float
                0x000000000104e4b4       0x2a c:/program files/microchip/xc32/v4.60/bin/bin/../../lib/gcc/pic32c/8.3.1/../../../../pic32c/lib/thumb/v7e-m+fp/hard\libc-musl.a(__pop_float.o)
                0x000000000104e4b4                __pop_float_needed
                0x000000000104e4b4                __pop_float

.text%372       0x000000000104e4e0       0x28
 .text          0x000000000104e4e0       0x28 build/default/production/_ext/1033058136/tcpip_heap_alloc.o
                0x000000000104e4e0                _TCPIP_HEAP_BufferMapNonCached
                0x000000000104e4e4                _TCPIP_HEAP_PointerMapCached
                0x000000000104e4e8                TCPIP_HEAP_Create
                0x000000000104e4f8                TCPIP_HEAP_Delete
                0x000000000104e4fc                TCPIP_HEAP_MallocOutline
                0x000000000104e500                TCPIP_HEAP_CallocOutline
                0x000000000104e504                TCPIP_HEAP_FreeOutline

.text.trx_reg_bit_read%373
                0x000000000104e508       0x28
 .text.trx_reg_bit_read
                0x000000000104e508       0x28 ../src/config/default/driver/lib/lib-ieee802154_phy_pic32cxbz-v1.2.0.a(phy_helper.o)

.text.trx_reset%374
                0x000000000104e530       0x28
 .text.trx_reset
                0x000000000104e530       0x28 ../src/config/default/driver/lib/lib-ieee802154_phy_pic32cxbz-v1.2.0.a(phy_init.o)

.text.PHY_TrxWakeup%375
                0x000000000104e558       0x28
 .text.PHY_TrxWakeup
                0x000000000104e558       0x28 ../src/config/default/driver/lib/lib-ieee802154_phy_pic32cxbz-v1.2.0.a(phy_pwr_mgmt.o)
                0x000000000104e558                PHY_TrxWakeup

.text.trx_reg_bit_read%376
                0x000000000104e580       0x28
 .text.trx_reg_bit_read
                0x000000000104e580       0x28 ../src/config/default/driver/lib/lib-ieee802154_phy_pic32cxbz-v1.2.0.a(phy_rx.o)

.rodata.__SEGGER_RTL_float64_Log%377
                0x000000000104e5a8       0x28
 .rodata.__SEGGER_RTL_float64_Log
                0x000000000104e5a8       0x28 c:/program files/microchip/xc32/v4.60/bin/bin/../../lib/gcc/pic32c/8.3.1/../../../../pic32c/lib/thumb/v7e-m+fp/hard\libm-fast-emfloat.a(__SEGGER_RTL_float64_Log.o)
                0x000000000104e5a8                __SEGGER_RTL_float64_Log

.text.__uflow%378
                0x000000000104e5d0       0x28
 .text.__uflow  0x000000000104e5d0       0x28 c:/program files/microchip/xc32/v4.60/bin/bin/../../lib/gcc/pic32c/8.3.1/../../../../pic32c/lib/thumb/v7e-m+fp/hard\libc-musl.a(__uflow.o)
                0x000000000104e5d0                __uflow

.text.__string_out%379
                0x000000000104e5f8       0x28
 .text.__string_out
                0x000000000104e5f8       0x28 c:/program files/microchip/xc32/v4.60/bin/bin/../../lib/gcc/pic32c/8.3.1/../../../../pic32c/lib/thumb/v7e-m+fp/hard\libc-musl.a(__printf_core.o)
                0x000000000104e5f8                __out

.rodata%380     0x000000000104e620       0x24
 .rodata        0x000000000104e620       0x24 build/default/production/_ext/1033058136/tcpip_heap_internal.o

.text%381       0x000000000104e644       0x24
 .text          0x000000000104e644       0x24 build/default/production/_ext/1865643529/plib_trng.o
                0x000000000104e644                TRNG_Initialize
                0x000000000104e648                TRNG_ReadData

.text.handle_ack_reception%382
                0x000000000104e668       0x24
 .text.handle_ack_reception
                0x000000000104e668       0x24 ../src/config/default/driver/lib/lib-ieee802154_phy_pic32cxbz-v1.2.0.a(phy_rx.o)
                0x000000000104e668                handle_ack_reception

.text.__aeabi_d2uiz%383
                0x000000000104e68c       0x24
 .text.__aeabi_d2uiz
                0x000000000104e68c       0x24 c:/program files/microchip/xc32/v4.60/bin/bin/../../lib/gcc/pic32c/8.3.1/../../../../pic32c/lib/thumb/v7e-m+fp/hard\libm-fast-emfloat.a(__aeabi_d2uiz.o)
                0x000000000104e68c                __aeabi_d2uiz

.text.__aeabi_i2d%384
                0x000000000104e6b0       0x22
 .text.__aeabi_i2d
                0x000000000104e6b0       0x22 c:/program files/microchip/xc32/v4.60/bin/bin/../../lib/gcc/pic32c/8.3.1/../../../../pic32c/lib/thumb/v7e-m+fp/hard\libm-fast-emfloat.a(__aeabi_i2d.o)
                0x000000000104e6b0                __aeabi_i2d

.rodata.str1.4%385
                0x000000000104e6d4       0x20
 .rodata.str1.4
                0x000000000104e6d4       0x20 build/default/production/_ext/1033058136/tcpip_packet.o

.rodata%386     0x000000000104e6f4       0x20
 .rodata        0x000000000104e6f4       0x20 build/default/production/_ext/1033058136/tcpip_helpers.o

.text.tal_timers_stop%387
                0x000000000104e714       0x20
 .text.tal_timers_stop
                0x000000000104e714       0x20 ../src/config/default/driver/lib/lib-ieee802154_phy_pic32cxbz-v1.2.0.a(phy_init.o)

.text.trx_enable_dualmode_support%388
                0x000000000104e734       0x20
 .text.trx_enable_dualmode_support
                0x000000000104e734       0x20 ../src/config/default/driver/lib/lib-ieee802154_phy_pic32cxbz-v1.2.0.a(phy_init.o)

.text._get_heap_left_space%389
                0x000000000104e754       0x20
 .text._get_heap_left_space
                0x000000000104e754       0x20 c:/program files/microchip/xc32/v4.60/bin/bin/../../lib/gcc/pic32c/8.3.1/../../../../pic32c/lib/thumb/v7e-m+fp/hard\libpic32c.a(sbrk.o)
                0x000000000104e754                _get_heap_left_space

.text.__dinit_copy%390
                0x000000000104e774       0x1e
 .text.__dinit_copy
                0x000000000104e774       0x1e c:/program files/microchip/xc32/v4.60/bin/bin/../../lib/gcc/pic32c/8.3.1/../../../../pic32c/lib/thumb/v7e-m+fp/hard\libpic32c.a(pic32_data_init_copy.o)
                0x000000000104e774                __dinit_copy_needed
                0x000000000104e774                __dinit_copy

.rodata.str1.4%391
                0x000000000104e794       0x1c
 .rodata.str1.4
                0x000000000104e794       0x1c build/default/production/_ext/1360937237/app_matrix_led.o

.text.PHY_GetTrxStatus%392
                0x000000000104e7b0       0x1c
 .text.PHY_GetTrxStatus
                0x000000000104e7b0       0x1c ../src/config/default/driver/lib/lib-ieee802154_phy_pic32cxbz-v1.2.0.a(phy.o)
                0x000000000104e7b0                PHY_GetTrxStatus

.text.tal_enable_zb_subsystem_clock%393
                0x000000000104e7cc       0x1c
 .text.tal_enable_zb_subsystem_clock
                0x000000000104e7cc       0x1c ../src/config/default/driver/lib/lib-ieee802154_phy_pic32cxbz-v1.2.0.a(phy_init.o)

.text.memcmp%394
                0x000000000104e7e8       0x1c
 .text.memcmp   0x000000000104e7e8       0x1c c:/program files/microchip/xc32/v4.60/bin/bin/../../lib/gcc/pic32c/8.3.1/../../../../pic32c/lib/thumb/v7e-m+fp/hard\libc-size-musl.a(memcmp.o)
                0x000000000104e7e8                memcmp

.text.memcpy%395
                0x000000000104e804       0x1c
 .text.memcpy   0x000000000104e804       0x1c c:/program files/microchip/xc32/v4.60/bin/bin/../../lib/gcc/pic32c/8.3.1/../../../../pic32c/lib/thumb/v7e-m+fp/hard\libc-size-musl.a(memcpy.o)
                0x000000000104e804                memcpy

.text.__memrchr%396
                0x000000000104e820       0x1c
 .text.__memrchr
                0x000000000104e820       0x1c c:/program files/microchip/xc32/v4.60/bin/bin/../../lib/gcc/pic32c/8.3.1/../../../../pic32c/lib/thumb/v7e-m+fp/hard\libc-size-musl.a(memrchr.o)
                0x000000000104e820                __memrchr
                0x000000000104e820                memrchr

.text.__aeabi_ui2d%397
                0x000000000104e83c       0x1c
 .text.__aeabi_ui2d
                0x000000000104e83c       0x1c c:/program files/microchip/xc32/v4.60/bin/bin/../../lib/gcc/pic32c/8.3.1/../../../../pic32c/lib/thumb/v7e-m+fp/hard\libm-fast-emfloat.a(__aeabi_ui2d.o)
                0x000000000104e83c                __aeabi_ui2d

.text.isxdigit%398
                0x000000000104e858       0x1c
 .text.isxdigit
                0x000000000104e858       0x1c c:/program files/microchip/xc32/v4.60/bin/bin/../../lib/gcc/pic32c/8.3.1/../../../../pic32c/lib/thumb/v7e-m+fp/hard\libc-musl.a(isxdigit.o)
                0x000000000104e858                isxdigit

.text.vfprintf%399
                0x000000000104e874       0x1c
 .text.vfprintf
                0x000000000104e874       0x1c c:/program files/microchip/xc32/v4.60/bin/bin/../../lib/gcc/pic32c/8.3.1/../../../../pic32c/lib/thumb/v7e-m+fp/hard\libc-musl.a(vfprintf.o)
                0x000000000104e874                vfprintf

.text.snprintf%400
                0x000000000104e890       0x1a
 .text.snprintf
                0x000000000104e890       0x1a c:/program files/microchip/xc32/v4.60/bin/bin/../../lib/gcc/pic32c/8.3.1/../../../../pic32c/lib/thumb/v7e-m+fp/hard\libc-musl.a(snprintf.o)
                0x000000000104e890                snprintf

.text.sprintf%401
                0x000000000104e8aa       0x1a
 .text.sprintf  0x000000000104e8aa       0x1a c:/program files/microchip/xc32/v4.60/bin/bin/../../lib/gcc/pic32c/8.3.1/../../../../pic32c/lib/thumb/v7e-m+fp/hard\libc-musl.a(sprintf.o)
                0x000000000104e8aa                sprintf

.rodata.CSWTCH.8%402
                0x000000000104e8c4       0x19
 .rodata.CSWTCH.8
                0x000000000104e8c4       0x19 ../src/config/default/driver/lib/lib-ieee802154_phy_pic32cxbz-v1.2.0.a(phy.o)

.rodata%403     0x000000000104e8e0       0x18
 .rodata        0x000000000104e8e0       0x18 build/default/production/_ext/1033058136/icmpv6.o

.text%404       0x000000000104e8f8       0x18
 .text          0x000000000104e8f8       0x18 build/default/production/_ext/1171490990/exceptions.o
                0x000000000104e8f8                NonMaskableInt_Handler
                0x000000000104e8fc                HardFault_Handler
                0x000000000104e900                DebugMonitor_Handler
                0x000000000104e904                MemoryManagement_Handler
                0x000000000104e908                BusFault_Handler
                0x000000000104e90c                UsageFault_Handler

.text.z_do_bitwr32%405
                0x000000000104e910       0x18
 .text.z_do_bitwr32
                0x000000000104e910       0x18 ../src/config/default/driver/lib/lib-ieee802154_phy_pic32cxbz-v1.2.0.a(phy_tx.o)

.text.cca_done_irq_handler%406
                0x000000000104e928       0x18
 .text.cca_done_irq_handler
                0x000000000104e928       0x18 ../src/config/default/driver/lib/lib-ieee802154_phy_pic32cxbz-v1.2.0.a(phy_tx.o)
                0x000000000104e928                cca_done_irq_handler

.text.strlen%407
                0x000000000104e940       0x18
 .text.strlen   0x000000000104e940       0x18 c:/program files/microchip/xc32/v4.60/bin/bin/../../lib/gcc/pic32c/8.3.1/../../../../pic32c/lib/thumb/v7e-m+fp/hard\libc-size-musl.a(strlen.o)
                0x000000000104e940                strlen

.text.strrchr%408
                0x000000000104e958       0x18
 .text.strrchr  0x000000000104e958       0x18 c:/program files/microchip/xc32/v4.60/bin/bin/../../lib/gcc/pic32c/8.3.1/../../../../pic32c/lib/thumb/v7e-m+fp/hard\libc-size-musl.a(strrchr.o)
                0x000000000104e958                strrchr

.text.__init_search_fl%409
                0x000000000104e970       0x18
 .text.__init_search_fl
                0x000000000104e970       0x18 c:/program files/microchip/xc32/v4.60/bin/bin/../../lib/gcc/pic32c/8.3.1/../../../../pic32c/lib/thumb/v7e-m+fp/hard\liblmalloc-musl.a(lite_free.o)
                0x000000000104e970                __init_search_fl

.text.rand%410  0x000000000104e988       0x18
 .text.rand     0x000000000104e988       0x18 c:/program files/microchip/xc32/v4.60/bin/bin/../../lib/gcc/pic32c/8.3.1/../../../../pic32c/lib/thumb/v7e-m+fp/hard\libc-musl.a(rand.o)
                0x000000000104e988                rand

.text.__shlim%411
                0x000000000104e9a0       0x18
 .text.__shlim  0x000000000104e9a0       0x18 c:/program files/microchip/xc32/v4.60/bin/bin/../../lib/gcc/pic32c/8.3.1/../../../../pic32c/lib/thumb/v7e-m+fp/hard\libc-musl.a(shgetc.o)
                0x000000000104e9a0                __shlim

.text.strcmp%412
                0x000000000104e9b8       0x16
 .text.strcmp   0x000000000104e9b8       0x16 c:/program files/microchip/xc32/v4.60/bin/bin/../../lib/gcc/pic32c/8.3.1/../../../../pic32c/lib/thumb/v7e-m+fp/hard\libc-size-musl.a(strcmp.o)
                0x000000000104e9b8                strcmp

.text.__expand_heap%413
                0x000000000104e9ce       0x16
 .text.__expand_heap
                0x000000000104e9ce       0x16 c:/program files/microchip/xc32/v4.60/bin/bin/../../lib/gcc/pic32c/8.3.1/../../../../pic32c/lib/thumb/v7e-m+fp/hard\libc-musl.a(expand_heap.o)
                0x000000000104e9ce                __expand_heap

.rodata%414     0x000000000104e9e4       0x16
 .rodata        0x000000000104e9e4       0x16 c:/program files/microchip/xc32/v4.60/bin/bin/../../lib/gcc/pic32c/8.3.1/../../../../pic32c/lib/thumb/v7e-m+fp/hard\libc-musl.a(__printf_core.o)

.rodata%415     0x000000000104e9fc       0x14
 .rodata        0x000000000104e9fc       0x14 ../src/config/default/stack/g3/mac/mac_plc/g3_lib_mac_plc.a(MacLow.o)

.text.trx_irq_flag_clear%416
                0x000000000104ea10       0x14
 .text.trx_irq_flag_clear
                0x000000000104ea10       0x14 ../src/config/default/driver/lib/lib-ieee802154_phy_pic32cxbz-v1.2.0.a(phy_init.o)
                0x000000000104ea10                trx_irq_flag_clear

.text.ackTimeoutTimerCallback%417
                0x000000000104ea24       0x14
 .text.ackTimeoutTimerCallback
                0x000000000104ea24       0x14 ../src/config/default/driver/lib/lib-ieee802154_phy_pic32cxbz-v1.2.0.a(phy_rx.o)

.rodata%418     0x000000000104ea38       0x14
 .rodata        0x000000000104ea38       0x14 c:/program files/microchip/xc32/v4.60/bin/bin/../../lib/gcc/pic32c/8.3.1/../../../../pic32c/lib/thumb/v7e-m+fp/hard\libpic32c.a(data_init.o)

.text.memset%419
                0x000000000104ea4c       0x14
 .text.memset   0x000000000104ea4c       0x14 c:/program files/microchip/xc32/v4.60/bin/bin/../../lib/gcc/pic32c/8.3.1/../../../../pic32c/lib/thumb/v7e-m+fp/hard\libc-size-musl.a(memset.o)
                0x000000000104ea4c                memset

.text.strtol%420
                0x000000000104ea60       0x14
 .text.strtol   0x000000000104ea60       0x14 c:/program files/microchip/xc32/v4.60/bin/bin/../../lib/gcc/pic32c/8.3.1/../../../../pic32c/lib/thumb/v7e-m+fp/hard\libc-musl.a(strtol.o)
                0x000000000104ea60                strtol
                0x000000000104ea60                __strtol_internal

.text.stpcpy%421
                0x000000000104ea74       0x14
 .text.stpcpy   0x000000000104ea74       0x14 c:/program files/microchip/xc32/v4.60/bin/bin/../../lib/gcc/pic32c/8.3.1/../../../../pic32c/lib/thumb/v7e-m+fp/hard\libc-size-musl.a(stpcpy.o)
                0x000000000104ea74                __stpcpy
                0x000000000104ea74                stpcpy

.text.__dinit_clear%422
                0x000000000104ea88       0x12
 .text.__dinit_clear
                0x000000000104ea88       0x12 c:/program files/microchip/xc32/v4.60/bin/bin/../../lib/gcc/pic32c/8.3.1/../../../../pic32c/lib/thumb/v7e-m+fp/hard\libpic32c.a(pic32_data_init_clear.o)
                0x000000000104ea88                __dinit_clear
                0x000000000104ea88                __dinit_clear_needed

.rodata%423     0x000000000104ea9c       0x10
 .rodata        0x000000000104ea9c       0x10 build/default/production/_ext/1278466877/pal_rf.o

.rodata%424     0x000000000104eaac       0x10
 .rodata        0x000000000104eaac       0x10 build/default/production/_ext/1664057780/misc.o

.text%425       0x000000000104eabc       0x10
 .text          0x000000000104eabc       0x10 build/default/production/_ext/1360937237/main.o
                0x000000000104eabc                main

.rodata.str1.1%426
                0x000000000104eacc       0x10
 .rodata.str1.1
                0x000000000104eacc       0x10 c:/program files/microchip/xc32/v4.60/bin/bin/../../lib/gcc/pic32c/8.3.1/../../../../pic32c/lib/thumb/v7e-m+fp/hard\libc-musl.a(__fmt_a.o)

.rodata.str1.1%427
                0x000000000104eadc       0x10
 .rodata.str1.1
                0x000000000104eadc       0x10 c:/program files/microchip/xc32/v4.60/bin/bin/../../lib/gcc/pic32c/8.3.1/../../../../pic32c/lib/thumb/v7e-m+fp/hard\libc-musl.a(__fmt_fp.o)

.text.trx_delay_micros%428
                0x000000000104eaec        0xe
 .text.trx_delay_micros
                0x000000000104eaec        0xe ../src/config/default/driver/lib/lib-ieee802154_phy_pic32cxbz-v1.2.0.a(phy.o)
                0x000000000104eaec                trx_delay_micros

.text.tolower%429
                0x000000000104eafa        0xe
 .text.tolower  0x000000000104eafa        0xe c:/program files/microchip/xc32/v4.60/bin/bin/../../lib/gcc/pic32c/8.3.1/../../../../pic32c/lib/thumb/v7e-m+fp/hard\libc-musl.a(tolower.o)
                0x000000000104eafa                tolower

.text.toupper%430
                0x000000000104eb08        0xe
 .text.toupper  0x000000000104eb08        0xe c:/program files/microchip/xc32/v4.60/bin/bin/../../lib/gcc/pic32c/8.3.1/../../../../pic32c/lib/thumb/v7e-m+fp/hard\libc-musl.a(toupper.o)
                0x000000000104eb08                toupper

.text%431       0x000000000104eb18        0xc
 .text          0x000000000104eb18        0xc build/default/production/_ext/1434821282/bsp.o
                0x000000000104eb18                BSP_Initialize

.rodata.str1.4%432
                0x000000000104eb24        0xc
 .rodata.str1.4
                0x000000000104eb24        0xc build/default/production/_ext/710515956/drv_mac_g3adp.o

.text.PHY_GetSWVersion%433
                0x000000000104eb30        0xc
 .text.PHY_GetSWVersion
                0x000000000104eb30        0xc ../src/config/default/driver/lib/lib-ieee802154_phy_pic32cxbz-v1.2.0.a(phy.o)
                0x000000000104eb30                PHY_GetSWVersion

.text.trx_reg_read%434
                0x000000000104eb3c        0xc
 .text.trx_reg_read
                0x000000000104eb3c        0xc ../src/config/default/driver/lib/lib-ieee802154_phy_pic32cxbz-v1.2.0.a(phy_irq_handler.o)

.text.trx_reg_read%435
                0x000000000104eb48        0xc
 .text.trx_reg_read
                0x000000000104eb48        0xc ../src/config/default/driver/lib/lib-ieee802154_phy_pic32cxbz-v1.2.0.a(phy_rx.o)

.text%436       0x000000000104eb54        0xc
 .text          0x000000000104eb54        0xc ../src/config/default/stack/g3/adaptation/g3_lib_loadng.a(ProtoLoadNg_RouteCost_HopCount.o)
                0x000000000104eb54                ProtoLoadNg_RouteCost_GetLinkCost_HopCount
                0x000000000104eb58                ProtoLoadNg_RouteCost_GetLinkCostUnidirectional_HopCount
                0x000000000104eb5c                ProtoLoadNg_RouteCost_WeakLinkAdjust_HopCount

.text.strncpy%437
                0x000000000104eb60        0xc
 .text.strncpy  0x000000000104eb60        0xc c:/program files/microchip/xc32/v4.60/bin/bin/../../lib/gcc/pic32c/8.3.1/../../../../pic32c/lib/thumb/v7e-m+fp/hard\libc-size-musl.a(strncpy.o)
                0x000000000104eb60                strncpy

.text.srand%438
                0x000000000104eb6c        0xc
 .text.srand    0x000000000104eb6c        0xc c:/program files/microchip/xc32/v4.60/bin/bin/../../lib/gcc/pic32c/8.3.1/../../../../pic32c/lib/thumb/v7e-m+fp/hard\libc-musl.a(rand.o)
                0x000000000104eb6c                srand

.text.vsprintf%439
                0x000000000104eb78        0xc
 .text.vsprintf
                0x000000000104eb78        0xc c:/program files/microchip/xc32/v4.60/bin/bin/../../lib/gcc/pic32c/8.3.1/../../../../pic32c/lib/thumb/v7e-m+fp/hard\libc-musl.a(vsprintf.o)
                0x000000000104eb78                vsprintf

.text.strcpy%440
                0x000000000104eb84        0xc
 .text.strcpy   0x000000000104eb84        0xc c:/program files/microchip/xc32/v4.60/bin/bin/../../lib/gcc/pic32c/8.3.1/../../../../pic32c/lib/thumb/v7e-m+fp/hard\libc-size-musl.a(strcpy.o)
                0x000000000104eb84                strcpy

.text.tal_get_trx_status%441
                0x000000000104eb90        0xa
 .text.tal_get_trx_status
                0x000000000104eb90        0xa ../src/config/default/driver/lib/lib-ieee802154_phy_pic32cxbz-v1.2.0.a(phy_helper.o)
                0x000000000104eb90                tal_get_trx_status

.text%442       0x000000000104eb9c        0x8
 .text          0x000000000104eb9c        0x8 build/default/production/_ext/957911548/phy_rx_frame_cb.o
                0x000000000104eba0                PHY_IsFramePendingFromNextLayer

.rodata%443     0x000000000104eba4        0x8
 .rodata        0x000000000104eba4        0x8 build/default/production/_ext/1033058136/ndp.o

.rodata%444     0x000000000104ebac        0x8
 .rodata        0x000000000104ebac        0x8 ../src/config/default/stack/g3/mac/mac_plc/g3_lib_mac_plc.a(MacConstants.o)

.rodata.CSWTCH.74%445
                0x000000000104ebb4        0x8
 .rodata.CSWTCH.74
                0x000000000104ebb4        0x8 ../src/config/default/driver/lib/lib-ieee802154_phy_pic32cxbz-v1.2.0.a(phy_tx.o)

.text.__aeabi_dsub%446
                0x000000000104ebbc        0x8
 .text.__aeabi_dsub
                0x000000000104ebbc        0x8 c:/program files/microchip/xc32/v4.60/bin/bin/../../lib/gcc/pic32c/8.3.1/../../../../pic32c/lib/thumb/v7e-m+fp/hard\libm-fast-emfloat.a(__aeabi_dsub.o)
                0x000000000104ebbc                __aeabi_dsub

.rodata.str1.1%447
                0x000000000104ebc4        0x8
 .rodata.str1.1
                0x000000000104ebc4        0x8 c:/program files/microchip/xc32/v4.60/bin/bin/../../lib/gcc/pic32c/8.3.1/../../../../pic32c/lib/thumb/v7e-m+fp/hard\libc-musl.a(__printf_core.o)

.rodata.str1.1%448
                0x000000000104ebcc        0x7
 .rodata.str1.1
                0x000000000104ebcc        0x7 c:/program files/microchip/xc32/v4.60/bin/bin/../../lib/gcc/pic32c/8.3.1/../../../../pic32c/lib/thumb/v7e-m+fp/hard\libc-musl.a(__fmt_s.o)

.text.trx_delay_loop%449
                0x000000000104ebd4        0x6
 .text.trx_delay_loop
                0x000000000104ebd4        0x6 ../src/config/default/driver/lib/lib-ieee802154_phy_pic32cxbz-v1.2.0.a(phy.o)
                0x000000000104ebd4                trx_delay_loop

.text.PHY_GetRSSIBaseVal%450
                0x000000000104ebda        0x6
 .text.PHY_GetRSSIBaseVal
                0x000000000104ebda        0x6 ../src/config/default/driver/lib/lib-ieee802154_phy_pic32cxbz-v1.2.0.a(phy_helper.o)
                0x000000000104ebda                PHY_GetRSSIBaseVal

.text%451       0x000000000103a434        0x4
 .text          0x000000000103a434        0x4 build/default/production/_ext/957911548/phy_ed_end_cb.o
                0x000000000103a434                PHY_EdEndCallback

.text%452       0x00000000010406d4        0x4
 .text          0x00000000010406d4        0x4 build/default/production/_ext/1986646378/plib_evsys.o
                0x00000000010406d4                EVSYS_Initialize

.rodata%453     0x00000000010425c4        0x4
 .rodata        0x00000000010425c4        0x4 build/default/production/_ext/1832805299/sys_console.o

.text.z_readReg32%454
                0x000000000104673c        0x4
 .text.z_readReg32
                0x000000000104673c        0x4 ../src/config/default/driver/lib/lib-ieee802154_phy_pic32cxbz-v1.2.0.a(phy_irq_handler.o)

.text.z_readReg8%455
                0x00000000010479b4        0x4
 .text.z_readReg8
                0x00000000010479b4        0x4 ../src/config/default/driver/lib/lib-ieee802154_phy_pic32cxbz-v1.2.0.a(phy_rx.o)

.text.z_readReg32%456
                0x000000000104b45c        0x4
 .text.z_readReg32
                0x000000000104b45c        0x4 ../src/config/default/driver/lib/lib-ieee802154_phy_pic32cxbz-v1.2.0.a(phy_rx.o)

.text.z_reg_write32%457
                0x000000000104ebe0        0x4
 .text.z_reg_write32
                0x000000000104ebe0        0x4 ../src/config/default/driver/lib/lib-ieee802154_phy_pic32cxbz-v1.2.0.a(phy_tx.o)

.text.z_reg_write32%458
                0x000000000104ebe4        0x4
 .text.z_reg_write32
                0x000000000104ebe4        0x4 ../src/config/default/driver/lib/lib-ieee802154_phy_pic32cxbz-v1.2.0.a(tfa.o)

.text.__dummy_decompress%459
                0x000000000104ebe8        0x4
 .text.__dummy_decompress
                0x000000000104ebe8        0x4 c:/program files/microchip/xc32/v4.60/bin/bin/../../lib/gcc/pic32c/8.3.1/../../../../pic32c/lib/thumb/v7e-m+fp/hard\libpic32c.a(data_init.o)
                0x000000000104ebe8                __dinit_decompress
                0x000000000104ebe8                __dinit_copy_val_data
                0x000000000104ebe8                __dinit_copy_emb

.text%460       0x000000000104ebec        0x4
 .text          0x000000000104ebec        0x4 c:/program files/microchip/xc32/v4.60/bin/bin/../../lib/gcc/pic32c/8.3.1/thumb/v7e-m+fp/hard\libgcc.a(_dvmd_tls.o)
                0x000000000104ebec                __aeabi_idiv0
                0x000000000104ebec                __aeabi_ldiv0

.text%461       0x00000000010462ce        0x2
 .text          0x00000000010462ce        0x2 build/default/production/_ext/1171490990/interrupts.o
                0x00000000010462ce                ADC_EOS_Handler
                0x00000000010462ce                CHANGE_NOTICE_A_Handler
                0x00000000010462ce                TRNG_Handler
                0x00000000010462ce                TC2_Handler
                0x00000000010462ce                AC_Handler
                0x00000000010462ce                QSPI_Handler
                0x00000000010462ce                TCC1_Handler
                0x00000000010462ce                SERCOM2_Handler
                0x00000000010462ce                TCC0_Handler
                0x00000000010462ce                RTC_Handler
                0x00000000010462ce                TC1_Handler
                0x00000000010462ce                BT_INT1_Handler
                0x00000000010462ce                PAC_Handler
                0x00000000010462ce                TC3_Handler
                0x00000000010462ce                Dummy_Handler
                0x00000000010462ce                BT_RC_Handler
                0x00000000010462ce                CLKI_WAKEUP_NMI_Handler
                0x00000000010462ce                ADCHS_Handler
                0x00000000010462ce                EVSYS_0_3_Handler
                0x00000000010462ce                ADC_FAULT_Handler
                0x00000000010462ce                TCC2_Handler
                0x00000000010462ce                BT_INT0_Handler
                0x00000000010462ce                SERCOM3_Handler
                0x00000000010462ce                EVSYS_4_11_Handler
                0x00000000010462ce                DMAC_4_15_Handler
                0x00000000010462ce                SERCOM0_Handler
                0x00000000010462ce                PUKCC_Handler
                0x00000000010462ce                BT_LC_Handler
                0x00000000010462ce                CHANGE_NOTICE_B_Handler
                0x00000000010462ce                FREQM_Handler
                0x00000000010462ce                RAMECC_Handler
                0x00000000010462ce                AES_Handler
                0x00000000010462ce                ICM_Handler
                0x00000000010462ce                ADC_BGVR_RDY_Handler

.text%462       0x0000000001046d96        0x2
 .text          0x0000000001046d96        0x2 build/default/production/_ext/1171490990/startup_xc32.o
                0x0000000001046d96                _on_bootstrap
                0x0000000001046d96                __xc32_on_reset
                0x0000000001046d96                Dummy_App_Func
                0x0000000001046d96                __xc32_on_bootstrap

.text.PHY_RxStartCallback%463
                0x000000000104a716        0x2
 .text.PHY_RxStartCallback
                0x000000000104a716        0x2 ../src/config/default/driver/lib/lib-ieee802154_phy_pic32cxbz-v1.2.0.a(phy_frame_handling.o)
                0x000000000104a716                PHY_RxStartCallback

.text.PHY_GenerateImmAck%464
                0x000000000104ab6a        0x2
 .text.PHY_GenerateImmAck
                0x000000000104ab6a        0x2 ../src/config/default/driver/lib/lib-ieee802154_phy_pic32cxbz-v1.2.0.a(phy_frame_handling.o)
                0x000000000104ab6a                PHY_GenerateImmAck

.text.PHY_GenerateEnhancedAck%465
                0x000000000104cc32        0x2
 .text.PHY_GenerateEnhancedAck
                0x000000000104cc32        0x2 ../src/config/default/driver/lib/lib-ieee802154_phy_pic32cxbz-v1.2.0.a(phy_frame_handling.o)
                0x000000000104cc32                PHY_GenerateEnhancedAck

.text.PHY_Tx2015FrameDoneCallback%466
                0x000000000104d492        0x2
 .text.PHY_Tx2015FrameDoneCallback
                0x000000000104d492        0x2 ../src/config/default/driver/lib/lib-ieee802154_phy_pic32cxbz-v1.2.0.a(phy_frame_handling.o)
                0x000000000104d492                PHY_Tx2015FrameDoneCallback

.text.__dummy_init_tls%467
                0x000000000104d68a        0x2
 .text.__dummy_init_tls
                0x000000000104d68a        0x2 c:/program files/microchip/xc32/v4.60/bin/bin/../../lib/gcc/pic32c/8.3.1/../../../../pic32c/lib/thumb/v7e-m+fp/hard\libpic32c.a(data_init.o)
                0x000000000104d68a                xc32_init_tls

.text.__dummy%468
                0x000000000104da0e        0x2
 .text.__dummy  0x000000000104da0e        0x2 c:/program files/microchip/xc32/v4.60/bin/bin/../../lib/gcc/pic32c/8.3.1/../../../../pic32c/lib/thumb/v7e-m+fp/hard\libc-musl.a(__libc_start_main.o)
                0x000000000104da0e                __init_stdio
                0x000000000104da0e                __init_host
